
/lindata/My-work/Professional/iitb/development/git-repo/ajit-toolchain/src/development/amv-ajit-code/tests/ajit-supported-obj/ccc-shift-ops.o:     file format elf32-ajit


Disassembly of section .text:

00000000 <main>:
   0:	9d e3 bf 88 	xnorcc  %i7, 0x39d, %g4
   4:	82 f8 40 22 	unknown
   8:	83 28 80 42 	call  a00a214 <llrec+0xa009ef4>
   c:	83 28 60 60 	call  8180a218 <llrec+0x81809ef8>
  10:	83 30 80 42 	call  a00c21c <llrec+0xa00befc>
  14:	83 30 60 60 	call  8180c220 <llrec+0x8180bf00>
  18:	83 38 80 42 	call  a00e224 <llrec+0xa00df04>
  1c:	83 38 60 60 	call  8180e228 <llrec+0x8180df08>
  20:	f0 27 a0 44 	call  12809fe0 <llrec+0x12809cc0>
  24:	f2 27 a0 48 	call  22809fec <llrec+0x22809ccc>
  28:	c0 27 bf fc 	unknown
  2c:	82 10 20 01 	sethi  %hi(0x80420800), %g0
  30:	c2 27 bf f8 	unknown
  34:	c0 27 bf f4 	unknown
  38:	c2 07 a0 44 	call  12801f40 <llrec+0x12801c20>
  3c:	80 a0 60 01 	unknown
  40:	04 80 00 60 	call  80020050 <llrec+0x8001fd30>
  44:	01 00 00 00 	unimp  0x1
  48:	10 80 00 19 	sethi  %hi(0x2004000), %o4
  4c:	01 00 00 00 	unimp  0x1
  50:	c2 07 bf f8 	stda  %i4, [ %i4 + %g2 ] (62)
  54:	83 28 60 02 	unknown
  58:	c4 07 a0 48 	call  22801f68 <llrec+0x22801c48>
  5c:	82 00 80 01 	fbn  264 <car+0x18>
  60:	c2 00 40 00 	unknown
  64:	90 10 00 01 	sethi  %hi(0x424000), %g0
  68:	40 00 00 00 	unimp  0x40
  6c:	01 00 00 00 	unimp  0x1
  70:	d0 27 bf f0 	unknown
  74:	03 00 00 00 	unimp  0x3
  78:	82 10 60 00 	unknown
  7c:	c2 00 40 00 	unknown
  80:	d0 07 bf f0 	stda  %i0, [ %i4 + %l0 ] (62)
  84:	92 10 00 01 	sethi  %hi(0x424800), %g0
  88:	40 00 00 00 	unimp  0x40
  8c:	01 00 00 00 	unimp  0x1
  90:	84 10 00 08 	unknown
  94:	03 00 00 00 	unimp  0x3
  98:	82 10 60 00 	unknown
  9c:	c4 20 40 00 	unknown
  a0:	c2 07 bf f8 	stda  %i4, [ %i4 + %g2 ] (62)
  a4:	82 00 60 01 	unknown
  a8:	c2 27 bf f8 	unknown
  ac:	c4 07 bf f8 	stda  %i4, [ %i4 + %g4 ] (62)
  b0:	c2 07 a0 44 	call  12801fb8 <llrec+0x12801c98>
  b4:	80 a0 80 01 	fbn  282b4 <llrec+0x27f94>
  b8:	06 bf ff e6 	unknown
  bc:	01 00 00 00 	unimp  0x1
  c0:	03 00 00 00 	unimp  0x3
  c4:	82 10 60 00 	unknown
  c8:	c2 00 40 00 	unknown
  cc:	90 10 00 01 	sethi  %hi(0x424000), %g0
  d0:	40 00 00 00 	unimp  0x40
  d4:	01 00 00 00 	unimp  0x1
  d8:	84 10 00 08 	unknown
  dc:	03 00 00 00 	unimp  0x3
  e0:	82 10 60 00 	unknown
  e4:	c4 20 40 00 	unknown
  e8:	03 00 00 00 	unimp  0x3
  ec:	82 10 60 00 	unknown
  f0:	c2 00 40 00 	unknown
  f4:	05 00 00 00 	unimp  0x5
  f8:	90 10 a0 00 	bn  ff804338 <llrec+0xff804018>
  fc:	92 10 00 01 	sethi  %hi(0x424800), %g0
 100:	40 00 00 00 	unimp  0x40
 104:	01 00 00 00 	unimp  0x1
 108:	03 00 00 00 	unimp  0x3
 10c:	82 10 60 00 	unknown
 110:	c2 00 40 00 	unknown
 114:	c2 27 bf f4 	unknown
 118:	10 80 00 1b 	sethi  %hi(0x2004000), %o5
 11c:	01 00 00 00 	unimp  0x1
 120:	d0 07 bf f4 	stda  %i2, [ %i4 + %l0 ] (62)
 124:	40 00 00 00 	unimp  0x40
 128:	01 00 00 00 	unimp  0x1
 12c:	d0 27 bf ec 	unknown
 130:	03 00 00 00 	unimp  0x3
 134:	82 10 60 00 	unknown
 138:	c2 00 40 00 	unknown
 13c:	82 00 60 01 	unknown
 140:	05 00 00 00 	unimp  0x5
 144:	90 10 a0 00 	bn  ff804384 <llrec+0xff804064>
 148:	92 10 00 01 	sethi  %hi(0x424800), %g0
 14c:	d4 07 bf ec 	stda  %l6, [ %i4 + %l4 ] (62)
 150:	40 00 00 00 	unimp  0x40
 154:	01 00 00 00 	unimp  0x1
 158:	d0 07 bf f4 	stda  %i2, [ %i4 + %l0 ] (62)
 15c:	40 00 00 00 	unimp  0x40
 160:	01 00 00 00 	unimp  0x1
 164:	d0 27 bf f4 	unknown
 168:	03 00 00 00 	unimp  0x3
 16c:	82 10 60 00 	unknown
 170:	c2 00 40 00 	unknown
 174:	84 00 60 01 	unknown
 178:	03 00 00 00 	unimp  0x3
 17c:	82 10 60 00 	unknown
 180:	c4 20 40 00 	unknown
 184:	c2 07 bf f4 	stda  %i2, [ %i4 + %g2 ] (62)
 188:	80 a0 60 00 	unknown
 18c:	02 80 00 0f 	sethi  %hi(0x2000800), %g7
 190:	01 00 00 00 	unimp  0x1
 194:	03 00 00 00 	unimp  0x3
 198:	82 10 60 00 	unknown
 19c:	c4 00 40 00 	unknown
 1a0:	03 00 00 00 	unimp  0x3
 1a4:	82 10 60 00 	unknown
 1a8:	c2 00 40 00 	unknown
 1ac:	80 a0 80 01 	fbn  283ac <llrec+0x2808c>
 1b0:	06 bf ff dc 	unknown
 1b4:	01 00 00 00 	unimp  0x1
 1b8:	10 80 00 04 	unknown
 1bc:	01 00 00 00 	unimp  0x1
 1c0:	82 10 3f ff 	unknown
 1c4:	c2 27 bf fc 	unknown
 1c8:	c2 07 bf fc 	stda  %fp, [ %i4 + %g2 ] (62)
 1cc:	b0 10 00 01 	sethi  %hi(0x42c000), %g0
 1d0:	81 e8 00 00 	unimp  0xe881
 1d4:	81 c3 e0 08 	unknown
 1d8:	01 00 00 00 	unimp  0x1

000001dc <cons>:
 1dc:	9d e3 bf 98 	xnorcc  %i7, 0x39d, %o4
 1e0:	f0 27 a0 44 	call  1280a1a0 <llrec+0x12809e80>
 1e4:	f2 27 a0 48 	call  2280a1ac <llrec+0x22809e8c>
 1e8:	c0 27 bf fc 	unknown
 1ec:	90 10 20 01 	sethi  %hi(0x80424000), %g0
 1f0:	92 10 20 08 	unknown
 1f4:	40 00 00 00 	unimp  0x40
 1f8:	01 00 00 00 	unimp  0x1
 1fc:	82 10 00 08 	unknown
 200:	c2 27 bf fc 	unknown
 204:	c2 07 bf fc 	stda  %fp, [ %i4 + %g2 ] (62)
 208:	80 a0 60 00 	unknown
 20c:	02 80 00 0a 	unknown
 210:	01 00 00 00 	unimp  0x1
 214:	c2 07 bf fc 	stda  %fp, [ %i4 + %g2 ] (62)
 218:	c4 07 a0 44 	call  12802128 <llrec+0x12801e08>
 21c:	c4 20 40 00 	unknown
 220:	c2 07 bf fc 	stda  %fp, [ %i4 + %g2 ] (62)
 224:	c4 07 a0 48 	call  22802134 <llrec+0x22801e14>
 228:	c4 20 60 04 	unknown
 22c:	10 80 00 03 	sethi  %hi(0x2004000), %g1
 230:	01 00 00 00 	unimp  0x1
 234:	c0 27 bf fc 	unknown
 238:	c2 07 bf fc 	stda  %fp, [ %i4 + %g2 ] (62)
 23c:	b0 10 00 01 	sethi  %hi(0x42c000), %g0
 240:	81 e8 00 00 	unimp  0xe881
 244:	81 c3 e0 08 	unknown
 248:	01 00 00 00 	unimp  0x1

0000024c <car>:
 24c:	9d e3 bf a0 	xnorcc  %i7, 0x39d, %l0
 250:	f0 27 a0 44 	call  1280a210 <llrec+0x12809ef0>
 254:	c2 07 a0 44 	call  1280215c <llrec+0x12801e3c>
 258:	80 a0 60 00 	unknown
 25c:	02 80 00 06 	unknown
 260:	01 00 00 00 	unimp  0x1
 264:	c2 07 a0 44 	call  1280216c <llrec+0x12801e4c>
 268:	c2 00 40 00 	unknown
 26c:	10 80 00 03 	sethi  %hi(0x2004000), %g1
 270:	01 00 00 00 	unimp  0x1
 274:	82 10 3f ff 	unknown
 278:	b0 10 00 01 	sethi  %hi(0x42c000), %g0
 27c:	81 e8 00 00 	unimp  0xe881
 280:	81 c3 e0 08 	unknown
 284:	01 00 00 00 	unimp  0x1

00000288 <cdr>:
 288:	9d e3 bf a0 	xnorcc  %i7, 0x39d, %l0
 28c:	f0 27 a0 44 	call  1280a24c <llrec+0x12809f2c>
 290:	c2 07 a0 44 	call  12802198 <llrec+0x12801e78>
 294:	80 a0 60 00 	unknown
 298:	02 80 00 06 	unknown
 29c:	01 00 00 00 	unimp  0x1
 2a0:	c2 07 a0 44 	call  128021a8 <llrec+0x12801e88>
 2a4:	c2 00 60 04 	unknown
 2a8:	10 80 00 03 	sethi  %hi(0x2004000), %g1
 2ac:	01 00 00 00 	unimp  0x1
 2b0:	82 10 20 00 	unimp  0xffe01082
 2b4:	b0 10 00 01 	sethi  %hi(0x42c000), %g0
 2b8:	81 e8 00 00 	unimp  0xe881
 2bc:	81 c3 e0 08 	unknown
 2c0:	01 00 00 00 	unimp  0x1

000002c4 <ll>:
 2c4:	9d e3 bf 98 	xnorcc  %i7, 0x39d, %o4
 2c8:	f0 27 a0 44 	call  1280a288 <llrec+0x12809f68>
 2cc:	c2 07 a0 44 	call  128021d4 <llrec+0x12801eb4>
 2d0:	c2 27 bf fc 	unknown
 2d4:	c0 27 bf f8 	unknown
 2d8:	10 80 00 09 	sethi  %hi(0x2004000), %g4
 2dc:	01 00 00 00 	unimp  0x1
 2e0:	c2 07 bf f8 	stda  %i4, [ %i4 + %g2 ] (62)
 2e4:	82 00 60 01 	unknown
 2e8:	c2 27 bf f8 	unknown
 2ec:	d0 07 bf fc 	stda  %fp, [ %i4 + %l0 ] (62)
 2f0:	40 00 00 00 	unimp  0x40
 2f4:	01 00 00 00 	unimp  0x1
 2f8:	d0 27 bf fc 	unknown
 2fc:	c2 07 bf fc 	stda  %fp, [ %i4 + %g2 ] (62)
 300:	80 a0 60 00 	unknown
 304:	12 bf ff f7 	cswapda  [ %fp + -238 ], %i3
 308:	01 00 00 00 	unimp  0x1
 30c:	c2 07 bf f8 	stda  %i4, [ %i4 + %g2 ] (62)
 310:	b0 10 00 01 	sethi  %hi(0x42c000), %g0
 314:	81 e8 00 00 	unimp  0xe881
 318:	81 c3 e0 08 	unknown
 31c:	01 00 00 00 	unimp  0x1

00000320 <llrec>:
 320:	9d e3 bf 98 	xnorcc  %i7, 0x39d, %o4
 324:	f0 27 a0 44 	call  1280a2e4 <llrec+0x12809fc4>
 328:	c2 07 a0 44 	call  12802230 <llrec+0x12801f10>
 32c:	c2 27 bf fc 	unknown
 330:	c2 07 bf fc 	stda  %fp, [ %i4 + %g2 ] (62)
 334:	80 a0 60 00 	unknown
 338:	12 80 00 05 	sethi  %hi(0x2004800), %g2
 33c:	01 00 00 00 	unimp  0x1
 340:	82 10 20 00 	unimp  0xffe01082
 344:	10 80 00 0b 	sethi  %hi(0x2004000), %g5
 348:	01 00 00 00 	unimp  0x1
 34c:	d0 07 bf fc 	stda  %fp, [ %i4 + %l0 ] (62)
 350:	40 00 00 00 	unimp  0x40
 354:	01 00 00 00 	unimp  0x1
 358:	82 10 00 08 	unknown
 35c:	90 10 00 01 	sethi  %hi(0x424000), %g0
 360:	40 00 00 00 	unimp  0x40
 364:	01 00 00 00 	unimp  0x1
 368:	82 10 00 08 	unknown
 36c:	82 00 60 01 	unknown
 370:	b0 10 00 01 	sethi  %hi(0x42c000), %g0
 374:	81 e8 00 00 	unimp  0xe881
 378:	81 c3 e0 08 	unknown
 37c:	01 00 00 00 	unimp  0x1
