	.file	"additional_serial.c"
	.section	".text"
.Ltext0:
	.cfi_sections	.debug_frame
	.align 4
	.global __ajit_write_serial_1_control_register_via_bypass__
	.type	__ajit_write_serial_1_control_register_via_bypass__, #function
	.proc	020
__ajit_write_serial_1_control_register_via_bypass__:
.LFB0:
	.file 1 "/home/ajit4/ajit-toolchain/AjitPublicResources/tools/ajit_access_routines_mt/src/additional_serial.c"
	.loc 1 7 0
	.cfi_startproc
	save	%sp, -96, %sp
.LCFI0:
	.cfi_window_save
	.cfi_register 15, 31
	.cfi_def_cfa_register 30
	st	%i0, [%fp+68]
	.loc 1 8 0
	ld	[%fp+68], %g1
	sethi	%hi(-53248), %g2
	or	%g2, 576, %g2
#APP
! 8 "/home/ajit4/ajit-toolchain/AjitPublicResources/tools/ajit_access_routines_mt/src/additional_serial.c" 1
	sta %g1, [%g2] 32
	
! 0 "" 2
	.loc 1 9 0
#NO_APP
	restore
	jmp	%o7+8
	 nop
	.cfi_endproc
.LFE0:
	.size	__ajit_write_serial_1_control_register_via_bypass__, .-__ajit_write_serial_1_control_register_via_bypass__
	.align 4
	.global __ajit_read_serial_1_control_register_via_bypass__
	.type	__ajit_read_serial_1_control_register_via_bypass__, #function
	.proc	016
__ajit_read_serial_1_control_register_via_bypass__:
.LFB1:
	.loc 1 12 0
	.cfi_startproc
	save	%sp, -104, %sp
.LCFI1:
	.cfi_window_save
	.cfi_register 15, 31
	.cfi_def_cfa_register 30
	.loc 1 14 0
	sethi	%hi(-53248), %g1
	or	%g1, 576, %g1
#APP
! 14 "/home/ajit4/ajit-toolchain/AjitPublicResources/tools/ajit_access_routines_mt/src/additional_serial.c" 1
	lda [%g1] 32, %i5
	
! 0 "" 2
#NO_APP
	st	%i5, [%fp-4]
	.loc 1 15 0
	ld	[%fp-4], %g1
	.loc 1 16 0
	mov	%g1, %i0
	restore
	jmp	%o7+8
	 nop
	.cfi_endproc
.LFE1:
	.size	__ajit_read_serial_1_control_register_via_bypass__, .-__ajit_read_serial_1_control_register_via_bypass__
	.align 4
	.global __ajit_write_serial_1_tx_register_via_bypass__
	.type	__ajit_write_serial_1_tx_register_via_bypass__, #function
	.proc	020
__ajit_write_serial_1_tx_register_via_bypass__:
.LFB2:
	.loc 1 19 0
	.cfi_startproc
	save	%sp, -96, %sp
.LCFI2:
	.cfi_window_save
	.cfi_register 15, 31
	.cfi_def_cfa_register 30
	mov	%i0, %g1
	stb	%g1, [%fp+68]
	.loc 1 20 0
	ldub	[%fp+68], %g1
	sethi	%hi(-53248), %g2
	or	%g2, 580, %g2
#APP
! 20 "/home/ajit4/ajit-toolchain/AjitPublicResources/tools/ajit_access_routines_mt/src/additional_serial.c" 1
	stuba %g1, [%g2] 32
	
! 0 "" 2
	.loc 1 21 0
#NO_APP
	restore
	jmp	%o7+8
	 nop
	.cfi_endproc
.LFE2:
	.size	__ajit_write_serial_1_tx_register_via_bypass__, .-__ajit_write_serial_1_tx_register_via_bypass__
	.align 4
	.global __ajit_read_serial_1_tx_register_via_bypass__
	.type	__ajit_read_serial_1_tx_register_via_bypass__, #function
	.proc	014
__ajit_read_serial_1_tx_register_via_bypass__:
.LFB3:
	.loc 1 23 0
	.cfi_startproc
	save	%sp, -104, %sp
.LCFI3:
	.cfi_window_save
	.cfi_register 15, 31
	.cfi_def_cfa_register 30
	.loc 1 25 0
	sethi	%hi(-53248), %g1
	or	%g1, 580, %g1
#APP
! 25 "/home/ajit4/ajit-toolchain/AjitPublicResources/tools/ajit_access_routines_mt/src/additional_serial.c" 1
	lduba [%g1] 32, %i5
	
! 0 "" 2
#NO_APP
	stb	%i5, [%fp-1]
	.loc 1 26 0
	ldub	[%fp-1], %g1
	and	%g1, 0xff, %g1
	.loc 1 27 0
	mov	%g1, %i0
	restore
	jmp	%o7+8
	 nop
	.cfi_endproc
.LFE3:
	.size	__ajit_read_serial_1_tx_register_via_bypass__, .-__ajit_read_serial_1_tx_register_via_bypass__
	.align 4
	.global __ajit_read_serial_1_rx_register_via_bypass__
	.type	__ajit_read_serial_1_rx_register_via_bypass__, #function
	.proc	014
__ajit_read_serial_1_rx_register_via_bypass__:
.LFB4:
	.loc 1 29 0
	.cfi_startproc
	save	%sp, -104, %sp
.LCFI4:
	.cfi_window_save
	.cfi_register 15, 31
	.cfi_def_cfa_register 30
	.loc 1 31 0
	sethi	%hi(-53248), %g1
	or	%g1, 584, %g1
#APP
! 31 "/home/ajit4/ajit-toolchain/AjitPublicResources/tools/ajit_access_routines_mt/src/additional_serial.c" 1
	lduba [%g1] 32, %i5
	
! 0 "" 2
#NO_APP
	stb	%i5, [%fp-1]
	.loc 1 32 0
	ldub	[%fp-1], %g1
	and	%g1, 0xff, %g1
	.loc 1 33 0
	mov	%g1, %i0
	restore
	jmp	%o7+8
	 nop
	.cfi_endproc
.LFE4:
	.size	__ajit_read_serial_1_rx_register_via_bypass__, .-__ajit_read_serial_1_rx_register_via_bypass__
	.align 4
	.global __ajit_serial_1_putchar_via_bypass__
	.type	__ajit_serial_1_putchar_via_bypass__, #function
	.proc	04
__ajit_serial_1_putchar_via_bypass__:
.LFB5:
	.loc 1 37 0
	.cfi_startproc
	save	%sp, -96, %sp
.LCFI5:
	.cfi_window_save
	.cfi_register 15, 31
	.cfi_def_cfa_register 30
	mov	%i0, %g1
	stb	%g1, [%fp+68]
	.loc 1 38 0
	ldub	[%fp+68], %g1
	sll	%g1, 24, %g1
	sra	%g1, 24, %g1
	mov	0, %o0
	mov	1, %o1
	mov	%g1, %o2
	call	__ajit_serial_putchar_inner__, 0
	 nop
	mov	%o0, %g1
	.loc 1 39 0
	mov	%g1, %i0
	restore
	jmp	%o7+8
	 nop
	.cfi_endproc
.LFE5:
	.size	__ajit_serial_1_putchar_via_bypass__, .-__ajit_serial_1_putchar_via_bypass__
	.align 4
	.global __ajit_serial_1_getchar_via_bypass__
	.type	__ajit_serial_1_getchar_via_bypass__, #function
	.proc	04
__ajit_serial_1_getchar_via_bypass__:
.LFB6:
	.loc 1 42 0
	.cfi_startproc
	save	%sp, -104, %sp
.LCFI6:
	.cfi_window_save
	.cfi_register 15, 31
	.cfi_def_cfa_register 30
	.loc 1 46 0
	add	%fp, -1, %g1
	mov	0, %o0
	mov	1, %o1
	mov	%g1, %o2
	call	__ajit_serial_getchar_inner__, 0
	 nop
	.loc 1 48 0
	ldub	[%fp-1], %g1
	sll	%g1, 24, %g1
	sra	%g1, 24, %g1
	.loc 1 49 0
	mov	%g1, %i0
	restore
	jmp	%o7+8
	 nop
	.cfi_endproc
.LFE6:
	.size	__ajit_serial_1_getchar_via_bypass__, .-__ajit_serial_1_getchar_via_bypass__
	.align 4
	.global __ajit_serial_1_puts_via_bypass__
	.type	__ajit_serial_1_puts_via_bypass__, #function
	.proc	020
__ajit_serial_1_puts_via_bypass__:
.LFB7:
	.loc 1 52 0
	.cfi_startproc
	save	%sp, -96, %sp
.LCFI7:
	.cfi_window_save
	.cfi_register 15, 31
	.cfi_def_cfa_register 30
	st	%i0, [%fp+68]
	st	%i1, [%fp+72]
	.loc 1 53 0
	mov	0, %o0
	mov	1, %o1
	ld	[%fp+68], %o2
	ld	[%fp+72], %o3
	call	__ajit_serial_puts_inner__, 0
	 nop
	nop
	.loc 1 54 0
	restore
	jmp	%o7+8
	 nop
	.cfi_endproc
.LFE7:
	.size	__ajit_serial_1_puts_via_bypass__, .-__ajit_serial_1_puts_via_bypass__
	.align 4
	.global __ajit_serial_1_gets_via_bypass__
	.type	__ajit_serial_1_gets_via_bypass__, #function
	.proc	020
__ajit_serial_1_gets_via_bypass__:
.LFB8:
	.loc 1 56 0
	.cfi_startproc
	save	%sp, -96, %sp
.LCFI8:
	.cfi_window_save
	.cfi_register 15, 31
	.cfi_def_cfa_register 30
	st	%i0, [%fp+68]
	st	%i1, [%fp+72]
	.loc 1 57 0
	mov	0, %o0
	mov	1, %o1
	ld	[%fp+68], %o2
	ld	[%fp+72], %o3
	call	__ajit_serial_gets_inner__, 0
	 nop
	.loc 1 58 0
	restore
	jmp	%o7+8
	 nop
	.cfi_endproc
.LFE8:
	.size	__ajit_serial_1_gets_via_bypass__, .-__ajit_serial_1_gets_via_bypass__
	.align 4
	.global __ajit_serial_1_configure_via_bypass__
	.type	__ajit_serial_1_configure_via_bypass__, #function
	.proc	020
__ajit_serial_1_configure_via_bypass__:
.LFB9:
	.loc 1 61 0
	.cfi_startproc
	save	%sp, -96, %sp
.LCFI9:
	.cfi_window_save
	.cfi_register 15, 31
	.cfi_def_cfa_register 30
	mov	%i0, %g3
	mov	%i1, %g2
	mov	%i2, %g1
	stb	%g3, [%fp+68]
	stb	%g2, [%fp+72]
	stb	%g1, [%fp+76]
	.loc 1 62 0
	ldub	[%fp+68], %g1
	and	%g1, 0xff, %g3
	ldub	[%fp+72], %g1
	and	%g1, 0xff, %g2
	ldub	[%fp+76], %g1
	and	%g1, 0xff, %g1
	mov	0, %o0
	mov	1, %o1
	mov	%g3, %o2
	mov	%g2, %o3
	mov	%g1, %o4
	call	__ajit_serial_configure_inner__, 0
	 nop
	.loc 1 63 0
	restore
	jmp	%o7+8
	 nop
	.cfi_endproc
.LFE9:
	.size	__ajit_serial_1_configure_via_bypass__, .-__ajit_serial_1_configure_via_bypass__
	.align 4
	.global __ajit_read_serial_1_baud_limit_register_via_bypass__
	.type	__ajit_read_serial_1_baud_limit_register_via_bypass__, #function
	.proc	016
__ajit_read_serial_1_baud_limit_register_via_bypass__:
.LFB10:
	.loc 1 65 0
	.cfi_startproc
	save	%sp, -104, %sp
.LCFI10:
	.cfi_window_save
	.cfi_register 15, 31
	.cfi_def_cfa_register 30
	.loc 1 67 0
	sethi	%hi(-53248), %g1
	or	%g1, 588, %g1
#APP
! 67 "/home/ajit4/ajit-toolchain/AjitPublicResources/tools/ajit_access_routines_mt/src/additional_serial.c" 1
	lda [%g1] 32, %i5
	
! 0 "" 2
#NO_APP
	st	%i5, [%fp-4]
	.loc 1 68 0
	ld	[%fp-4], %g1
	.loc 1 69 0
	mov	%g1, %i0
	restore
	jmp	%o7+8
	 nop
	.cfi_endproc
.LFE10:
	.size	__ajit_read_serial_1_baud_limit_register_via_bypass__, .-__ajit_read_serial_1_baud_limit_register_via_bypass__
	.align 4
	.global __ajit_write_serial_1_baud_limit_register_via_bypass__
	.type	__ajit_write_serial_1_baud_limit_register_via_bypass__, #function
	.proc	020
__ajit_write_serial_1_baud_limit_register_via_bypass__:
.LFB11:
	.loc 1 72 0
	.cfi_startproc
	save	%sp, -96, %sp
.LCFI11:
	.cfi_window_save
	.cfi_register 15, 31
	.cfi_def_cfa_register 30
	st	%i0, [%fp+68]
	.loc 1 73 0
	ld	[%fp+68], %g1
	sethi	%hi(-53248), %g2
	or	%g2, 588, %g2
#APP
! 73 "/home/ajit4/ajit-toolchain/AjitPublicResources/tools/ajit_access_routines_mt/src/additional_serial.c" 1
	sta %g1, [%g2] 32
	
! 0 "" 2
	.loc 1 74 0
#NO_APP
	restore
	jmp	%o7+8
	 nop
	.cfi_endproc
.LFE11:
	.size	__ajit_write_serial_1_baud_limit_register_via_bypass__, .-__ajit_write_serial_1_baud_limit_register_via_bypass__
	.align 4
	.global __ajit_read_serial_1_baud_frequency_register_via_bypass__
	.type	__ajit_read_serial_1_baud_frequency_register_via_bypass__, #function
	.proc	016
__ajit_read_serial_1_baud_frequency_register_via_bypass__:
.LFB12:
	.loc 1 77 0
	.cfi_startproc
	save	%sp, -104, %sp
.LCFI12:
	.cfi_window_save
	.cfi_register 15, 31
	.cfi_def_cfa_register 30
	.loc 1 79 0
	sethi	%hi(-53248), %g1
	or	%g1, 592, %g1
#APP
! 79 "/home/ajit4/ajit-toolchain/AjitPublicResources/tools/ajit_access_routines_mt/src/additional_serial.c" 1
	lda [%g1] 32, %i5
	
! 0 "" 2
#NO_APP
	st	%i5, [%fp-4]
	.loc 1 80 0
	ld	[%fp-4], %g1
	.loc 1 81 0
	mov	%g1, %i0
	restore
	jmp	%o7+8
	 nop
	.cfi_endproc
.LFE12:
	.size	__ajit_read_serial_1_baud_frequency_register_via_bypass__, .-__ajit_read_serial_1_baud_frequency_register_via_bypass__
	.align 4
	.global __ajit_write_serial_1_baud_frequency_register_via_bypass__
	.type	__ajit_write_serial_1_baud_frequency_register_via_bypass__, #function
	.proc	020
__ajit_write_serial_1_baud_frequency_register_via_bypass__:
.LFB13:
	.loc 1 84 0
	.cfi_startproc
	save	%sp, -96, %sp
.LCFI13:
	.cfi_window_save
	.cfi_register 15, 31
	.cfi_def_cfa_register 30
	st	%i0, [%fp+68]
	.loc 1 85 0
	ld	[%fp+68], %g1
	sethi	%hi(-53248), %g2
	or	%g2, 592, %g2
#APP
! 85 "/home/ajit4/ajit-toolchain/AjitPublicResources/tools/ajit_access_routines_mt/src/additional_serial.c" 1
	sta %g1, [%g2] 32
	
! 0 "" 2
	.loc 1 86 0
#NO_APP
	restore
	jmp	%o7+8
	 nop
	.cfi_endproc
.LFE13:
	.size	__ajit_write_serial_1_baud_frequency_register_via_bypass__, .-__ajit_write_serial_1_baud_frequency_register_via_bypass__
	.align 4
	.global __ajit_serial_1_set_baudrate_via_bypass__
	.type	__ajit_serial_1_set_baudrate_via_bypass__, #function
	.proc	020
__ajit_serial_1_set_baudrate_via_bypass__:
.LFB14:
	.loc 1 90 0
	.cfi_startproc
	save	%sp, -96, %sp
.LCFI14:
	.cfi_window_save
	.cfi_register 15, 31
	.cfi_def_cfa_register 30
	st	%i0, [%fp+68]
	st	%i1, [%fp+72]
	.loc 1 91 0
	mov	1, %o0
	mov	1, %o1
	ld	[%fp+68], %o2
	ld	[%fp+72], %o3
	call	__ajit_serial_set_baudrate_inner__, 0
	 nop
	.loc 1 92 0
	restore
	jmp	%o7+8
	 nop
	.cfi_endproc
.LFE14:
	.size	__ajit_serial_1_set_baudrate_via_bypass__, .-__ajit_serial_1_set_baudrate_via_bypass__
	.align 4
	.global __ajit_serial_1_set_uart_reset_via_bypass__
	.type	__ajit_serial_1_set_uart_reset_via_bypass__, #function
	.proc	020
__ajit_serial_1_set_uart_reset_via_bypass__:
.LFB15:
	.loc 1 95 0
	.cfi_startproc
	save	%sp, -96, %sp
.LCFI15:
	.cfi_window_save
	.cfi_register 15, 31
	.cfi_def_cfa_register 30
	mov	%i0, %g1
	stb	%g1, [%fp+68]
	.loc 1 96 0
	ldub	[%fp+68], %g1
	and	%g1, 0xff, %g1
	mov	1, %o0
	mov	1, %o1
	mov	%g1, %o2
	call	__ajit_serial_set_uart_reset_inner__, 0
	 nop
	.loc 1 97 0
	restore
	jmp	%o7+8
	 nop
	.cfi_endproc
.LFE15:
	.size	__ajit_serial_1_set_uart_reset_via_bypass__, .-__ajit_serial_1_set_uart_reset_via_bypass__
	.align 4
	.global __ajit_write_serial_1_control_register_via_vmap__
	.type	__ajit_write_serial_1_control_register_via_vmap__, #function
	.proc	020
__ajit_write_serial_1_control_register_via_vmap__:
.LFB16:
	.loc 1 101 0
	.cfi_startproc
	save	%sp, -96, %sp
.LCFI16:
	.cfi_window_save
	.cfi_register 15, 31
	.cfi_def_cfa_register 30
	st	%i0, [%fp+68]
	.loc 1 102 0
	sethi	%hi(-53248), %g1
	or	%g1, 576, %g1
	ld	[%fp+68], %g2
	st	%g2, [%g1]
	.loc 1 103 0
	restore
	jmp	%o7+8
	 nop
	.cfi_endproc
.LFE16:
	.size	__ajit_write_serial_1_control_register_via_vmap__, .-__ajit_write_serial_1_control_register_via_vmap__
	.align 4
	.global __ajit_read_serial_1_control_register_via_vmap__
	.type	__ajit_read_serial_1_control_register_via_vmap__, #function
	.proc	016
__ajit_read_serial_1_control_register_via_vmap__:
.LFB17:
	.loc 1 106 0
	.cfi_startproc
	save	%sp, -104, %sp
.LCFI17:
	.cfi_window_save
	.cfi_register 15, 31
	.cfi_def_cfa_register 30
	.loc 1 107 0
	sethi	%hi(-53248), %g1
	or	%g1, 576, %g1
	ldub	[%g1], %g1
	and	%g1, 0xff, %g1
	st	%g1, [%fp-4]
	.loc 1 108 0
	ld	[%fp-4], %g1
	.loc 1 109 0
	mov	%g1, %i0
	restore
	jmp	%o7+8
	 nop
	.cfi_endproc
.LFE17:
	.size	__ajit_read_serial_1_control_register_via_vmap__, .-__ajit_read_serial_1_control_register_via_vmap__
	.align 4
	.global __ajit_write_serial_1_tx_register_via_vmap__
	.type	__ajit_write_serial_1_tx_register_via_vmap__, #function
	.proc	020
__ajit_write_serial_1_tx_register_via_vmap__:
.LFB18:
	.loc 1 112 0
	.cfi_startproc
	save	%sp, -96, %sp
.LCFI18:
	.cfi_window_save
	.cfi_register 15, 31
	.cfi_def_cfa_register 30
	mov	%i0, %g1
	stb	%g1, [%fp+68]
	.loc 1 113 0
	sethi	%hi(-53248), %g1
	or	%g1, 580, %g1
	ldub	[%fp+68], %g2
	stb	%g2, [%g1]
	.loc 1 114 0
	restore
	jmp	%o7+8
	 nop
	.cfi_endproc
.LFE18:
	.size	__ajit_write_serial_1_tx_register_via_vmap__, .-__ajit_write_serial_1_tx_register_via_vmap__
	.align 4
	.global __ajit_read_serial_1_tx_register_via_vmap__
	.type	__ajit_read_serial_1_tx_register_via_vmap__, #function
	.proc	014
__ajit_read_serial_1_tx_register_via_vmap__:
.LFB19:
	.loc 1 116 0
	.cfi_startproc
	save	%sp, -104, %sp
.LCFI19:
	.cfi_window_save
	.cfi_register 15, 31
	.cfi_def_cfa_register 30
	.loc 1 117 0
	sethi	%hi(-53248), %g1
	or	%g1, 580, %g1
	ldub	[%g1], %g1
	stb	%g1, [%fp-1]
	.loc 1 118 0
	ldub	[%fp-1], %g1
	and	%g1, 0xff, %g1
	.loc 1 119 0
	mov	%g1, %i0
	restore
	jmp	%o7+8
	 nop
	.cfi_endproc
.LFE19:
	.size	__ajit_read_serial_1_tx_register_via_vmap__, .-__ajit_read_serial_1_tx_register_via_vmap__
	.align 4
	.global __ajit_read_serial_1_rx_register_via_vmap__
	.type	__ajit_read_serial_1_rx_register_via_vmap__, #function
	.proc	014
__ajit_read_serial_1_rx_register_via_vmap__:
.LFB20:
	.loc 1 121 0
	.cfi_startproc
	save	%sp, -104, %sp
.LCFI20:
	.cfi_window_save
	.cfi_register 15, 31
	.cfi_def_cfa_register 30
	.loc 1 122 0
	sethi	%hi(-53248), %g1
	or	%g1, 584, %g1
	ldub	[%g1], %g1
	stb	%g1, [%fp-1]
	.loc 1 123 0
	ldub	[%fp-1], %g1
	and	%g1, 0xff, %g1
	.loc 1 124 0
	mov	%g1, %i0
	restore
	jmp	%o7+8
	 nop
	.cfi_endproc
.LFE20:
	.size	__ajit_read_serial_1_rx_register_via_vmap__, .-__ajit_read_serial_1_rx_register_via_vmap__
	.align 4
	.global __ajit_serial_1_putchar_via_vmap__
	.type	__ajit_serial_1_putchar_via_vmap__, #function
	.proc	04
__ajit_serial_1_putchar_via_vmap__:
.LFB21:
	.loc 1 128 0
	.cfi_startproc
	save	%sp, -96, %sp
.LCFI21:
	.cfi_window_save
	.cfi_register 15, 31
	.cfi_def_cfa_register 30
	mov	%i0, %g1
	stb	%g1, [%fp+68]
	.loc 1 129 0
	ldub	[%fp+68], %g1
	sll	%g1, 24, %g1
	sra	%g1, 24, %g1
	mov	1, %o0
	mov	1, %o1
	mov	%g1, %o2
	call	__ajit_serial_putchar_inner__, 0
	 nop
	mov	%o0, %g1
	.loc 1 130 0
	mov	%g1, %i0
	restore
	jmp	%o7+8
	 nop
	.cfi_endproc
.LFE21:
	.size	__ajit_serial_1_putchar_via_vmap__, .-__ajit_serial_1_putchar_via_vmap__
	.align 4
	.global __ajit_serial_1_getchar_via_vmap__
	.type	__ajit_serial_1_getchar_via_vmap__, #function
	.proc	04
__ajit_serial_1_getchar_via_vmap__:
.LFB22:
	.loc 1 133 0
	.cfi_startproc
	save	%sp, -104, %sp
.LCFI22:
	.cfi_window_save
	.cfi_register 15, 31
	.cfi_def_cfa_register 30
	.loc 1 137 0
	add	%fp, -1, %g1
	mov	1, %o0
	mov	1, %o1
	mov	%g1, %o2
	call	__ajit_serial_getchar_inner__, 0
	 nop
	.loc 1 139 0
	ldub	[%fp-1], %g1
	sll	%g1, 24, %g1
	sra	%g1, 24, %g1
	.loc 1 140 0
	mov	%g1, %i0
	restore
	jmp	%o7+8
	 nop
	.cfi_endproc
.LFE22:
	.size	__ajit_serial_1_getchar_via_vmap__, .-__ajit_serial_1_getchar_via_vmap__
	.align 4
	.global __ajit_serial_1_puts_via_vmap__
	.type	__ajit_serial_1_puts_via_vmap__, #function
	.proc	020
__ajit_serial_1_puts_via_vmap__:
.LFB23:
	.loc 1 143 0
	.cfi_startproc
	save	%sp, -96, %sp
.LCFI23:
	.cfi_window_save
	.cfi_register 15, 31
	.cfi_def_cfa_register 30
	st	%i0, [%fp+68]
	st	%i1, [%fp+72]
	.loc 1 144 0
	mov	1, %o0
	mov	1, %o1
	ld	[%fp+68], %o2
	ld	[%fp+72], %o3
	call	__ajit_serial_puts_inner__, 0
	 nop
	nop
	.loc 1 145 0
	restore
	jmp	%o7+8
	 nop
	.cfi_endproc
.LFE23:
	.size	__ajit_serial_1_puts_via_vmap__, .-__ajit_serial_1_puts_via_vmap__
	.align 4
	.global __ajit_serial_1_gets_via_vmap__
	.type	__ajit_serial_1_gets_via_vmap__, #function
	.proc	020
__ajit_serial_1_gets_via_vmap__:
.LFB24:
	.loc 1 147 0
	.cfi_startproc
	save	%sp, -96, %sp
.LCFI24:
	.cfi_window_save
	.cfi_register 15, 31
	.cfi_def_cfa_register 30
	st	%i0, [%fp+68]
	st	%i1, [%fp+72]
	.loc 1 148 0
	mov	1, %o0
	mov	1, %o1
	ld	[%fp+68], %o2
	ld	[%fp+72], %o3
	call	__ajit_serial_gets_inner__, 0
	 nop
	.loc 1 149 0
	restore
	jmp	%o7+8
	 nop
	.cfi_endproc
.LFE24:
	.size	__ajit_serial_1_gets_via_vmap__, .-__ajit_serial_1_gets_via_vmap__
	.align 4
	.global __ajit_serial_1_configure_via_vmap__
	.type	__ajit_serial_1_configure_via_vmap__, #function
	.proc	020
__ajit_serial_1_configure_via_vmap__:
.LFB25:
	.loc 1 152 0
	.cfi_startproc
	save	%sp, -96, %sp
.LCFI25:
	.cfi_window_save
	.cfi_register 15, 31
	.cfi_def_cfa_register 30
	mov	%i0, %g3
	mov	%i1, %g2
	mov	%i2, %g1
	stb	%g3, [%fp+68]
	stb	%g2, [%fp+72]
	stb	%g1, [%fp+76]
	.loc 1 153 0
	ldub	[%fp+68], %g1
	and	%g1, 0xff, %g3
	ldub	[%fp+72], %g1
	and	%g1, 0xff, %g2
	ldub	[%fp+76], %g1
	and	%g1, 0xff, %g1
	mov	1, %o0
	mov	1, %o1
	mov	%g3, %o2
	mov	%g2, %o3
	mov	%g1, %o4
	call	__ajit_serial_configure_inner__, 0
	 nop
	.loc 1 154 0
	restore
	jmp	%o7+8
	 nop
	.cfi_endproc
.LFE25:
	.size	__ajit_serial_1_configure_via_vmap__, .-__ajit_serial_1_configure_via_vmap__
	.align 4
	.global __ajit_read_serial_1_baud_limit_register_via_vmap__
	.type	__ajit_read_serial_1_baud_limit_register_via_vmap__, #function
	.proc	016
__ajit_read_serial_1_baud_limit_register_via_vmap__:
.LFB26:
	.loc 1 156 0
	.cfi_startproc
	save	%sp, -104, %sp
.LCFI26:
	.cfi_window_save
	.cfi_register 15, 31
	.cfi_def_cfa_register 30
	.loc 1 157 0
	sethi	%hi(-53248), %g1
	or	%g1, 588, %g1
	ld	[%g1], %g1
	st	%g1, [%fp-4]
	.loc 1 158 0
	ld	[%fp-4], %g1
	.loc 1 159 0
	mov	%g1, %i0
	restore
	jmp	%o7+8
	 nop
	.cfi_endproc
.LFE26:
	.size	__ajit_read_serial_1_baud_limit_register_via_vmap__, .-__ajit_read_serial_1_baud_limit_register_via_vmap__
	.align 4
	.global __ajit_write_serial_1_baud_limit_register_via_vmap__
	.type	__ajit_write_serial_1_baud_limit_register_via_vmap__, #function
	.proc	020
__ajit_write_serial_1_baud_limit_register_via_vmap__:
.LFB27:
	.loc 1 162 0
	.cfi_startproc
	save	%sp, -96, %sp
.LCFI27:
	.cfi_window_save
	.cfi_register 15, 31
	.cfi_def_cfa_register 30
	st	%i0, [%fp+68]
	.loc 1 163 0
	sethi	%hi(-53248), %g1
	or	%g1, 588, %g1
	ld	[%fp+68], %g2
	st	%g2, [%g1]
	.loc 1 164 0
	restore
	jmp	%o7+8
	 nop
	.cfi_endproc
.LFE27:
	.size	__ajit_write_serial_1_baud_limit_register_via_vmap__, .-__ajit_write_serial_1_baud_limit_register_via_vmap__
	.align 4
	.global __ajit_read_serial_1_baud_frequency_register_via_vmap__
	.type	__ajit_read_serial_1_baud_frequency_register_via_vmap__, #function
	.proc	016
__ajit_read_serial_1_baud_frequency_register_via_vmap__:
.LFB28:
	.loc 1 167 0
	.cfi_startproc
	save	%sp, -104, %sp
.LCFI28:
	.cfi_window_save
	.cfi_register 15, 31
	.cfi_def_cfa_register 30
	.loc 1 168 0
	sethi	%hi(-53248), %g1
	or	%g1, 592, %g1
	ld	[%g1], %g1
	st	%g1, [%fp-4]
	.loc 1 169 0
	ld	[%fp-4], %g1
	.loc 1 170 0
	mov	%g1, %i0
	restore
	jmp	%o7+8
	 nop
	.cfi_endproc
.LFE28:
	.size	__ajit_read_serial_1_baud_frequency_register_via_vmap__, .-__ajit_read_serial_1_baud_frequency_register_via_vmap__
	.align 4
	.global __ajit_write_serial_1_baud_frequency_register_via_vmap__
	.type	__ajit_write_serial_1_baud_frequency_register_via_vmap__, #function
	.proc	020
__ajit_write_serial_1_baud_frequency_register_via_vmap__:
.LFB29:
	.loc 1 173 0
	.cfi_startproc
	save	%sp, -96, %sp
.LCFI29:
	.cfi_window_save
	.cfi_register 15, 31
	.cfi_def_cfa_register 30
	st	%i0, [%fp+68]
	.loc 1 174 0
	sethi	%hi(-53248), %g1
	or	%g1, 592, %g1
	ld	[%fp+68], %g2
	st	%g2, [%g1]
	.loc 1 175 0
	restore
	jmp	%o7+8
	 nop
	.cfi_endproc
.LFE29:
	.size	__ajit_write_serial_1_baud_frequency_register_via_vmap__, .-__ajit_write_serial_1_baud_frequency_register_via_vmap__
	.align 4
	.global __ajit_serial_1_set_baudrate_via_vmap__
	.type	__ajit_serial_1_set_baudrate_via_vmap__, #function
	.proc	020
__ajit_serial_1_set_baudrate_via_vmap__:
.LFB30:
	.loc 1 179 0
	.cfi_startproc
	save	%sp, -96, %sp
.LCFI30:
	.cfi_window_save
	.cfi_register 15, 31
	.cfi_def_cfa_register 30
	st	%i0, [%fp+68]
	st	%i1, [%fp+72]
	.loc 1 180 0
	mov	1, %o0
	mov	1, %o1
	ld	[%fp+68], %o2
	ld	[%fp+72], %o3
	call	__ajit_serial_set_baudrate_inner__, 0
	 nop
	.loc 1 181 0
	restore
	jmp	%o7+8
	 nop
	.cfi_endproc
.LFE30:
	.size	__ajit_serial_1_set_baudrate_via_vmap__, .-__ajit_serial_1_set_baudrate_via_vmap__
	.align 4
	.global __ajit_serial_1_set_uart_reset_via_vmap__
	.type	__ajit_serial_1_set_uart_reset_via_vmap__, #function
	.proc	020
__ajit_serial_1_set_uart_reset_via_vmap__:
.LFB31:
	.loc 1 184 0
	.cfi_startproc
	save	%sp, -96, %sp
.LCFI31:
	.cfi_window_save
	.cfi_register 15, 31
	.cfi_def_cfa_register 30
	mov	%i0, %g1
	stb	%g1, [%fp+68]
	.loc 1 185 0
	ldub	[%fp+68], %g1
	and	%g1, 0xff, %g1
	mov	1, %o0
	mov	1, %o1
	mov	%g1, %o2
	call	__ajit_serial_set_uart_reset_inner__, 0
	 nop
	.loc 1 186 0
	restore
	jmp	%o7+8
	 nop
	.cfi_endproc
.LFE31:
	.size	__ajit_serial_1_set_uart_reset_via_vmap__, .-__ajit_serial_1_set_uart_reset_via_vmap__
.Letext0:
	.file 2 "/home/ajit4/ajit-toolchain/build/buildroot-2014.08/output/host/usr/lib/gcc/sparc-buildroot-linux-uclibc/4.7.4/include/stdint-gcc.h"
	.section	.note.GNU-stack,"",@progbits
