	.file	"ajit_spi_flash.c"
	.section	".text"
.Ltext0:
	.cfi_sections	.debug_frame
	.align 4
	.global ajit_spi_transfer_is_in_progress
	.type	ajit_spi_transfer_is_in_progress, #function
	.proc	016
ajit_spi_transfer_is_in_progress:
.LFB3:
	.file 1 "/home/ajit4/ajit-toolchain/AjitPublicResources/tools/ajit_access_routines_mt/src/ajit_spi_flash.c"
	.loc 1 12 0
	.cfi_startproc
	save	%sp, -104, %sp
.LCFI0:
	.cfi_window_save
	.cfi_register 15, 31
	.cfi_def_cfa_register 30
	.loc 1 17 0
	sethi	%hi(-53248), %g1
	or	%g1, 776, %g1
#APP
! 17 "/home/ajit4/ajit-toolchain/AjitPublicResources/tools/ajit_access_routines_mt/src/ajit_spi_flash.c" 1
	lda [%g1] 32, %i5
	
! 0 "" 2
#NO_APP
	st	%i5, [%fp-4]
	.loc 1 19 0
	ld	[%fp-4], %g1
	and	%g1, 1, %g1
	.loc 1 20 0
	mov	%g1, %i0
	restore
	jmp	%o7+8
	 nop
	.cfi_endproc
.LFE3:
	.size	ajit_spi_transfer_is_in_progress, .-ajit_spi_transfer_is_in_progress
	.align 4
	.global ajit_spi_flash_send_byte
	.type	ajit_spi_flash_send_byte, #function
	.proc	020
ajit_spi_flash_send_byte:
.LFB4:
	.loc 1 27 0
	.cfi_startproc
	save	%sp, -104, %sp
.LCFI1:
	.cfi_window_save
	.cfi_register 15, 31
	.cfi_def_cfa_register 30
	mov	%i0, %g3
	mov	%i1, %g2
	mov	%i2, %g1
	stb	%g3, [%fp+68]
	stb	%g2, [%fp+72]
	stb	%g1, [%fp+76]
	.loc 1 32 0
	ldub	[%fp+72], %g1
	and	%g1, 0xff, %g1
	sethi	%hi(-53248), %g2
	or	%g2, 768, %g2
#APP
! 32 "/home/ajit4/ajit-toolchain/AjitPublicResources/tools/ajit_access_routines_mt/src/ajit_spi_flash.c" 1
	sta %g1, [%g2] 32
	
! 0 "" 2
	.loc 1 36 0
#NO_APP
	ldub	[%fp+76], %g1
	and	%g1, 0xff, %g1
	and	%g1, 1, %g1
	add	%g1, %g1, %g1
	or	%g1, 1, %g2
	ldub	[%fp+68], %g1
	and	%g1, 0xff, %g1
	and	%g1, 7, %g1
	sll	%g1, 3, %g1
	or	%g2, %g1, %g1
	st	%g1, [%fp-4]
	.loc 1 40 0
	ld	[%fp-4], %g1
	sethi	%hi(-53248), %g2
	or	%g2, 776, %g2
#APP
! 40 "/home/ajit4/ajit-toolchain/AjitPublicResources/tools/ajit_access_routines_mt/src/ajit_spi_flash.c" 1
	sta %g1, [%g2] 32
	
! 0 "" 2
	.loc 1 44 0
#NO_APP
	b	.L4
	 nop
.L5:
	.loc 1 47 0
	mov	64, %o0
	call	__ajit_sleep__, 0
	 nop
.L4:
	.loc 1 44 0 discriminator 1
	call	ajit_spi_transfer_is_in_progress, 0
	 nop
	mov	%o0, %g1
	cmp	%g1, 0
	bne	.L5
	 nop
	.loc 1 49 0
	restore
	jmp	%o7+8
	 nop
	.cfi_endproc
.LFE4:
	.size	ajit_spi_flash_send_byte, .-ajit_spi_flash_send_byte
	.align 4
	.global ajit_spi_flash_receive_byte
	.type	ajit_spi_flash_receive_byte, #function
	.proc	014
ajit_spi_flash_receive_byte:
.LFB5:
	.loc 1 52 0
	.cfi_startproc
	save	%sp, -112, %sp
.LCFI2:
	.cfi_window_save
	.cfi_register 15, 31
	.cfi_def_cfa_register 30
	mov	%i0, %g2
	mov	%i1, %g1
	stb	%g2, [%fp+68]
	stb	%g1, [%fp+72]
	.loc 1 56 0
	mov	0, %g1
	sethi	%hi(-53248), %g2
	or	%g2, 768, %g2
#APP
! 56 "/home/ajit4/ajit-toolchain/AjitPublicResources/tools/ajit_access_routines_mt/src/ajit_spi_flash.c" 1
	sta %g1, [%g2] 32
	
! 0 "" 2
	.loc 1 59 0
#NO_APP
	ldub	[%fp+72], %g1
	and	%g1, 0xff, %g1
	and	%g1, 1, %g1
	add	%g1, %g1, %g1
	or	%g1, 1, %g2
	ldub	[%fp+68], %g1
	and	%g1, 0xff, %g1
	and	%g1, 7, %g1
	sll	%g1, 3, %g1
	or	%g2, %g1, %g1
	st	%g1, [%fp-4]
	.loc 1 64 0
	ld	[%fp-4], %g1
	sethi	%hi(-53248), %g2
	or	%g2, 776, %g2
#APP
! 64 "/home/ajit4/ajit-toolchain/AjitPublicResources/tools/ajit_access_routines_mt/src/ajit_spi_flash.c" 1
	sta %g1, [%g2] 32
	
! 0 "" 2
#NO_APP
.L9:
.LBB2:
	.loc 1 73 0
	ld	[%fp-8], %g1
	sethi	%hi(-53248), %g2
	or	%g2, 776, %g2
#APP
! 73 "/home/ajit4/ajit-toolchain/AjitPublicResources/tools/ajit_access_routines_mt/src/ajit_spi_flash.c" 1
	sta %g1, [%g2] 32
	
! 0 "" 2
	.loc 1 75 0
#NO_APP
	ld	[%fp-8], %g1
	and	%g1, 1, %g1
	cmp	%g1, 0
	be	.L12
	 nop
.L7:
	.loc 1 79 0
	mov	64, %o0
	call	__ajit_sleep__, 0
	 nop
.LBE2:
	.loc 1 80 0
	b	.L9
	 nop
.L12:
.LBB3:
	.loc 1 76 0
	nop
.L11:
.LBE3:
	.loc 1 86 0
	sethi	%hi(-53248), %g1
	or	%g1, 768, %g1
#APP
! 86 "/home/ajit4/ajit-toolchain/AjitPublicResources/tools/ajit_access_routines_mt/src/ajit_spi_flash.c" 1
	lda [%g1] 32, %i5
	
! 0 "" 2
#NO_APP
	stb	%i5, [%fp-9]
	.loc 1 88 0
	ldub	[%fp-9], %g1
	and	%g1, 0xff, %g1
	.loc 1 89 0
	mov	%g1, %i0
	restore
	jmp	%o7+8
	 nop
	.cfi_endproc
.LFE5:
	.size	ajit_spi_flash_receive_byte, .-ajit_spi_flash_receive_byte
	.align 4
	.global ajit_spi_flash_reset
	.type	ajit_spi_flash_reset, #function
	.proc	020
ajit_spi_flash_reset:
.LFB6:
	.loc 1 92 0
	.cfi_startproc
	save	%sp, -96, %sp
.LCFI3:
	.cfi_window_save
	.cfi_register 15, 31
	.cfi_def_cfa_register 30
	mov	%i0, %g1
	stb	%g1, [%fp+68]
	.loc 1 93 0
	ldub	[%fp+68], %g1
	and	%g1, 0xff, %g1
	mov	%g1, %o0
	mov	102, %o1
	mov	1, %o2
	call	ajit_spi_flash_send_byte, 0
	 nop
	.loc 1 94 0
	restore
	jmp	%o7+8
	 nop
	.cfi_endproc
.LFE6:
	.size	ajit_spi_flash_reset, .-ajit_spi_flash_reset
	.align 4
	.global ajit_spi_flash_memory_reset
	.type	ajit_spi_flash_memory_reset, #function
	.proc	020
ajit_spi_flash_memory_reset:
.LFB7:
	.loc 1 97 0
	.cfi_startproc
	save	%sp, -96, %sp
.LCFI4:
	.cfi_window_save
	.cfi_register 15, 31
	.cfi_def_cfa_register 30
	mov	%i0, %g1
	stb	%g1, [%fp+68]
	.loc 1 98 0
	ldub	[%fp+68], %g1
	and	%g1, 0xff, %g1
	mov	%g1, %o0
	mov	153, %o1
	mov	1, %o2
	call	ajit_spi_flash_send_byte, 0
	 nop
	.loc 1 99 0
	restore
	jmp	%o7+8
	 nop
	.cfi_endproc
.LFE7:
	.size	ajit_spi_flash_memory_reset, .-ajit_spi_flash_memory_reset
	.align 4
	.global ajit_spi_set_clock_frequency
	.type	ajit_spi_set_clock_frequency, #function
	.proc	020
ajit_spi_set_clock_frequency:
.LFB8:
	.loc 1 102 0
	.cfi_startproc
	save	%sp, -104, %sp
.LCFI5:
	.cfi_window_save
	.cfi_register 15, 31
	.cfi_def_cfa_register 30
	mov	%i0, %g1
	stb	%g1, [%fp+68]
	.loc 1 103 0
	ldub	[%fp+68], %g1
	and	%g1, 0xff, %g1
	and	%g1, 15, %g1
	or	%g1, 16, %g1
	st	%g1, [%fp-4]
	.loc 1 107 0
	ld	[%fp-4], %g1
	sethi	%hi(-53248), %g2
	or	%g2, 780, %g2
#APP
! 107 "/home/ajit4/ajit-toolchain/AjitPublicResources/tools/ajit_access_routines_mt/src/ajit_spi_flash.c" 1
	sta %g1, [%g2] 32
	
! 0 "" 2
	.loc 1 109 0
#NO_APP
	restore
	jmp	%o7+8
	 nop
	.cfi_endproc
.LFE8:
	.size	ajit_spi_set_clock_frequency, .-ajit_spi_set_clock_frequency
	.align 4
	.global ajit_spi_flash_is_busy
	.type	ajit_spi_flash_is_busy, #function
	.proc	016
ajit_spi_flash_is_busy:
.LFB9:
	.loc 1 112 0
	.cfi_startproc
	save	%sp, -104, %sp
.LCFI6:
	.cfi_window_save
	.cfi_register 15, 31
	.cfi_def_cfa_register 30
	mov	%i0, %g1
	stb	%g1, [%fp+68]
	.loc 1 113 0
	ldub	[%fp+68], %g1
	and	%g1, 0xff, %g1
	mov	%g1, %o0
	mov	5, %o1
	mov	0, %o2
	call	ajit_spi_flash_send_byte, 0
	 nop
	.loc 1 114 0
	ldub	[%fp+68], %g1
	and	%g1, 0xff, %g1
	mov	%g1, %o0
	mov	1, %o1
	call	ajit_spi_flash_receive_byte, 0
	 nop
	mov	%o0, %g1
	and	%g1, 0xff, %g1
	st	%g1, [%fp-4]
	.loc 1 117 0
	ld	[%fp-4], %g1
	and	%g1, 1, %g1
	st	%g1, [%fp-4]
	.loc 1 119 0
	ld	[%fp-4], %g1
	.loc 1 120 0
	mov	%g1, %i0
	restore
	jmp	%o7+8
	 nop
	.cfi_endproc
.LFE9:
	.size	ajit_spi_flash_is_busy, .-ajit_spi_flash_is_busy
	.align 4
	.global ajit_spi_flash_generic_erase
	.type	ajit_spi_flash_generic_erase, #function
	.proc	020
ajit_spi_flash_generic_erase:
.LFB10:
	.loc 1 124 0
	.cfi_startproc
	save	%sp, -96, %sp
.LCFI7:
	.cfi_window_save
	.cfi_register 15, 31
	.cfi_def_cfa_register 30
	mov	%i0, %g2
	mov	%i1, %g1
	st	%i2, [%fp+76]
	stb	%g2, [%fp+68]
	stb	%g1, [%fp+72]
	.loc 1 126 0
	ldub	[%fp+68], %g1
	and	%g1, 0xff, %g1
	mov	%g1, %o0
	mov	6, %o1
	mov	1, %o2
	call	ajit_spi_flash_send_byte, 0
	 nop
	.loc 1 129 0
	ldub	[%fp+68], %g1
	and	%g1, 0xff, %g2
	ldub	[%fp+72], %g1
	and	%g1, 0xff, %g1
	mov	%g2, %o0
	mov	%g1, %o1
	mov	0, %o2
	call	ajit_spi_flash_send_byte, 0
	 nop
	.loc 1 132 0
	ld	[%fp+76], %g1
	srl	%g1, 16, %g1
	ldub	[%fp+68], %g2
	and	%g2, 0xff, %g2
	and	%g1, 0xff, %g1
	mov	%g2, %o0
	mov	%g1, %o1
	mov	0, %o2
	call	ajit_spi_flash_send_byte, 0
	 nop
	.loc 1 133 0
	ld	[%fp+76], %g1
	srl	%g1, 8, %g1
	ldub	[%fp+68], %g2
	and	%g2, 0xff, %g2
	and	%g1, 0xff, %g1
	mov	%g2, %o0
	mov	%g1, %o1
	mov	0, %o2
	call	ajit_spi_flash_send_byte, 0
	 nop
	.loc 1 134 0
	ld	[%fp+76], %g1
	ldub	[%fp+68], %g2
	and	%g2, 0xff, %g2
	and	%g1, 0xff, %g1
	mov	%g2, %o0
	mov	%g1, %o1
	mov	1, %o2
	call	ajit_spi_flash_send_byte, 0
	 nop
	.loc 1 136 0
	ldub	[%fp+68], %g1
	and	%g1, 0xff, %g1
	mov	%g1, %o0
	mov	4, %o1
	mov	1, %o2
	call	ajit_spi_flash_send_byte, 0
	 nop
	.loc 1 137 0
	restore
	jmp	%o7+8
	 nop
	.cfi_endproc
.LFE10:
	.size	ajit_spi_flash_generic_erase, .-ajit_spi_flash_generic_erase
	.align 4
	.global ajit_spi_flash_subsector_erase
	.type	ajit_spi_flash_subsector_erase, #function
	.proc	020
ajit_spi_flash_subsector_erase:
.LFB11:
	.loc 1 140 0
	.cfi_startproc
	save	%sp, -96, %sp
.LCFI8:
	.cfi_window_save
	.cfi_register 15, 31
	.cfi_def_cfa_register 30
	mov	%i0, %g1
	st	%i1, [%fp+72]
	stb	%g1, [%fp+68]
	.loc 1 141 0
	ldub	[%fp+68], %g1
	and	%g1, 0xff, %g1
	mov	%g1, %o0
	mov	32, %o1
	ld	[%fp+72], %o2
	call	ajit_spi_flash_generic_erase, 0
	 nop
	.loc 1 142 0
	restore
	jmp	%o7+8
	 nop
	.cfi_endproc
.LFE11:
	.size	ajit_spi_flash_subsector_erase, .-ajit_spi_flash_subsector_erase
	.align 4
	.global ajit_spi_flash_sector_erase
	.type	ajit_spi_flash_sector_erase, #function
	.proc	020
ajit_spi_flash_sector_erase:
.LFB12:
	.loc 1 144 0
	.cfi_startproc
	save	%sp, -96, %sp
.LCFI9:
	.cfi_window_save
	.cfi_register 15, 31
	.cfi_def_cfa_register 30
	mov	%i0, %g1
	st	%i1, [%fp+72]
	stb	%g1, [%fp+68]
	.loc 1 145 0
	ldub	[%fp+68], %g1
	and	%g1, 0xff, %g1
	mov	%g1, %o0
	mov	216, %o1
	ld	[%fp+72], %o2
	call	ajit_spi_flash_generic_erase, 0
	 nop
	.loc 1 146 0
	restore
	jmp	%o7+8
	 nop
	.cfi_endproc
.LFE12:
	.size	ajit_spi_flash_sector_erase, .-ajit_spi_flash_sector_erase
	.align 4
	.global ajit_spi_flash_bulk_erase
	.type	ajit_spi_flash_bulk_erase, #function
	.proc	020
ajit_spi_flash_bulk_erase:
.LFB13:
	.loc 1 149 0
	.cfi_startproc
	save	%sp, -96, %sp
.LCFI10:
	.cfi_window_save
	.cfi_register 15, 31
	.cfi_def_cfa_register 30
	mov	%i0, %g1
	st	%i1, [%fp+72]
	stb	%g1, [%fp+68]
	.loc 1 150 0
	ldub	[%fp+68], %g1
	and	%g1, 0xff, %g1
	mov	%g1, %o0
	mov	199, %o1
	ld	[%fp+72], %o2
	call	ajit_spi_flash_generic_erase, 0
	 nop
	.loc 1 151 0
	restore
	jmp	%o7+8
	 nop
	.cfi_endproc
.LFE13:
	.size	ajit_spi_flash_bulk_erase, .-ajit_spi_flash_bulk_erase
	.align 4
	.global ajit_spi_flash_read
	.type	ajit_spi_flash_read, #function
	.proc	020
ajit_spi_flash_read:
.LFB14:
	.loc 1 154 0
	.cfi_startproc
	save	%sp, -104, %sp
.LCFI11:
	.cfi_window_save
	.cfi_register 15, 31
	.cfi_def_cfa_register 30
	mov	%i0, %g1
	st	%i1, [%fp+72]
	st	%i2, [%fp+76]
	st	%i3, [%fp+80]
	stb	%g1, [%fp+68]
	.loc 1 156 0
	ldub	[%fp+68], %g1
	and	%g1, 0xff, %g1
	mov	%g1, %o0
	mov	3, %o1
	mov	0, %o2
	call	ajit_spi_flash_send_byte, 0
	 nop
	.loc 1 159 0
	ld	[%fp+72], %g1
	srl	%g1, 16, %g1
	ldub	[%fp+68], %g2
	and	%g2, 0xff, %g2
	and	%g1, 0xff, %g1
	mov	%g2, %o0
	mov	%g1, %o1
	mov	0, %o2
	call	ajit_spi_flash_send_byte, 0
	 nop
	.loc 1 160 0
	ld	[%fp+72], %g1
	srl	%g1, 8, %g1
	ldub	[%fp+68], %g2
	and	%g2, 0xff, %g2
	and	%g1, 0xff, %g1
	mov	%g2, %o0
	mov	%g1, %o1
	mov	0, %o2
	call	ajit_spi_flash_send_byte, 0
	 nop
	.loc 1 161 0
	ld	[%fp+72], %g1
	ldub	[%fp+68], %g2
	and	%g2, 0xff, %g2
	and	%g1, 0xff, %g1
	mov	%g2, %o0
	mov	%g1, %o1
	mov	0, %o2
	call	ajit_spi_flash_send_byte, 0
	 nop
	.loc 1 164 0
	st	%g0, [%fp-4]
	b	.L23
	 nop
.L24:
.LBB4:
	.loc 1 166 0 discriminator 2
	ld	[%fp-4], %g2
	ld	[%fp+80], %g1
	add	%g1, -1, %g1
	xor	%g2, %g1, %g1
	subcc	%g0, %g1, %g0
	subx	%g0, -1, %g1
	stb	%g1, [%fp-5]
	.loc 1 167 0 discriminator 2
	ld	[%fp-4], %g1
	ld	[%fp+76], %g2
	add	%g2, %g1, %i5
	ldub	[%fp+68], %g1
	and	%g1, 0xff, %g2
	ldub	[%fp-5], %g1
	and	%g1, 0xff, %g1
	mov	%g2, %o0
	mov	%g1, %o1
	call	ajit_spi_flash_receive_byte, 0
	 nop
	mov	%o0, %g1
	stb	%g1, [%i5]
.LBE4:
	.loc 1 164 0 discriminator 2
	ld	[%fp-4], %g1
	add	%g1, 1, %g1
	st	%g1, [%fp-4]
.L23:
	.loc 1 164 0 is_stmt 0 discriminator 1
	ld	[%fp-4], %g2
	ld	[%fp+80], %g1
	cmp	%g2, %g1
	blu	.L24
	 nop
	.loc 1 169 0 is_stmt 1
	restore
	jmp	%o7+8
	 nop
	.cfi_endproc
.LFE14:
	.size	ajit_spi_flash_read, .-ajit_spi_flash_read
	.align 4
	.global ajit_spi_flash_write
	.type	ajit_spi_flash_write, #function
	.proc	020
ajit_spi_flash_write:
.LFB15:
	.loc 1 172 0
	.cfi_startproc
	save	%sp, -104, %sp
.LCFI12:
	.cfi_window_save
	.cfi_register 15, 31
	.cfi_def_cfa_register 30
	mov	%i0, %g1
	st	%i1, [%fp+72]
	st	%i2, [%fp+76]
	st	%i3, [%fp+80]
	stb	%g1, [%fp+68]
	.loc 1 174 0
	ldub	[%fp+68], %g1
	and	%g1, 0xff, %g1
	mov	%g1, %o0
	mov	6, %o1
	mov	1, %o2
	call	ajit_spi_flash_send_byte, 0
	 nop
	.loc 1 177 0
	ldub	[%fp+68], %g1
	and	%g1, 0xff, %g1
	mov	%g1, %o0
	mov	2, %o1
	mov	0, %o2
	call	ajit_spi_flash_send_byte, 0
	 nop
	.loc 1 180 0
	ld	[%fp+72], %g1
	srl	%g1, 16, %g1
	ldub	[%fp+68], %g2
	and	%g2, 0xff, %g2
	and	%g1, 0xff, %g1
	mov	%g2, %o0
	mov	%g1, %o1
	mov	0, %o2
	call	ajit_spi_flash_send_byte, 0
	 nop
	.loc 1 181 0
	ld	[%fp+72], %g1
	srl	%g1, 8, %g1
	ldub	[%fp+68], %g2
	and	%g2, 0xff, %g2
	and	%g1, 0xff, %g1
	mov	%g2, %o0
	mov	%g1, %o1
	mov	0, %o2
	call	ajit_spi_flash_send_byte, 0
	 nop
	.loc 1 182 0
	ld	[%fp+72], %g1
	ldub	[%fp+68], %g2
	and	%g2, 0xff, %g2
	and	%g1, 0xff, %g1
	mov	%g2, %o0
	mov	%g1, %o1
	mov	0, %o2
	call	ajit_spi_flash_send_byte, 0
	 nop
	.loc 1 185 0
	st	%g0, [%fp-4]
	b	.L26
	 nop
.L27:
.LBB5:
	.loc 1 187 0 discriminator 2
	ld	[%fp-4], %g2
	ld	[%fp+80], %g1
	add	%g1, -1, %g1
	xor	%g2, %g1, %g1
	subcc	%g0, %g1, %g0
	subx	%g0, -1, %g1
	stb	%g1, [%fp-5]
	.loc 1 188 0 discriminator 2
	ld	[%fp-4], %g1
	ld	[%fp+76], %g2
	add	%g2, %g1, %g1
	ldub	[%g1], %g1
	ldub	[%fp+68], %g2
	and	%g2, 0xff, %g3
	and	%g1, 0xff, %g2
	ldub	[%fp-5], %g1
	and	%g1, 0xff, %g1
	mov	%g3, %o0
	mov	%g2, %o1
	mov	%g1, %o2
	call	ajit_spi_flash_send_byte, 0
	 nop
.LBE5:
	.loc 1 185 0 discriminator 2
	ld	[%fp-4], %g1
	add	%g1, 1, %g1
	st	%g1, [%fp-4]
.L26:
	.loc 1 185 0 is_stmt 0 discriminator 1
	ld	[%fp-4], %g2
	ld	[%fp+80], %g1
	cmp	%g2, %g1
	blu	.L27
	 nop
	.loc 1 191 0 is_stmt 1
	ldub	[%fp+68], %g1
	and	%g1, 0xff, %g1
	mov	%g1, %o0
	mov	4, %o1
	mov	1, %o2
	call	ajit_spi_flash_send_byte, 0
	 nop
	.loc 1 192 0
	restore
	jmp	%o7+8
	 nop
	.cfi_endproc
.LFE15:
	.size	ajit_spi_flash_write, .-ajit_spi_flash_write
.Letext0:
	.file 2 "/home/ajit4/ajit-toolchain/build/buildroot-2014.08/output/host/usr/lib/gcc/sparc-buildroot-linux-uclibc/4.7.4/include/stdint-gcc.h"
	.section	.note.GNU-stack,"",@progbits
