	.file	"ajit_mt_irc.c"
	.section	".text"
.Ltext0:
	.cfi_sections	.debug_frame
	.common	ajit_global_interrupt_handlers,64,4
	.align 4
	.global ajit_initialize_interrupt_handlers_to_null
	.type	ajit_initialize_interrupt_handlers_to_null, #function
	.proc	020
ajit_initialize_interrupt_handlers_to_null:
.LFB0:
	.file 1 "/home/ajit4/ajit-toolchain/AjitPublicResources/tools/ajit_access_routines_mt/src/ajit_mt_irc.c"
	.loc 1 10 0
	.cfi_startproc
	save	%sp, -104, %sp
.LCFI0:
	.cfi_window_save
	.cfi_register 15, 31
	.cfi_def_cfa_register 30
	.loc 1 12 0
	st	%g0, [%fp-4]
	b	.L2
	 nop
.L3:
	.loc 1 13 0 discriminator 2
	sethi	%hi(ajit_global_interrupt_handlers), %g1
	or	%g1, %lo(ajit_global_interrupt_handlers), %g2
	ld	[%fp-4], %g1
	sll	%g1, 2, %g1
	st	%g0, [%g2+%g1]
	.loc 1 12 0 discriminator 2
	ld	[%fp-4], %g1
	add	%g1, 1, %g1
	st	%g1, [%fp-4]
.L2:
	.loc 1 12 0 is_stmt 0 discriminator 1
	ld	[%fp-4], %g1
	cmp	%g1, 15
	ble	.L3
	 nop
	.loc 1 14 0 is_stmt 1
	restore
	jmp	%o7+8
	 nop
	.cfi_endproc
.LFE0:
	.size	ajit_initialize_interrupt_handlers_to_null, .-ajit_initialize_interrupt_handlers_to_null
	.align 4
	.global ajit_set_interrupt_handler
	.type	ajit_set_interrupt_handler, #function
	.proc	020
ajit_set_interrupt_handler:
.LFB1:
	.loc 1 17 0
	.cfi_startproc
	save	%sp, -96, %sp
.LCFI1:
	.cfi_window_save
	.cfi_register 15, 31
	.cfi_def_cfa_register 30
	st	%i0, [%fp+68]
	st	%i1, [%fp+72]
	.loc 1 18 0
	ld	[%fp+68], %g1
	cmp	%g1, 15
	bgu	.L4
	 nop
	.loc 1 19 0
	sethi	%hi(ajit_global_interrupt_handlers), %g1
	or	%g1, %lo(ajit_global_interrupt_handlers), %g2
	ld	[%fp+68], %g1
	sll	%g1, 2, %g1
	ld	[%fp+72], %g3
	st	%g3, [%g2+%g1]
.L4:
	.loc 1 21 0
	restore
	jmp	%o7+8
	 nop
	.cfi_endproc
.LFE1:
	.size	ajit_set_interrupt_handler, .-ajit_set_interrupt_handler
	.align 4
	.global ajit_generic_interrupt_handler
	.type	ajit_generic_interrupt_handler, #function
	.proc	020
ajit_generic_interrupt_handler:
.LFB2:
	.loc 1 24 0
	.cfi_startproc
	save	%sp, -120, %sp
.LCFI2:
	.cfi_window_save
	.cfi_register 15, 31
	.cfi_def_cfa_register 30
	st	%i0, [%fp+68]
	.loc 1 26 0
	add	%fp, -17, %g2
	add	%fp, -18, %g1
	mov	%g2, %o0
	mov	%g1, %o1
	call	ajit_get_core_and_thread_id, 0
	 nop
	.loc 1 27 0
	ldub	[%fp-17], %g1
	and	%g1, 0xff, %g2
	ldub	[%fp-18], %g1
	and	%g1, 0xff, %g1
	mov	%g2, %o0
	mov	%g1, %o1
	call	disableInterruptController, 0
	 nop
	.loc 1 29 0
	st	%g0, [%fp-4]
	.loc 1 30 0
	ld	[%fp+68], %g1
	srl	%g1, 4, %g1
	and	%g1, 255, %g1
	st	%g1, [%fp-8]
	.loc 1 31 0
	ld	[%fp-8], %g1
	cmp	%g1, 16
	bleu	.L7
	 nop
	.loc 1 31 0 is_stmt 0 discriminator 1
	ld	[%fp-8], %g1
	cmp	%g1, 31
	bgu	.L7
	 nop
.LBB2:
	.loc 1 33 0 is_stmt 1
	ld	[%fp-8], %g1
	add	%g1, -16, %g1
	st	%g1, [%fp-12]
	.loc 1 34 0
	sethi	%hi(ajit_global_interrupt_handlers), %g1
	or	%g1, %lo(ajit_global_interrupt_handlers), %g2
	ld	[%fp-12], %g1
	sll	%g1, 2, %g1
	ld	[%g2+%g1], %g1
	st	%g1, [%fp-16]
	.loc 1 35 0
	ld	[%fp-16], %g1
	cmp	%g1, 0
	be	.L8
	 nop
	.loc 1 37 0
	ld	[%fp-16], %g1
	call	%g1, 0
	 nop
.LBE2:
	.loc 1 32 0
	b	.L10
	 nop
.L8:
.LBB3:
	.loc 1 41 0
	mov	1, %g1
	st	%g1, [%fp-4]
.LBE3:
	.loc 1 32 0
	b	.L10
	 nop
.L7:
	.loc 1 45 0
	mov	1, %g1
	st	%g1, [%fp-4]
.L10:
	.loc 1 47 0
	ldub	[%fp-17], %g1
	and	%g1, 0xff, %g2
	ldub	[%fp-18], %g1
	and	%g1, 0xff, %g1
	mov	%g2, %o0
	mov	%g1, %o1
	call	enableInterruptController, 0
	 nop
	.loc 1 49 0
	ld	[%fp-4], %g1
	cmp	%g1, 0
	be	.L6
	 nop
	.loc 1 51 0
#APP
! 51 "/home/ajit4/ajit-toolchain/AjitPublicResources/tools/ajit_access_routines_mt/src/ajit_mt_irc.c" 1
	ta 0;
! 0 "" 2
#NO_APP
.L6:
	.loc 1 53 0
	restore
	jmp	%o7+8
	 nop
	.cfi_endproc
.LFE2:
	.size	ajit_generic_interrupt_handler, .-ajit_generic_interrupt_handler
	.align 4
	.global readInterruptControlRegister
	.type	readInterruptControlRegister, #function
	.proc	016
readInterruptControlRegister:
.LFB3:
	.loc 1 56 0
	.cfi_startproc
	save	%sp, -104, %sp
.LCFI3:
	.cfi_window_save
	.cfi_register 15, 31
	.cfi_def_cfa_register 30
	st	%i0, [%fp+68]
	st	%i1, [%fp+72]
	.loc 1 57 0
	ld	[%fp+68], %g1
	add	%g1, %g1, %g1
	mov	%g1, %g2
	ld	[%fp+72], %g1
	add	%g2, %g1, %g1
	sll	%g1, 2, %g1
	mov	%g1, %g2
	sethi	%hi(-53248), %g1
	add	%g2, %g1, %g1
	st	%g1, [%fp-4]
	.loc 1 61 0
	ld	[%fp-4], %o0
	call	__ajit_load_word_mmu_bypass__, 0
	 nop
	st	%o0, [%fp-8]
	.loc 1 63 0
	ld	[%fp-8], %g1
	.loc 1 64 0
	mov	%g1, %i0
	restore
	jmp	%o7+8
	 nop
	.cfi_endproc
.LFE3:
	.size	readInterruptControlRegister, .-readInterruptControlRegister
	.align 4
	.global writeInterruptControlRegister
	.type	writeInterruptControlRegister, #function
	.proc	020
writeInterruptControlRegister:
.LFB4:
	.loc 1 67 0
	.cfi_startproc
	save	%sp, -104, %sp
.LCFI4:
	.cfi_window_save
	.cfi_register 15, 31
	.cfi_def_cfa_register 30
	st	%i0, [%fp+68]
	st	%i1, [%fp+72]
	st	%i2, [%fp+76]
	.loc 1 68 0
	ld	[%fp+68], %g1
	add	%g1, %g1, %g1
	mov	%g1, %g2
	ld	[%fp+72], %g1
	add	%g2, %g1, %g1
	sll	%g1, 2, %g1
	mov	%g1, %g2
	sethi	%hi(-53248), %g1
	add	%g2, %g1, %g1
	st	%g1, [%fp-4]
	.loc 1 72 0
	ld	[%fp+76], %o0
	ld	[%fp-4], %o1
	call	__ajit_store_word_mmu_bypass__, 0
	 nop
	.loc 1 74 0
	restore
	jmp	%o7+8
	 nop
	.cfi_endproc
.LFE4:
	.size	writeInterruptControlRegister, .-writeInterruptControlRegister
	.align 4
	.global enableInterruptController
	.type	enableInterruptController, #function
	.proc	020
enableInterruptController:
.LFB5:
	.loc 1 79 0
	.cfi_startproc
	save	%sp, -104, %sp
.LCFI5:
	.cfi_window_save
	.cfi_register 15, 31
	.cfi_def_cfa_register 30
	st	%i0, [%fp+68]
	st	%i1, [%fp+72]
	.loc 1 80 0
	ld	[%fp+68], %o0
	ld	[%fp+72], %o1
	call	readInterruptControlRegister, 0
	 nop
	st	%o0, [%fp-4]
	.loc 1 81 0
	ld	[%fp-4], %g1
	or	%g1, 1, %g1
	st	%g1, [%fp-4]
	.loc 1 82 0
	ld	[%fp+68], %o0
	ld	[%fp+72], %o1
	ld	[%fp-4], %o2
	call	writeInterruptControlRegister, 0
	 nop
	.loc 1 83 0
	restore
	jmp	%o7+8
	 nop
	.cfi_endproc
.LFE5:
	.size	enableInterruptController, .-enableInterruptController
	.align 4
	.global disableInterruptController
	.type	disableInterruptController, #function
	.proc	020
disableInterruptController:
.LFB6:
	.loc 1 87 0
	.cfi_startproc
	save	%sp, -104, %sp
.LCFI6:
	.cfi_window_save
	.cfi_register 15, 31
	.cfi_def_cfa_register 30
	st	%i0, [%fp+68]
	st	%i1, [%fp+72]
	.loc 1 88 0
	ld	[%fp+68], %o0
	ld	[%fp+72], %o1
	call	readInterruptControlRegister, 0
	 nop
	st	%o0, [%fp-4]
	.loc 1 89 0
	ld	[%fp-4], %g1
	and	%g1, -2, %g1
	st	%g1, [%fp-4]
	.loc 1 90 0
	ld	[%fp+68], %o0
	ld	[%fp+72], %o1
	ld	[%fp-4], %o2
	call	writeInterruptControlRegister, 0
	 nop
	.loc 1 91 0
	restore
	jmp	%o7+8
	 nop
	.cfi_endproc
.LFE6:
	.size	disableInterruptController, .-disableInterruptController
	.align 4
	.global enableInterrupt
	.type	enableInterrupt, #function
	.proc	020
enableInterrupt:
.LFB7:
	.loc 1 97 0
	.cfi_startproc
	save	%sp, -104, %sp
.LCFI7:
	.cfi_window_save
	.cfi_register 15, 31
	.cfi_def_cfa_register 30
	st	%i0, [%fp+68]
	st	%i1, [%fp+72]
	st	%i2, [%fp+76]
	.loc 1 98 0
	ld	[%fp+68], %o0
	ld	[%fp+72], %o1
	call	readInterruptControlRegister, 0
	 nop
	st	%o0, [%fp-4]
	.loc 1 99 0
	mov	1, %g2
	ld	[%fp+76], %g1
	sll	%g2, %g1, %g1
	ld	[%fp-4], %g2
	or	%g2, %g1, %g1
	st	%g1, [%fp-4]
	.loc 1 100 0
	ld	[%fp+68], %o0
	ld	[%fp+72], %o1
	ld	[%fp-4], %o2
	call	writeInterruptControlRegister, 0
	 nop
	.loc 1 101 0
	restore
	jmp	%o7+8
	 nop
	.cfi_endproc
.LFE7:
	.size	enableInterrupt, .-enableInterrupt
	.align 4
	.global enableAllInterrupts
	.type	enableAllInterrupts, #function
	.proc	020
enableAllInterrupts:
.LFB8:
	.loc 1 106 0
	.cfi_startproc
	save	%sp, -104, %sp
.LCFI8:
	.cfi_window_save
	.cfi_register 15, 31
	.cfi_def_cfa_register 30
	st	%i0, [%fp+68]
	st	%i1, [%fp+72]
	.loc 1 107 0
	ld	[%fp+68], %o0
	ld	[%fp+72], %o1
	call	readInterruptControlRegister, 0
	 nop
	st	%o0, [%fp-4]
	.loc 1 108 0
	ld	[%fp-4], %g2
	sethi	%hi(64512), %g1
	or	%g1, 1022, %g1
	or	%g2, %g1, %g1
	st	%g1, [%fp-4]
	.loc 1 109 0
	ld	[%fp+68], %o0
	ld	[%fp+72], %o1
	ld	[%fp-4], %o2
	call	writeInterruptControlRegister, 0
	 nop
	.loc 1 110 0
	restore
	jmp	%o7+8
	 nop
	.cfi_endproc
.LFE8:
	.size	enableAllInterrupts, .-enableAllInterrupts
	.align 4
	.global enableInterruptControllerAndAllInterrupts
	.type	enableInterruptControllerAndAllInterrupts, #function
	.proc	020
enableInterruptControllerAndAllInterrupts:
.LFB9:
	.loc 1 115 0
	.cfi_startproc
	save	%sp, -96, %sp
.LCFI9:
	.cfi_window_save
	.cfi_register 15, 31
	.cfi_def_cfa_register 30
	st	%i0, [%fp+68]
	st	%i1, [%fp+72]
	.loc 1 116 0
	ld	[%fp+68], %o0
	ld	[%fp+72], %o1
	sethi	%hi(64512), %g1
	or	%g1, 1023, %o2
	call	writeInterruptControlRegister, 0
	 nop
	.loc 1 117 0
	restore
	jmp	%o7+8
	 nop
	.cfi_endproc
.LFE9:
	.size	enableInterruptControllerAndAllInterrupts, .-enableInterruptControllerAndAllInterrupts
	.align 4
	.global setInterruptMask
	.type	setInterruptMask, #function
	.proc	020
setInterruptMask:
.LFB10:
	.loc 1 126 0
	.cfi_startproc
	save	%sp, -104, %sp
.LCFI10:
	.cfi_window_save
	.cfi_register 15, 31
	.cfi_def_cfa_register 30
	st	%i0, [%fp+68]
	st	%i1, [%fp+72]
	st	%i2, [%fp+76]
	.loc 1 127 0
	ld	[%fp+68], %o0
	ld	[%fp+72], %o1
	call	readInterruptControlRegister, 0
	 nop
	st	%o0, [%fp-4]
	.loc 1 130 0
	sethi	%hi(64512), %g1
	or	%g1, 1022, %g1
	st	%g1, [%fp-8]
	.loc 1 133 0
	ld	[%fp-8], %g1
	xnor	%g0, %g1, %g2
	ld	[%fp-4], %g1
	and	%g2, %g1, %g2
	ld	[%fp-8], %g3
	ld	[%fp+76], %g1
	and	%g3, %g1, %g1
	or	%g2, %g1, %g1
	st	%g1, [%fp-4]
	.loc 1 135 0
	ld	[%fp+68], %o0
	ld	[%fp+72], %o1
	ld	[%fp-4], %o2
	call	writeInterruptControlRegister, 0
	 nop
	.loc 1 136 0
	restore
	jmp	%o7+8
	 nop
	.cfi_endproc
.LFE10:
	.size	setInterruptMask, .-setInterruptMask
	.align 4
	.global disableInterrupt
	.type	disableInterrupt, #function
	.proc	020
disableInterrupt:
.LFB11:
	.loc 1 141 0
	.cfi_startproc
	save	%sp, -104, %sp
.LCFI11:
	.cfi_window_save
	.cfi_register 15, 31
	.cfi_def_cfa_register 30
	st	%i0, [%fp+68]
	st	%i1, [%fp+72]
	st	%i2, [%fp+76]
	.loc 1 142 0
	ld	[%fp+68], %o0
	ld	[%fp+72], %o1
	call	readInterruptControlRegister, 0
	 nop
	st	%o0, [%fp-4]
	.loc 1 143 0
	mov	1, %g2
	ld	[%fp+76], %g1
	sll	%g2, %g1, %g1
	xnor	%g0, %g1, %g1
	ld	[%fp-4], %g2
	and	%g2, %g1, %g1
	st	%g1, [%fp-4]
	.loc 1 144 0
	ld	[%fp+68], %o0
	ld	[%fp+72], %o1
	ld	[%fp-4], %o2
	call	writeInterruptControlRegister, 0
	 nop
	.loc 1 145 0
	restore
	jmp	%o7+8
	 nop
	.cfi_endproc
.LFE11:
	.size	disableInterrupt, .-disableInterrupt
.Letext0:
	.file 2 "/home/ajit4/ajit-toolchain/build/buildroot-2014.08/output/host/usr/lib/gcc/sparc-buildroot-linux-uclibc/4.7.4/include/stdint-gcc.h"
	.section	.note.GNU-stack,"",@progbits
