	.file	"ajit_access_routines.c"
	.section	".text"
.Ltext0:
	.cfi_sections	.debug_frame
	.align 4
	.global __ajit_clear_all_gp_registers__
	.type	__ajit_clear_all_gp_registers__, #function
	.proc	020
__ajit_clear_all_gp_registers__:
.LFB0:
	.file 1 "/home/ajit4/ajit-toolchain/AjitPublicResources/tools/ajit_access_routines_mt/src/ajit_access_routines.c"
	.loc 1 10 0
	.cfi_startproc
	save	%sp, -104, %sp
.LCFI0:
	.cfi_window_save
	.cfi_register 15, 31
	.cfi_def_cfa_register 30
	.loc 1 12 0
#APP
! 12 "/home/ajit4/ajit-toolchain/AjitPublicResources/tools/ajit_access_routines_mt/src/ajit_access_routines.c" 1
	mov %g0, %g1 
	 
! 0 "" 2
! 12 "/home/ajit4/ajit-toolchain/AjitPublicResources/tools/ajit_access_routines_mt/src/ajit_access_routines.c" 1
	mov %g0, %g2 
	 
! 0 "" 2
	.loc 1 13 0
! 13 "/home/ajit4/ajit-toolchain/AjitPublicResources/tools/ajit_access_routines_mt/src/ajit_access_routines.c" 1
	mov %g0, %g3 
	 
! 0 "" 2
! 13 "/home/ajit4/ajit-toolchain/AjitPublicResources/tools/ajit_access_routines_mt/src/ajit_access_routines.c" 1
	mov %g0, %g4 
	 
! 0 "" 2
	.loc 1 14 0
! 14 "/home/ajit4/ajit-toolchain/AjitPublicResources/tools/ajit_access_routines_mt/src/ajit_access_routines.c" 1
	mov %g0, %g5 
	 
! 0 "" 2
! 14 "/home/ajit4/ajit-toolchain/AjitPublicResources/tools/ajit_access_routines_mt/src/ajit_access_routines.c" 1
	mov %g0, %g6 
	 
! 0 "" 2
	.loc 1 15 0
! 15 "/home/ajit4/ajit-toolchain/AjitPublicResources/tools/ajit_access_routines_mt/src/ajit_access_routines.c" 1
	mov %g0, %g7 
	 
! 0 "" 2
	.loc 1 17 0
! 17 "/home/ajit4/ajit-toolchain/AjitPublicResources/tools/ajit_access_routines_mt/src/ajit_access_routines.c" 1
	mov %g0, %i0 
	 
! 0 "" 2
! 17 "/home/ajit4/ajit-toolchain/AjitPublicResources/tools/ajit_access_routines_mt/src/ajit_access_routines.c" 1
	mov %g0, %i1 
	 
! 0 "" 2
	.loc 1 18 0
! 18 "/home/ajit4/ajit-toolchain/AjitPublicResources/tools/ajit_access_routines_mt/src/ajit_access_routines.c" 1
	mov %g0, %i2 
	 
! 0 "" 2
! 18 "/home/ajit4/ajit-toolchain/AjitPublicResources/tools/ajit_access_routines_mt/src/ajit_access_routines.c" 1
	mov %g0, %i3 
	 
! 0 "" 2
	.loc 1 19 0
! 19 "/home/ajit4/ajit-toolchain/AjitPublicResources/tools/ajit_access_routines_mt/src/ajit_access_routines.c" 1
	mov %g0, %i4 
	 
! 0 "" 2
! 19 "/home/ajit4/ajit-toolchain/AjitPublicResources/tools/ajit_access_routines_mt/src/ajit_access_routines.c" 1
	mov %g0, %i5 
	 
! 0 "" 2
	.loc 1 20 0
! 20 "/home/ajit4/ajit-toolchain/AjitPublicResources/tools/ajit_access_routines_mt/src/ajit_access_routines.c" 1
	mov %g0, %i6 
	 
! 0 "" 2
! 20 "/home/ajit4/ajit-toolchain/AjitPublicResources/tools/ajit_access_routines_mt/src/ajit_access_routines.c" 1
	mov %g0, %i7 
	 
! 0 "" 2
	.loc 1 22 0
! 22 "/home/ajit4/ajit-toolchain/AjitPublicResources/tools/ajit_access_routines_mt/src/ajit_access_routines.c" 1
	mov %g0, %l0 
	 
! 0 "" 2
! 22 "/home/ajit4/ajit-toolchain/AjitPublicResources/tools/ajit_access_routines_mt/src/ajit_access_routines.c" 1
	mov %g0, %l1 
	 
! 0 "" 2
	.loc 1 23 0
! 23 "/home/ajit4/ajit-toolchain/AjitPublicResources/tools/ajit_access_routines_mt/src/ajit_access_routines.c" 1
	mov %g0, %l2 
	 
! 0 "" 2
! 23 "/home/ajit4/ajit-toolchain/AjitPublicResources/tools/ajit_access_routines_mt/src/ajit_access_routines.c" 1
	mov %g0, %l3 
	 
! 0 "" 2
	.loc 1 24 0
! 24 "/home/ajit4/ajit-toolchain/AjitPublicResources/tools/ajit_access_routines_mt/src/ajit_access_routines.c" 1
	mov %g0, %l4 
	 
! 0 "" 2
! 24 "/home/ajit4/ajit-toolchain/AjitPublicResources/tools/ajit_access_routines_mt/src/ajit_access_routines.c" 1
	mov %g0, %l5 
	 
! 0 "" 2
	.loc 1 25 0
! 25 "/home/ajit4/ajit-toolchain/AjitPublicResources/tools/ajit_access_routines_mt/src/ajit_access_routines.c" 1
	mov %g0, %l6 
	 
! 0 "" 2
! 25 "/home/ajit4/ajit-toolchain/AjitPublicResources/tools/ajit_access_routines_mt/src/ajit_access_routines.c" 1
	mov %g0, %l7 
	 
! 0 "" 2
	.loc 1 27 0
! 27 "/home/ajit4/ajit-toolchain/AjitPublicResources/tools/ajit_access_routines_mt/src/ajit_access_routines.c" 1
	mov %g0, %o0 
	 
! 0 "" 2
! 27 "/home/ajit4/ajit-toolchain/AjitPublicResources/tools/ajit_access_routines_mt/src/ajit_access_routines.c" 1
	mov %g0, %o1 
	 
! 0 "" 2
	.loc 1 28 0
! 28 "/home/ajit4/ajit-toolchain/AjitPublicResources/tools/ajit_access_routines_mt/src/ajit_access_routines.c" 1
	mov %g0, %o2 
	 
! 0 "" 2
! 28 "/home/ajit4/ajit-toolchain/AjitPublicResources/tools/ajit_access_routines_mt/src/ajit_access_routines.c" 1
	mov %g0, %o3 
	 
! 0 "" 2
	.loc 1 29 0
! 29 "/home/ajit4/ajit-toolchain/AjitPublicResources/tools/ajit_access_routines_mt/src/ajit_access_routines.c" 1
	mov %g0, %o4 
	 
! 0 "" 2
! 29 "/home/ajit4/ajit-toolchain/AjitPublicResources/tools/ajit_access_routines_mt/src/ajit_access_routines.c" 1
	mov %g0, %o5 
	 
! 0 "" 2
	.loc 1 30 0
! 30 "/home/ajit4/ajit-toolchain/AjitPublicResources/tools/ajit_access_routines_mt/src/ajit_access_routines.c" 1
	mov %g0, %o6 
	 
! 0 "" 2
! 30 "/home/ajit4/ajit-toolchain/AjitPublicResources/tools/ajit_access_routines_mt/src/ajit_access_routines.c" 1
	mov %g0, %o7 
	 
! 0 "" 2
	.loc 1 33 0
#NO_APP
	st	%g0, [%fp-4]
	.loc 1 34 0
	st	%g0, [%fp-4]
	b	.L2
	 nop
.L3:
	.loc 1 36 0 discriminator 2
#APP
! 36 "/home/ajit4/ajit-toolchain/AjitPublicResources/tools/ajit_access_routines_mt/src/ajit_access_routines.c" 1
	save
	 
! 0 "" 2
	.loc 1 38 0 discriminator 2
! 38 "/home/ajit4/ajit-toolchain/AjitPublicResources/tools/ajit_access_routines_mt/src/ajit_access_routines.c" 1
	mov %g0, %l0 
	 
! 0 "" 2
! 38 "/home/ajit4/ajit-toolchain/AjitPublicResources/tools/ajit_access_routines_mt/src/ajit_access_routines.c" 1
	mov %g0, %l1 
	 
! 0 "" 2
	.loc 1 39 0 discriminator 2
! 39 "/home/ajit4/ajit-toolchain/AjitPublicResources/tools/ajit_access_routines_mt/src/ajit_access_routines.c" 1
	mov %g0, %l2 
	 
! 0 "" 2
! 39 "/home/ajit4/ajit-toolchain/AjitPublicResources/tools/ajit_access_routines_mt/src/ajit_access_routines.c" 1
	mov %g0, %l3 
	 
! 0 "" 2
	.loc 1 40 0 discriminator 2
! 40 "/home/ajit4/ajit-toolchain/AjitPublicResources/tools/ajit_access_routines_mt/src/ajit_access_routines.c" 1
	mov %g0, %l4 
	 
! 0 "" 2
! 40 "/home/ajit4/ajit-toolchain/AjitPublicResources/tools/ajit_access_routines_mt/src/ajit_access_routines.c" 1
	mov %g0, %l5 
	 
! 0 "" 2
	.loc 1 41 0 discriminator 2
! 41 "/home/ajit4/ajit-toolchain/AjitPublicResources/tools/ajit_access_routines_mt/src/ajit_access_routines.c" 1
	mov %g0, %l6 
	 
! 0 "" 2
! 41 "/home/ajit4/ajit-toolchain/AjitPublicResources/tools/ajit_access_routines_mt/src/ajit_access_routines.c" 1
	mov %g0, %l7 
	 
! 0 "" 2
	.loc 1 43 0 discriminator 2
! 43 "/home/ajit4/ajit-toolchain/AjitPublicResources/tools/ajit_access_routines_mt/src/ajit_access_routines.c" 1
	mov %g0, %o0 
	 
! 0 "" 2
! 43 "/home/ajit4/ajit-toolchain/AjitPublicResources/tools/ajit_access_routines_mt/src/ajit_access_routines.c" 1
	mov %g0, %o1 
	 
! 0 "" 2
	.loc 1 44 0 discriminator 2
! 44 "/home/ajit4/ajit-toolchain/AjitPublicResources/tools/ajit_access_routines_mt/src/ajit_access_routines.c" 1
	mov %g0, %o2 
	 
! 0 "" 2
! 44 "/home/ajit4/ajit-toolchain/AjitPublicResources/tools/ajit_access_routines_mt/src/ajit_access_routines.c" 1
	mov %g0, %o3 
	 
! 0 "" 2
	.loc 1 45 0 discriminator 2
! 45 "/home/ajit4/ajit-toolchain/AjitPublicResources/tools/ajit_access_routines_mt/src/ajit_access_routines.c" 1
	mov %g0, %o4 
	 
! 0 "" 2
! 45 "/home/ajit4/ajit-toolchain/AjitPublicResources/tools/ajit_access_routines_mt/src/ajit_access_routines.c" 1
	mov %g0, %o5 
	 
! 0 "" 2
	.loc 1 46 0 discriminator 2
! 46 "/home/ajit4/ajit-toolchain/AjitPublicResources/tools/ajit_access_routines_mt/src/ajit_access_routines.c" 1
	mov %g0, %o6 
	 
! 0 "" 2
! 46 "/home/ajit4/ajit-toolchain/AjitPublicResources/tools/ajit_access_routines_mt/src/ajit_access_routines.c" 1
	mov %g0, %o7 
	 
! 0 "" 2
	.loc 1 34 0 discriminator 2
#NO_APP
	ld	[%fp-4], %g1
	add	%g1, 1, %g1
	st	%g1, [%fp-4]
.L2:
	.loc 1 34 0 is_stmt 0 discriminator 1
	ld	[%fp-4], %g1
	cmp	%g1, 6
	ble	.L3
	 nop
	.loc 1 50 0 is_stmt 1
	st	%g0, [%fp-4]
	b	.L4
	 nop
.L5:
	.loc 1 52 0 discriminator 2
#APP
! 52 "/home/ajit4/ajit-toolchain/AjitPublicResources/tools/ajit_access_routines_mt/src/ajit_access_routines.c" 1
	restore
	 
! 0 "" 2
	.loc 1 50 0 discriminator 2
#NO_APP
	ld	[%fp-4], %g1
	add	%g1, 1, %g1
	st	%g1, [%fp-4]
.L4:
	.loc 1 50 0 is_stmt 0 discriminator 1
	ld	[%fp-4], %g1
	cmp	%g1, 6
	ble	.L5
	 nop
	.loc 1 56 0 is_stmt 1
	restore
	jmp	%o7+8
	 nop
	.cfi_endproc
.LFE0:
	.size	__ajit_clear_all_gp_registers__, .-__ajit_clear_all_gp_registers__
	.align 4
	.global ajit_read_from_scratch_pad
	.type	ajit_read_from_scratch_pad, #function
	.proc	016
ajit_read_from_scratch_pad:
.LFB1:
	.loc 1 62 0
	.cfi_startproc
	save	%sp, -104, %sp
.LCFI1:
	.cfi_window_save
	.cfi_register 15, 31
	.cfi_def_cfa_register 30
	st	%i0, [%fp+68]
	.loc 1 63 0
	st	%g0, [%fp-4]
	.loc 1 64 0
	ld	[%fp+68], %g1
	cmp	%g1, 31
	bgu	.L7
	 nop
.LBB2:
	.loc 1 66 0
	sethi	%hi(-54272), %g1
	st	%g1, [%fp-8]
	.loc 1 67 0
	ld	[%fp+68], %g1
	sll	%g1, 2, %g1
	ld	[%fp-8], %g2
	add	%g2, %g1, %g1
	ld	[%g1], %g1
	st	%g1, [%fp-4]
.L7:
.LBE2:
	.loc 1 69 0
	ld	[%fp-4], %g1
	.loc 1 70 0
	mov	%g1, %i0
	restore
	jmp	%o7+8
	 nop
	.cfi_endproc
.LFE1:
	.size	ajit_read_from_scratch_pad, .-ajit_read_from_scratch_pad
	.align 4
	.global ajit_write_to_scratch_pad
	.type	ajit_write_to_scratch_pad, #function
	.proc	020
ajit_write_to_scratch_pad:
.LFB2:
	.loc 1 73 0
	.cfi_startproc
	save	%sp, -104, %sp
.LCFI2:
	.cfi_window_save
	.cfi_register 15, 31
	.cfi_def_cfa_register 30
	st	%i0, [%fp+68]
	st	%i1, [%fp+72]
	.loc 1 74 0
	ld	[%fp+68], %g1
	cmp	%g1, 31
	bgu	.L9
	 nop
.LBB3:
	.loc 1 76 0
	sethi	%hi(-54272), %g1
	st	%g1, [%fp-4]
	.loc 1 77 0
	ld	[%fp+68], %g1
	sll	%g1, 2, %g1
	ld	[%fp-4], %g2
	add	%g2, %g1, %g1
	ld	[%fp+72], %g2
	st	%g2, [%g1]
.L9:
.LBE3:
	.loc 1 79 0
	restore
	jmp	%o7+8
	 nop
	.cfi_endproc
.LFE2:
	.size	ajit_write_to_scratch_pad, .-ajit_write_to_scratch_pad
	.align 4
	.global ajit_configure_i2c_master
	.type	ajit_configure_i2c_master, #function
	.proc	016
ajit_configure_i2c_master:
.LFB3:
	.loc 1 85 0
	.cfi_startproc
	save	%sp, -104, %sp
.LCFI3:
	.cfi_window_save
	.cfi_register 15, 31
	.cfi_def_cfa_register 30
	st	%i0, [%fp+68]
	st	%i1, [%fp+72]
	.loc 1 86 0
	ld	[%fp+68], %g2
	wr	%g0, 0, %y
	ld	[%fp+72], %g1
	nop
	nop
	udiv	%g2, %g1, %g1
	srl	%g1, 2, %g1
	st	%g1, [%fp-4]
	.loc 1 87 0
	sethi	%hi(-52224), %g1
	or	%g1, 512, %g1
	ld	[%fp-4], %g2
	st	%g2, [%g1]
	.loc 1 88 0
	mov	0, %g1
	.loc 1 89 0
	mov	%g1, %i0
	restore
	jmp	%o7+8
	 nop
	.cfi_endproc
.LFE3:
	.size	ajit_configure_i2c_master, .-ajit_configure_i2c_master
	.align 4
	.global ajit_i2c_master_is_ready
	.type	ajit_i2c_master_is_ready, #function
	.proc	016
ajit_i2c_master_is_ready:
.LFB4:
	.loc 1 92 0
	.cfi_startproc
	save	%sp, -104, %sp
.LCFI4:
	.cfi_window_save
	.cfi_register 15, 31
	.cfi_def_cfa_register 30
	.loc 1 93 0
	sethi	%hi(-52224), %g1
	or	%g1, 520, %g1
	ld	[%g1], %g1
	st	%g1, [%fp-4]
	.loc 1 94 0
	ld	[%fp-4], %g1
	and	%g1, 1024, %g1
	xor	%g1, 0, %g1
	subcc	%g0, %g1, %g0
	addx	%g0, 0, %g1
	and	%g1, 0xff, %g1
	st	%g1, [%fp-8]
	.loc 1 95 0
	ld	[%fp-8], %g1
	.loc 1 96 0
	mov	%g1, %i0
	restore
	jmp	%o7+8
	 nop
	.cfi_endproc
.LFE4:
	.size	ajit_i2c_master_is_ready, .-ajit_i2c_master_is_ready
	.align 4
	.global ajit_i2c_master_write_command
	.type	ajit_i2c_master_write_command, #function
	.proc	020
ajit_i2c_master_write_command:
.LFB5:
	.loc 1 99 0
	.cfi_startproc
	save	%sp, -96, %sp
.LCFI5:
	.cfi_window_save
	.cfi_register 15, 31
	.cfi_def_cfa_register 30
	st	%i0, [%fp+68]
	.loc 1 100 0
	sethi	%hi(-52224), %g1
	or	%g1, 516, %g1
	ld	[%fp+68], %g2
	st	%g2, [%g1]
	.loc 1 101 0
	restore
	jmp	%o7+8
	 nop
	.cfi_endproc
.LFE5:
	.size	ajit_i2c_master_write_command, .-ajit_i2c_master_write_command
	.align 4
	.global ajit_i2c_master_read_status
	.type	ajit_i2c_master_read_status, #function
	.proc	016
ajit_i2c_master_read_status:
.LFB6:
	.loc 1 104 0
	.cfi_startproc
	save	%sp, -104, %sp
.LCFI6:
	.cfi_window_save
	.cfi_register 15, 31
	.cfi_def_cfa_register 30
	.loc 1 105 0
	sethi	%hi(-52224), %g1
	or	%g1, 520, %g1
	ld	[%g1], %g1
	st	%g1, [%fp-4]
	.loc 1 106 0
	ld	[%fp-4], %g1
	.loc 1 107 0
	mov	%g1, %i0
	restore
	jmp	%o7+8
	 nop
	.cfi_endproc
.LFE6:
	.size	ajit_i2c_master_read_status, .-ajit_i2c_master_read_status
	.align 4
	.global ajit_i2c_master_access_slave_memory_device
	.type	ajit_i2c_master_access_slave_memory_device, #function
	.proc	014
ajit_i2c_master_access_slave_memory_device:
.LFB7:
	.loc 1 111 0
	.cfi_startproc
	save	%sp, -112, %sp
.LCFI7:
	.cfi_window_save
	.cfi_register 15, 31
	.cfi_def_cfa_register 30
	mov	%i0, %g4
	mov	%i1, %g3
	mov	%i2, %g2
	mov	%i3, %g1
	stb	%g4, [%fp+68]
	stb	%g3, [%fp+72]
	stb	%g2, [%fp+76]
	stb	%g1, [%fp+80]
	.loc 1 112 0
	stb	%g0, [%fp-1]
	b	.L21
	 nop
.L27:
	.loc 1 119 0
	nop
.L21:
	.loc 1 116 0
	sethi	%hi(-52224), %g1
	or	%g1, 520, %g1
	ld	[%g1], %g1
	st	%g1, [%fp-8]
	.loc 1 117 0
	ld	[%fp-8], %g1
	and	%g1, 1024, %g1
	cmp	%g1, 0
	be	.L27
	 nop
	.loc 1 118 0
	nop
	.loc 1 121 0
	ldub	[%fp+72], %g1
	and	%g1, 0xff, %g1
	sll	%g1, 31, %g2
	sethi	%hi(1610612736), %g1
	or	%g2, %g1, %g2
	ldub	[%fp+68], %g1
	and	%g1, 0xff, %g1
	sll	%g1, 16, %g1
	or	%g2, %g1, %g2
	ldub	[%fp+76], %g1
	and	%g1, 0xff, %g1
	sll	%g1, 8, %g1
	or	%g2, %g1, %g2
	ldub	[%fp+80], %g1
	and	%g1, 0xff, %g1
	or	%g2, %g1, %g1
	st	%g1, [%fp-12]
	.loc 1 122 0
	sethi	%hi(-52224), %g1
	or	%g1, 516, %g1
	ld	[%fp-12], %g2
	st	%g2, [%g1]
	.loc 1 124 0
	ldub	[%fp+72], %g1
	and	%g1, 0xff, %g1
	cmp	%g1, 0
	be	.L22
	 nop
	b	.L25
	 nop
.L28:
	.loc 1 131 0
	nop
.L25:
	.loc 1 128 0
	sethi	%hi(-52224), %g1
	or	%g1, 520, %g1
	ld	[%g1], %g1
	st	%g1, [%fp-8]
	.loc 1 129 0
	ld	[%fp-8], %g1
	and	%g1, 1024, %g1
	cmp	%g1, 0
	be	.L28
	 nop
	.loc 1 130 0
	nop
	.loc 1 132 0
	ld	[%fp-8], %g1
	stb	%g1, [%fp-1]
.L22:
	.loc 1 135 0
	ldub	[%fp-1], %g1
	and	%g1, 0xff, %g1
	.loc 1 136 0
	mov	%g1, %i0
	restore
	jmp	%o7+8
	 nop
	.cfi_endproc
.LFE7:
	.size	ajit_i2c_master_access_slave_memory_device, .-ajit_i2c_master_access_slave_memory_device
	.align 4
	.global __ajit_read_core_thread_id_word__
	.type	__ajit_read_core_thread_id_word__, #function
	.proc	016
__ajit_read_core_thread_id_word__:
.LFB8:
	.loc 1 148 0
	.cfi_startproc
	save	%sp, -104, %sp
.LCFI8:
	.cfi_window_save
	.cfi_register 15, 31
	.cfi_def_cfa_register 30
	.loc 1 150 0
#APP
! 150 "/home/ajit4/ajit-toolchain/AjitPublicResources/tools/ajit_access_routines_mt/src/ajit_access_routines.c" 1
	rd %asr29, %i5 
! 0 "" 2
#NO_APP
	st	%i5, [%fp-4]
	.loc 1 151 0
	ld	[%fp-4], %g1
	.loc 1 152 0
	mov	%g1, %i0
	restore
	jmp	%o7+8
	 nop
	.cfi_endproc
.LFE8:
	.size	__ajit_read_core_thread_id_word__, .-__ajit_read_core_thread_id_word__
	.align 4
	.global ajit_read_thread_descriptor
	.type	ajit_read_thread_descriptor, #function
	.proc	020
ajit_read_thread_descriptor:
.LFB9:
	.loc 1 159 0
	.cfi_startproc
	save	%sp, -104, %sp
.LCFI9:
	.cfi_window_save
	.cfi_register 15, 31
	.cfi_def_cfa_register 30
	st	%i0, [%fp+68]
	.loc 1 161 0
#APP
! 161 "/home/ajit4/ajit-toolchain/AjitPublicResources/tools/ajit_access_routines_mt/src/ajit_access_routines.c" 1
	rd %asr28, %i5 
! 0 "" 2
#NO_APP
	st	%i5, [%fp-4]
	.loc 1 163 0
	ld	[%fp-4], %g1
	srl	%g1, 30, %g1
	stb	%g1, [%fp-5]
	.loc 1 164 0
	ldub	[%fp-5], %g1
	and	%g1, 0xff, %g1
	cmp	%g1, 3
	be	.L32
	 nop
	.loc 1 164 0 is_stmt 0 discriminator 1
	ldub	[%fp-5], %g1
	and	%g1, 0xff, %g1
	cmp	%g1, 2
	be	.L33
	 nop
	.loc 1 164 0 discriminator 3
	ldub	[%fp-5], %g1
	and	%g1, 0xff, %g1
	cmp	%g1, 1
	bne	.L34
	 nop
	.loc 1 164 0 discriminator 5
	mov	8, %g1
	b	.L35
	 nop
.L34:
	.loc 1 164 0 discriminator 6
	mov	4, %g1
.L35:
	b	.L36
	 nop
.L33:
	.loc 1 164 0 discriminator 4
	mov	16, %g1
.L36:
	b	.L37
	 nop
.L32:
	.loc 1 164 0 discriminator 2
	mov	32, %g1
.L37:
	.loc 1 164 0 discriminator 9
	ld	[%fp+68], %g2
	stb	%g1, [%g2]
	.loc 1 166 0 is_stmt 1 discriminator 9
	ld	[%fp-4], %g1
	srl	%g1, 28, %g1
	and	%g1, 3, %g1
	stb	%g1, [%fp-5]
	.loc 1 167 0 discriminator 9
	ldub	[%fp-5], %g1
	and	%g1, 0xff, %g1
	cmp	%g1, 3
	be	.L38
	 nop
	.loc 1 167 0 is_stmt 0 discriminator 1
	ldub	[%fp-5], %g1
	and	%g1, 0xff, %g1
	cmp	%g1, 2
	be	.L39
	 nop
	.loc 1 167 0 discriminator 3
	ldub	[%fp-5], %g1
	and	%g1, 0xff, %g1
	cmp	%g1, 1
	bne	.L40
	 nop
	.loc 1 167 0 discriminator 5
	mov	8, %g1
	b	.L41
	 nop
.L40:
	.loc 1 167 0 discriminator 6
	mov	4, %g1
.L41:
	b	.L42
	 nop
.L39:
	.loc 1 167 0 discriminator 4
	mov	16, %g1
.L42:
	b	.L43
	 nop
.L38:
	.loc 1 167 0 discriminator 2
	mov	32, %g1
.L43:
	.loc 1 167 0 discriminator 9
	ld	[%fp+68], %g2
	stb	%g1, [%g2+1]
	.loc 1 169 0 is_stmt 1 discriminator 9
	ld	[%fp-4], %g1
	srl	%g1, 26, %g1
	and	%g1, 3, %g1
	mov	%g1, %g2
	ld	[%fp+68], %g1
	stb	%g2, [%g1+2]
	.loc 1 170 0 discriminator 9
	ld	[%fp-4], %g1
	srl	%g1, 24, %g1
	and	%g1, 3, %g1
	mov	%g1, %g2
	ld	[%fp+68], %g1
	stb	%g2, [%g1+3]
	.loc 1 171 0 discriminator 9
	ld	[%fp-4], %g1
	srl	%g1, 20, %g1
	and	%g1, 15, %g1
	mov	%g1, %g2
	ld	[%fp+68], %g1
	stb	%g2, [%g1+4]
	.loc 1 172 0 discriminator 9
	ld	[%fp-4], %g1
	srl	%g1, 16, %g1
	and	%g1, 15, %g1
	mov	%g1, %g2
	ld	[%fp+68], %g1
	stb	%g2, [%g1+5]
	.loc 1 173 0 discriminator 9
	ld	[%fp-4], %g1
	srl	%g1, 12, %g1
	and	%g1, 15, %g1
	mov	%g1, %g2
	ld	[%fp+68], %g1
	stb	%g2, [%g1+6]
	.loc 1 174 0 discriminator 9
	ld	[%fp-4], %g1
	srl	%g1, 9, %g1
	and	%g1, 7, %g1
	mov	%g1, %g2
	ld	[%fp+68], %g1
	stb	%g2, [%g1+7]
	.loc 1 175 0 discriminator 9
	ld	[%fp-4], %g1
	srl	%g1, 7, %g1
	and	%g1, 3, %g1
	mov	%g1, %g2
	ld	[%fp+68], %g1
	stb	%g2, [%g1+8]
	.loc 1 176 0 discriminator 9
	ld	[%fp-4], %g1
	srl	%g1, 5, %g1
	and	%g1, 3, %g1
	mov	%g1, %g2
	ld	[%fp+68], %g1
	stb	%g2, [%g1+9]
	.loc 1 177 0 discriminator 9
	ld	[%fp-4], %g1
	srl	%g1, 2, %g1
	and	%g1, 1, %g1
	mov	%g1, %g2
	ld	[%fp+68], %g1
	stb	%g2, [%g1+10]
	.loc 1 178 0 discriminator 9
	ld	[%fp-4], %g1
	srl	%g1, 1, %g1
	and	%g1, 1, %g1
	mov	%g1, %g2
	ld	[%fp+68], %g1
	stb	%g2, [%g1+11]
	.loc 1 179 0 discriminator 9
	ld	[%fp-4], %g1
	and	%g1, 1, %g1
	mov	%g1, %g2
	ld	[%fp+68], %g1
	stb	%g2, [%g1+12]
	.loc 1 181 0 discriminator 9
	restore
	jmp	%o7+8
	 nop
	.cfi_endproc
.LFE9:
	.size	ajit_read_thread_descriptor, .-ajit_read_thread_descriptor
	.align 4
	.global ajit_get_core_and_thread_id
	.type	ajit_get_core_and_thread_id, #function
	.proc	020
ajit_get_core_and_thread_id:
.LFB10:
	.loc 1 187 0
	.cfi_startproc
	save	%sp, -104, %sp
.LCFI10:
	.cfi_window_save
	.cfi_register 15, 31
	.cfi_def_cfa_register 30
	st	%i0, [%fp+68]
	st	%i1, [%fp+72]
	.loc 1 188 0
	call	__ajit_read_core_thread_id_word__, 0
	 nop
	st	%o0, [%fp-4]
	.loc 1 189 0
	ld	[%fp-4], %g1
	srl	%g1, 8, %g1
	mov	%g1, %g2
	ld	[%fp+68], %g1
	stb	%g2, [%g1]
	.loc 1 190 0
	ld	[%fp-4], %g1
	mov	%g1, %g2
	ld	[%fp+72], %g1
	stb	%g2, [%g1]
	.loc 1 191 0
	restore
	jmp	%o7+8
	 nop
	.cfi_endproc
.LFE10:
	.size	ajit_get_core_and_thread_id, .-ajit_get_core_and_thread_id
	.align 4
	.global __ajit_read_cycle_count_register_high__
	.type	__ajit_read_cycle_count_register_high__, #function
	.proc	016
__ajit_read_cycle_count_register_high__:
.LFB11:
	.loc 1 201 0
	.cfi_startproc
	save	%sp, -104, %sp
.LCFI11:
	.cfi_window_save
	.cfi_register 15, 31
	.cfi_def_cfa_register 30
	.loc 1 203 0
#APP
! 203 "/home/ajit4/ajit-toolchain/AjitPublicResources/tools/ajit_access_routines_mt/src/ajit_access_routines.c" 1
	rd %asr30, %i5 
! 0 "" 2
#NO_APP
	st	%i5, [%fp-4]
	.loc 1 204 0
	ld	[%fp-4], %g1
	.loc 1 205 0
	mov	%g1, %i0
	restore
	jmp	%o7+8
	 nop
	.cfi_endproc
.LFE11:
	.size	__ajit_read_cycle_count_register_high__, .-__ajit_read_cycle_count_register_high__
	.align 4
	.global __ajit_read_cycle_count_register_low__
	.type	__ajit_read_cycle_count_register_low__, #function
	.proc	016
__ajit_read_cycle_count_register_low__:
.LFB12:
	.loc 1 208 0
	.cfi_startproc
	save	%sp, -104, %sp
.LCFI12:
	.cfi_window_save
	.cfi_register 15, 31
	.cfi_def_cfa_register 30
	.loc 1 210 0
#APP
! 210 "/home/ajit4/ajit-toolchain/AjitPublicResources/tools/ajit_access_routines_mt/src/ajit_access_routines.c" 1
	rd %asr31, %i5 
! 0 "" 2
#NO_APP
	st	%i5, [%fp-4]
	.loc 1 211 0
	ld	[%fp-4], %g1
	.loc 1 212 0
	mov	%g1, %i0
	restore
	jmp	%o7+8
	 nop
	.cfi_endproc
.LFE12:
	.size	__ajit_read_cycle_count_register_low__, .-__ajit_read_cycle_count_register_low__
	.align 4
	.global __ajit_get_clock_time
	.type	__ajit_get_clock_time, #function
	.proc	017
__ajit_get_clock_time:
.LFB13:
	.loc 1 215 0
	.cfi_startproc
	save	%sp, -112, %sp
.LCFI13:
	.cfi_window_save
	.cfi_register 15, 31
	.cfi_def_cfa_register 30
	.loc 1 217 0
	call	__ajit_read_cycle_count_register_low__, 0
	 nop
	st	%o0, [%fp-4]
	.loc 1 218 0
	call	__ajit_read_cycle_count_register_high__, 0
	 nop
	st	%o0, [%fp-8]
	.loc 1 220 0
	ld	[%fp-8], %g1
	mov	0, %g2
	mov	%g1, %g3
	std	%g2, [%fp-16]
	.loc 1 221 0
	ld	[%fp-12], %g1
	sll	%g1, 0, %g1
	st	%g1, [%fp-16]
	st	%g0, [%fp-12]
	.loc 1 222 0
	ld	[%fp-4], %g1
	mov	0, %g2
	mov	%g1, %g3
	ldd	[%fp-16], %i4
	or	%i4, %g2, %g2
	or	%i5, %g3, %g3
	std	%g2, [%fp-16]
	.loc 1 224 0
	ldd	[%fp-16], %g2
	.loc 1 225 0
	mov	%g2, %i0
	mov	%g3, %i1
	restore
	jmp	%o7+8
	 nop
	.cfi_endproc
.LFE13:
	.size	__ajit_get_clock_time, .-__ajit_get_clock_time
	.align 4
	.global __ajit_sleep__
	.type	__ajit_sleep__, #function
	.proc	020
__ajit_sleep__:
.LFB14:
	.loc 1 234 0
	.cfi_startproc
	save	%sp, -112, %sp
.LCFI14:
	.cfi_window_save
	.cfi_register 15, 31
	.cfi_def_cfa_register 30
	st	%i0, [%fp+68]
	.loc 1 235 0
	call	__ajit_get_clock_time, 0
	 nop
	std	%o0, [%fp-8]
	.loc 1 236 0
	ld	[%fp+68], %g1
	mov	0, %i2
	mov	%g1, %i3
	ldd	[%fp-8], %i4
	addcc	%i3, %i5, %g3
	addx	%i2, %i4, %g2
	std	%g2, [%fp-16]
	.loc 1 238 0
	b	.L52
	 nop
.L53:
	.loc 1 240 0
	call	__ajit_get_clock_time, 0
	 nop
	std	%o0, [%fp-8]
.L52:
	.loc 1 238 0 discriminator 1
	ld	[%fp-16], %g2
	ld	[%fp-8], %g1
	cmp	%g2, %g1
	bgu	.L53
	 nop
	ld	[%fp-16], %g2
	ld	[%fp-8], %g1
	cmp	%g2, %g1
	bne	.L56
	 nop
	ld	[%fp-12], %g2
	ld	[%fp-4], %g1
	cmp	%g2, %g1
	bgu	.L53
	 nop
.L56:
	.loc 1 242 0
	nop
.L51:
	.loc 1 243 0
	restore
	jmp	%o7+8
	 nop
	.cfi_endproc
.LFE14:
	.size	__ajit_sleep__, .-__ajit_sleep__
	.align 4
	.global __ajit_set_mmu_default_cacheable_bit__
	.type	__ajit_set_mmu_default_cacheable_bit__, #function
	.proc	020
__ajit_set_mmu_default_cacheable_bit__:
.LFB15:
	.loc 1 274 0
	.cfi_startproc
	save	%sp, -104, %sp
.LCFI15:
	.cfi_window_save
	.cfi_register 15, 31
	.cfi_def_cfa_register 30
	mov	%i0, %g1
	stb	%g1, [%fp+68]
	.loc 1 275 0
	ldub	[%fp+68], %g1
	and	%g1, 0xff, %g1
	cmp	%g1, 0
	be	.L58
	 nop
	.loc 1 275 0 is_stmt 0 discriminator 1
	mov	256, %g1
	b	.L59
	 nop
.L58:
	.loc 1 275 0 discriminator 2
	mov	0, %g1
.L59:
	.loc 1 275 0 discriminator 3
	st	%g1, [%fp-4]
	.loc 1 276 0 is_stmt 1 discriminator 3
	st	%g0, [%fp-8]
	.loc 1 277 0 discriminator 3
	ld	[%fp-4], %g1
	ld	[%fp-8], %g2
#APP
! 277 "/home/ajit4/ajit-toolchain/AjitPublicResources/tools/ajit_access_routines_mt/src/ajit_access_routines.c" 1
	sta %g1, [%g2] 4
	
! 0 "" 2
	.loc 1 279 0 discriminator 3
#NO_APP
	restore
	jmp	%o7+8
	 nop
	.cfi_endproc
.LFE15:
	.size	__ajit_set_mmu_default_cacheable_bit__, .-__ajit_set_mmu_default_cacheable_bit__
	.align 4
	.global __ajit_store_word_mmu_reg__
	.type	__ajit_store_word_mmu_reg__, #function
	.proc	020
__ajit_store_word_mmu_reg__:
.LFB16:
	.loc 1 287 0
	.cfi_startproc
	save	%sp, -96, %sp
.LCFI16:
	.cfi_window_save
	.cfi_register 15, 31
	.cfi_def_cfa_register 30
	st	%i0, [%fp+68]
	st	%i1, [%fp+72]
	.loc 1 288 0
	ld	[%fp+68], %g1
	ld	[%fp+72], %g2
#APP
! 288 "/home/ajit4/ajit-toolchain/AjitPublicResources/tools/ajit_access_routines_mt/src/ajit_access_routines.c" 1
	sta %g1, [%g2] 4
	
! 0 "" 2
	.loc 1 290 0
#NO_APP
	restore
	jmp	%o7+8
	 nop
	.cfi_endproc
.LFE16:
	.size	__ajit_store_word_mmu_reg__, .-__ajit_store_word_mmu_reg__
	.align 4
	.global __ajit_store_word_mmu_bypass__
	.type	__ajit_store_word_mmu_bypass__, #function
	.proc	020
__ajit_store_word_mmu_bypass__:
.LFB17:
	.loc 1 293 0
	.cfi_startproc
	save	%sp, -96, %sp
.LCFI17:
	.cfi_window_save
	.cfi_register 15, 31
	.cfi_def_cfa_register 30
	st	%i0, [%fp+68]
	st	%i1, [%fp+72]
	.loc 1 295 0
	ld	[%fp+68], %g1
	ld	[%fp+72], %g2
#APP
! 295 "/home/ajit4/ajit-toolchain/AjitPublicResources/tools/ajit_access_routines_mt/src/ajit_access_routines.c" 1
	sta %g1, [%g2] 32
	
! 0 "" 2
	.loc 1 297 0
#NO_APP
	restore
	jmp	%o7+8
	 nop
	.cfi_endproc
.LFE17:
	.size	__ajit_store_word_mmu_bypass__, .-__ajit_store_word_mmu_bypass__
	.align 4
	.global __ajit_store_word_to_physical_address__
	.type	__ajit_store_word_to_physical_address__, #function
	.proc	020
__ajit_store_word_to_physical_address__:
.LFB18:
	.loc 1 300 0
	.cfi_startproc
	save	%sp, -128, %sp
.LCFI18:
	.cfi_window_save
	.cfi_register 15, 31
	.cfi_def_cfa_register 30
	st	%i0, [%fp+68]
	st	%i1, [%fp-32]
	st	%i2, [%fp-28]
	.loc 1 301 0
	ld	[%fp-28], %g1
	st	%g1, [%fp-4]
	.loc 1 303 0
	ld	[%fp-32], %g1
	srl	%g1, 0, %g3
	mov	0, %g2
	and	%g2, 0, %g2
	and	%g3, 15, %g3
	std	%g2, [%fp-16]
	.loc 1 304 0
	ld	[%fp-12], %g1
	and	%g1, 15, %g1
	st	%g1, [%fp-20]
	.loc 1 305 0
	ld	[%fp-20], %g1
	cmp	%g1, 15
	bgu	.L82
	 nop
	ld	[%fp-20], %g1
	sll	%g1, 2, %g2
	sethi	%hi(.L80), %g1
	or	%g1, %lo(.L80), %g1
	ld	[%g2+%g1], %g1
	jmp	%g1
	 nop
	.section	".rodata"
	.section	".text"
.L64:
	.loc 1 310 0
	ld	[%fp+68], %g1
	ld	[%fp-4], %g2
#APP
! 310 "/home/ajit4/ajit-toolchain/AjitPublicResources/tools/ajit_access_routines_mt/src/ajit_access_routines.c" 1
	sta %g1, [%g2] 32
	
! 0 "" 2
	.loc 1 311 0
#NO_APP
	b	.L62
	 nop
.L65:
	.loc 1 313 0
	ld	[%fp+68], %g1
	ld	[%fp-4], %g2
#APP
! 313 "/home/ajit4/ajit-toolchain/AjitPublicResources/tools/ajit_access_routines_mt/src/ajit_access_routines.c" 1
	sta %g1, [%g2] 33
	
! 0 "" 2
	.loc 1 314 0
#NO_APP
	b	.L62
	 nop
.L66:
	.loc 1 316 0
	ld	[%fp+68], %g1
	ld	[%fp-4], %g2
#APP
! 316 "/home/ajit4/ajit-toolchain/AjitPublicResources/tools/ajit_access_routines_mt/src/ajit_access_routines.c" 1
	sta %g1, [%g2] 34
	
! 0 "" 2
	.loc 1 317 0
#NO_APP
	b	.L62
	 nop
.L67:
	.loc 1 319 0
	ld	[%fp+68], %g1
	ld	[%fp-4], %g2
#APP
! 319 "/home/ajit4/ajit-toolchain/AjitPublicResources/tools/ajit_access_routines_mt/src/ajit_access_routines.c" 1
	sta %g1, [%g2] 35
	
! 0 "" 2
	.loc 1 320 0
#NO_APP
	b	.L62
	 nop
.L68:
	.loc 1 322 0
	ld	[%fp+68], %g1
	ld	[%fp-4], %g2
#APP
! 322 "/home/ajit4/ajit-toolchain/AjitPublicResources/tools/ajit_access_routines_mt/src/ajit_access_routines.c" 1
	sta %g1, [%g2] 36
	
! 0 "" 2
	.loc 1 323 0
#NO_APP
	b	.L62
	 nop
.L69:
	.loc 1 325 0
	ld	[%fp+68], %g1
	ld	[%fp-4], %g2
#APP
! 325 "/home/ajit4/ajit-toolchain/AjitPublicResources/tools/ajit_access_routines_mt/src/ajit_access_routines.c" 1
	sta %g1, [%g2] 37
	
! 0 "" 2
	.loc 1 326 0
#NO_APP
	b	.L62
	 nop
.L70:
	.loc 1 328 0
	ld	[%fp+68], %g1
	ld	[%fp-4], %g2
#APP
! 328 "/home/ajit4/ajit-toolchain/AjitPublicResources/tools/ajit_access_routines_mt/src/ajit_access_routines.c" 1
	sta %g1, [%g2] 38
	
! 0 "" 2
	.loc 1 329 0
#NO_APP
	b	.L62
	 nop
.L71:
	.loc 1 331 0
	ld	[%fp+68], %g1
	ld	[%fp-4], %g2
#APP
! 331 "/home/ajit4/ajit-toolchain/AjitPublicResources/tools/ajit_access_routines_mt/src/ajit_access_routines.c" 1
	sta %g1, [%g2] 39
	
! 0 "" 2
	.loc 1 332 0
#NO_APP
	b	.L62
	 nop
.L72:
	.loc 1 334 0
	ld	[%fp+68], %g1
	ld	[%fp-4], %g2
#APP
! 334 "/home/ajit4/ajit-toolchain/AjitPublicResources/tools/ajit_access_routines_mt/src/ajit_access_routines.c" 1
	sta %g1, [%g2] 40
	
! 0 "" 2
	.loc 1 335 0
#NO_APP
	b	.L62
	 nop
.L73:
	.loc 1 337 0
	ld	[%fp+68], %g1
	ld	[%fp-4], %g2
#APP
! 337 "/home/ajit4/ajit-toolchain/AjitPublicResources/tools/ajit_access_routines_mt/src/ajit_access_routines.c" 1
	sta %g1, [%g2] 41
	
! 0 "" 2
	.loc 1 338 0
#NO_APP
	b	.L62
	 nop
.L74:
	.loc 1 340 0
	ld	[%fp+68], %g1
	ld	[%fp-4], %g2
#APP
! 340 "/home/ajit4/ajit-toolchain/AjitPublicResources/tools/ajit_access_routines_mt/src/ajit_access_routines.c" 1
	sta %g1, [%g2] 42
	
! 0 "" 2
	.loc 1 341 0
#NO_APP
	b	.L62
	 nop
.L75:
	.loc 1 343 0
	ld	[%fp+68], %g1
	ld	[%fp-4], %g2
#APP
! 343 "/home/ajit4/ajit-toolchain/AjitPublicResources/tools/ajit_access_routines_mt/src/ajit_access_routines.c" 1
	sta %g1, [%g2] 43
	
! 0 "" 2
	.loc 1 344 0
#NO_APP
	b	.L62
	 nop
.L76:
	.loc 1 346 0
	ld	[%fp+68], %g1
	ld	[%fp-4], %g2
#APP
! 346 "/home/ajit4/ajit-toolchain/AjitPublicResources/tools/ajit_access_routines_mt/src/ajit_access_routines.c" 1
	sta %g1, [%g2] 44
	
! 0 "" 2
	.loc 1 347 0
#NO_APP
	b	.L62
	 nop
.L77:
	.loc 1 349 0
	ld	[%fp+68], %g1
	ld	[%fp-4], %g2
#APP
! 349 "/home/ajit4/ajit-toolchain/AjitPublicResources/tools/ajit_access_routines_mt/src/ajit_access_routines.c" 1
	sta %g1, [%g2] 45
	
! 0 "" 2
	.loc 1 350 0
#NO_APP
	b	.L62
	 nop
.L78:
	.loc 1 352 0
	ld	[%fp+68], %g1
	ld	[%fp-4], %g2
#APP
! 352 "/home/ajit4/ajit-toolchain/AjitPublicResources/tools/ajit_access_routines_mt/src/ajit_access_routines.c" 1
	sta %g1, [%g2] 46
	
! 0 "" 2
	.loc 1 353 0
#NO_APP
	b	.L62
	 nop
.L79:
	.loc 1 355 0
	ld	[%fp+68], %g1
	ld	[%fp-4], %g2
#APP
! 355 "/home/ajit4/ajit-toolchain/AjitPublicResources/tools/ajit_access_routines_mt/src/ajit_access_routines.c" 1
	sta %g1, [%g2] 47
	
! 0 "" 2
	.loc 1 356 0
#NO_APP
	b	.L62
	 nop
.L82:
	.loc 1 358 0
	nop
.L62:
	.loc 1 361 0
	restore
	jmp	%o7+8
	 nop
	.align 4
	.subsection	-1
	.align 4
.L80:
	.word	.L64
	.word	.L65
	.word	.L66
	.word	.L67
	.word	.L68
	.word	.L69
	.word	.L70
	.word	.L71
	.word	.L72
	.word	.L73
	.word	.L74
	.word	.L75
	.word	.L76
	.word	.L77
	.word	.L78
	.word	.L79
	.previous
	.cfi_endproc
.LFE18:
	.size	__ajit_store_word_to_physical_address__, .-__ajit_store_word_to_physical_address__
	.align 4
	.global __ajit_load_word_from_physical_address__
	.type	__ajit_load_word_from_physical_address__, #function
	.proc	016
__ajit_load_word_from_physical_address__:
.LFB19:
	.loc 1 364 0
	.cfi_startproc
	save	%sp, -128, %sp
.LCFI19:
	.cfi_window_save
	.cfi_register 15, 31
	.cfi_def_cfa_register 30
	std	%i0, [%fp-32]
	.loc 1 365 0
	st	%g0, [%fp-4]
	.loc 1 366 0
	ld	[%fp-32], %g1
	srl	%g1, 0, %g3
	mov	0, %g2
	and	%g2, 0, %g2
	and	%g3, 15, %g3
	std	%g2, [%fp-16]
	.loc 1 367 0
	ld	[%fp-28], %g1
	st	%g1, [%fp-20]
	.loc 1 369 0
	ld	[%fp-12], %g1
	and	%g1, 15, %g1
	st	%g1, [%fp-24]
	.loc 1 370 0
	ld	[%fp-24], %g1
	cmp	%g1, 15
	bgu	.L104
	 nop
	ld	[%fp-24], %g1
	sll	%g1, 2, %g2
	sethi	%hi(.L101), %g1
	or	%g1, %lo(.L101), %g1
	ld	[%g2+%g1], %g1
	jmp	%g1
	 nop
	.section	".rodata"
	.section	".text"
.L85:
	.loc 1 374 0
	ld	[%fp-20], %g1
#APP
! 374 "/home/ajit4/ajit-toolchain/AjitPublicResources/tools/ajit_access_routines_mt/src/ajit_access_routines.c" 1
	lda [%g1] 32, %i5
	
! 0 "" 2
#NO_APP
	st	%i5, [%fp-4]
	.loc 1 375 0
	b	.L102
	 nop
.L86:
	.loc 1 377 0
	ld	[%fp-20], %g1
#APP
! 377 "/home/ajit4/ajit-toolchain/AjitPublicResources/tools/ajit_access_routines_mt/src/ajit_access_routines.c" 1
	lda [%g1] 33, %i5
	
! 0 "" 2
#NO_APP
	st	%i5, [%fp-4]
	.loc 1 378 0
	b	.L102
	 nop
.L87:
	.loc 1 380 0
	ld	[%fp-20], %g1
#APP
! 380 "/home/ajit4/ajit-toolchain/AjitPublicResources/tools/ajit_access_routines_mt/src/ajit_access_routines.c" 1
	lda [%g1] 34, %i5
	
! 0 "" 2
#NO_APP
	st	%i5, [%fp-4]
	.loc 1 381 0
	b	.L102
	 nop
.L88:
	.loc 1 383 0
	ld	[%fp-20], %g1
#APP
! 383 "/home/ajit4/ajit-toolchain/AjitPublicResources/tools/ajit_access_routines_mt/src/ajit_access_routines.c" 1
	lda [%g1] 35, %i5
	
! 0 "" 2
#NO_APP
	st	%i5, [%fp-4]
	.loc 1 384 0
	b	.L102
	 nop
.L89:
	.loc 1 386 0
	ld	[%fp-20], %g1
#APP
! 386 "/home/ajit4/ajit-toolchain/AjitPublicResources/tools/ajit_access_routines_mt/src/ajit_access_routines.c" 1
	lda [%g1] 36, %i5
	
! 0 "" 2
#NO_APP
	st	%i5, [%fp-4]
	.loc 1 387 0
	b	.L102
	 nop
.L90:
	.loc 1 389 0
	ld	[%fp-20], %g1
#APP
! 389 "/home/ajit4/ajit-toolchain/AjitPublicResources/tools/ajit_access_routines_mt/src/ajit_access_routines.c" 1
	lda [%g1] 37, %i5
	
! 0 "" 2
#NO_APP
	st	%i5, [%fp-4]
	.loc 1 390 0
	b	.L102
	 nop
.L91:
	.loc 1 392 0
	ld	[%fp-20], %g1
#APP
! 392 "/home/ajit4/ajit-toolchain/AjitPublicResources/tools/ajit_access_routines_mt/src/ajit_access_routines.c" 1
	lda [%g1] 38, %i5
	
! 0 "" 2
#NO_APP
	st	%i5, [%fp-4]
	.loc 1 393 0
	b	.L102
	 nop
.L92:
	.loc 1 395 0
	ld	[%fp-20], %g1
#APP
! 395 "/home/ajit4/ajit-toolchain/AjitPublicResources/tools/ajit_access_routines_mt/src/ajit_access_routines.c" 1
	lda [%g1] 39, %i5
	
! 0 "" 2
#NO_APP
	st	%i5, [%fp-4]
	.loc 1 396 0
	b	.L102
	 nop
.L93:
	.loc 1 398 0
	ld	[%fp-20], %g1
#APP
! 398 "/home/ajit4/ajit-toolchain/AjitPublicResources/tools/ajit_access_routines_mt/src/ajit_access_routines.c" 1
	lda [%g1] 40, %i5
	
! 0 "" 2
#NO_APP
	st	%i5, [%fp-4]
	.loc 1 399 0
	b	.L102
	 nop
.L94:
	.loc 1 401 0
	ld	[%fp-20], %g1
#APP
! 401 "/home/ajit4/ajit-toolchain/AjitPublicResources/tools/ajit_access_routines_mt/src/ajit_access_routines.c" 1
	lda [%g1] 41, %i5
	
! 0 "" 2
#NO_APP
	st	%i5, [%fp-4]
	.loc 1 402 0
	b	.L102
	 nop
.L95:
	.loc 1 404 0
	ld	[%fp-20], %g1
#APP
! 404 "/home/ajit4/ajit-toolchain/AjitPublicResources/tools/ajit_access_routines_mt/src/ajit_access_routines.c" 1
	lda [%g1] 42, %i5
	
! 0 "" 2
#NO_APP
	st	%i5, [%fp-4]
	.loc 1 405 0
	b	.L102
	 nop
.L96:
	.loc 1 407 0
	ld	[%fp-20], %g1
#APP
! 407 "/home/ajit4/ajit-toolchain/AjitPublicResources/tools/ajit_access_routines_mt/src/ajit_access_routines.c" 1
	lda [%g1] 43, %i5
	
! 0 "" 2
#NO_APP
	st	%i5, [%fp-4]
	.loc 1 408 0
	b	.L102
	 nop
.L97:
	.loc 1 410 0
	ld	[%fp-20], %g1
#APP
! 410 "/home/ajit4/ajit-toolchain/AjitPublicResources/tools/ajit_access_routines_mt/src/ajit_access_routines.c" 1
	lda [%g1] 44, %i5
	
! 0 "" 2
#NO_APP
	st	%i5, [%fp-4]
	.loc 1 411 0
	b	.L102
	 nop
.L98:
	.loc 1 413 0
	ld	[%fp-20], %g1
#APP
! 413 "/home/ajit4/ajit-toolchain/AjitPublicResources/tools/ajit_access_routines_mt/src/ajit_access_routines.c" 1
	lda [%g1] 45, %i5
	
! 0 "" 2
#NO_APP
	st	%i5, [%fp-4]
	.loc 1 414 0
	b	.L102
	 nop
.L99:
	.loc 1 416 0
	ld	[%fp-20], %g1
#APP
! 416 "/home/ajit4/ajit-toolchain/AjitPublicResources/tools/ajit_access_routines_mt/src/ajit_access_routines.c" 1
	lda [%g1] 46, %i5
	
! 0 "" 2
#NO_APP
	st	%i5, [%fp-4]
	.loc 1 417 0
	b	.L102
	 nop
.L100:
	.loc 1 419 0
	ld	[%fp-20], %g1
#APP
! 419 "/home/ajit4/ajit-toolchain/AjitPublicResources/tools/ajit_access_routines_mt/src/ajit_access_routines.c" 1
	lda [%g1] 47, %i5
	
! 0 "" 2
#NO_APP
	st	%i5, [%fp-4]
	.loc 1 420 0
	b	.L102
	 nop
.L104:
	.loc 1 422 0
	nop
.L102:
	.loc 1 425 0
	ld	[%fp-4], %g1
	.loc 1 426 0
	mov	%g1, %i0
	restore
	jmp	%o7+8
	 nop
	.align 4
	.subsection	-1
	.align 4
.L101:
	.word	.L85
	.word	.L86
	.word	.L87
	.word	.L88
	.word	.L89
	.word	.L90
	.word	.L91
	.word	.L92
	.word	.L93
	.word	.L94
	.word	.L95
	.word	.L96
	.word	.L97
	.word	.L98
	.word	.L99
	.word	.L100
	.previous
	.cfi_endproc
.LFE19:
	.size	__ajit_load_word_from_physical_address__, .-__ajit_load_word_from_physical_address__
	.align 4
	.global __ajit_load_word_mmu_reg__
	.type	__ajit_load_word_mmu_reg__, #function
	.proc	016
__ajit_load_word_mmu_reg__:
.LFB20:
	.loc 1 435 0
	.cfi_startproc
	save	%sp, -104, %sp
.LCFI20:
	.cfi_window_save
	.cfi_register 15, 31
	.cfi_def_cfa_register 30
	st	%i0, [%fp+68]
	.loc 1 437 0
	ld	[%fp+68], %g1
#APP
! 437 "/home/ajit4/ajit-toolchain/AjitPublicResources/tools/ajit_access_routines_mt/src/ajit_access_routines.c" 1
	lda [%g1] 4, %i5
	
! 0 "" 2
#NO_APP
	st	%i5, [%fp-4]
	.loc 1 439 0
	ld	[%fp-4], %g1
	.loc 1 440 0
	mov	%g1, %i0
	restore
	jmp	%o7+8
	 nop
	.cfi_endproc
.LFE20:
	.size	__ajit_load_word_mmu_reg__, .-__ajit_load_word_mmu_reg__
	.align 4
	.global __ajit_load_word_mmu_bypass__
	.type	__ajit_load_word_mmu_bypass__, #function
	.proc	016
__ajit_load_word_mmu_bypass__:
.LFB21:
	.loc 1 444 0
	.cfi_startproc
	save	%sp, -104, %sp
.LCFI21:
	.cfi_window_save
	.cfi_register 15, 31
	.cfi_def_cfa_register 30
	st	%i0, [%fp+68]
	.loc 1 446 0
	ld	[%fp+68], %g1
#APP
! 446 "/home/ajit4/ajit-toolchain/AjitPublicResources/tools/ajit_access_routines_mt/src/ajit_access_routines.c" 1
	lda [%g1] 32, %i5
	
! 0 "" 2
#NO_APP
	st	%i5, [%fp-4]
	.loc 1 448 0
	ld	[%fp-4], %g1
	.loc 1 449 0
	mov	%g1, %i0
	restore
	jmp	%o7+8
	 nop
	.cfi_endproc
.LFE21:
	.size	__ajit_load_word_mmu_bypass__, .-__ajit_load_word_mmu_bypass__
	.align 4
	.global __ajit_flush_icache__
	.type	__ajit_flush_icache__, #function
	.proc	020
__ajit_flush_icache__:
.LFB22:
	.loc 1 459 0
	.cfi_startproc
	save	%sp, -96, %sp
.LCFI22:
	.cfi_window_save
	.cfi_register 15, 31
	.cfi_def_cfa_register 30
	.loc 1 460 0
#APP
! 460 "/home/ajit4/ajit-toolchain/AjitPublicResources/tools/ajit_access_routines_mt/src/ajit_access_routines.c" 1
	 flush 
! 0 "" 2
	.loc 1 461 0
#NO_APP
	restore
	jmp	%o7+8
	 nop
	.cfi_endproc
.LFE22:
	.size	__ajit_flush_icache__, .-__ajit_flush_icache__
	.align 4
	.global __ajit_flush_dcache__
	.type	__ajit_flush_dcache__, #function
	.proc	020
__ajit_flush_dcache__:
.LFB23:
	.loc 1 468 0
	.cfi_startproc
	save	%sp, -96, %sp
.LCFI23:
	.cfi_window_save
	.cfi_register 15, 31
	.cfi_def_cfa_register 30
	.loc 1 469 0
#APP
! 469 "/home/ajit4/ajit-toolchain/AjitPublicResources/tools/ajit_access_routines_mt/src/ajit_access_routines.c" 1
	sta %g0, [%g0] 19
	
! 0 "" 2
	.loc 1 471 0
#NO_APP
	restore
	jmp	%o7+8
	 nop
	.cfi_endproc
.LFE23:
	.size	__ajit_flush_dcache__, .-__ajit_flush_dcache__
	.align 4
	.global __ajit_write_timer_control_register_via_bypass__
	.type	__ajit_write_timer_control_register_via_bypass__, #function
	.proc	020
__ajit_write_timer_control_register_via_bypass__:
.LFB24:
	.loc 1 484 0
	.cfi_startproc
	save	%sp, -104, %sp
.LCFI24:
	.cfi_window_save
	.cfi_register 15, 31
	.cfi_def_cfa_register 30
	st	%i0, [%fp+68]
	.loc 1 485 0
	sethi	%hi(-53248), %g1
	or	%g1, 256, %g1
	st	%g1, [%fp-4]
	.loc 1 486 0
	ld	[%fp+68], %o0
	ld	[%fp-4], %o1
	call	__ajit_store_word_mmu_bypass__, 0
	 nop
	.loc 1 488 0
	restore
	jmp	%o7+8
	 nop
	.cfi_endproc
.LFE24:
	.size	__ajit_write_timer_control_register_via_bypass__, .-__ajit_write_timer_control_register_via_bypass__
	.align 4
	.global __ajit_read_timer_control_register_via_bypass__
	.type	__ajit_read_timer_control_register_via_bypass__, #function
	.proc	016
__ajit_read_timer_control_register_via_bypass__:
.LFB25:
	.loc 1 491 0
	.cfi_startproc
	save	%sp, -104, %sp
.LCFI25:
	.cfi_window_save
	.cfi_register 15, 31
	.cfi_def_cfa_register 30
	.loc 1 492 0
	sethi	%hi(-53248), %g1
	or	%g1, 256, %o0
	call	__ajit_load_word_mmu_bypass__, 0
	 nop
	st	%o0, [%fp-4]
	.loc 1 493 0
	ld	[%fp-4], %g1
	.loc 1 494 0
	mov	%g1, %i0
	restore
	jmp	%o7+8
	 nop
	.cfi_endproc
.LFE25:
	.size	__ajit_read_timer_control_register_via_bypass__, .-__ajit_read_timer_control_register_via_bypass__
	.align 4
	.global __ajit_write_timer_control_register_via_vmap__
	.type	__ajit_write_timer_control_register_via_vmap__, #function
	.proc	020
__ajit_write_timer_control_register_via_vmap__:
.LFB26:
	.loc 1 497 0
	.cfi_startproc
	save	%sp, -96, %sp
.LCFI26:
	.cfi_window_save
	.cfi_register 15, 31
	.cfi_def_cfa_register 30
	st	%i0, [%fp+68]
	.loc 1 498 0
	sethi	%hi(-53248), %g1
	or	%g1, 256, %g1
	ld	[%fp+68], %g2
	st	%g2, [%g1]
	.loc 1 499 0
	restore
	jmp	%o7+8
	 nop
	.cfi_endproc
.LFE26:
	.size	__ajit_write_timer_control_register_via_vmap__, .-__ajit_write_timer_control_register_via_vmap__
	.align 4
	.global __ajit_read_timer_control_register_via_vmap__
	.type	__ajit_read_timer_control_register_via_vmap__, #function
	.proc	016
__ajit_read_timer_control_register_via_vmap__:
.LFB27:
	.loc 1 502 0
	.cfi_startproc
	save	%sp, -104, %sp
.LCFI27:
	.cfi_window_save
	.cfi_register 15, 31
	.cfi_def_cfa_register 30
	.loc 1 503 0
	sethi	%hi(-53248), %g1
	or	%g1, 256, %g1
	ld	[%g1], %g1
	st	%g1, [%fp-4]
	.loc 1 504 0
	ld	[%fp-4], %g1
	.loc 1 505 0
	mov	%g1, %i0
	restore
	jmp	%o7+8
	 nop
	.cfi_endproc
.LFE27:
	.size	__ajit_read_timer_control_register_via_vmap__, .-__ajit_read_timer_control_register_via_vmap__
	.align 4
	.global __ajit_write_serial_control_register_via_bypass__
	.type	__ajit_write_serial_control_register_via_bypass__, #function
	.proc	020
__ajit_write_serial_control_register_via_bypass__:
.LFB28:
	.loc 1 512 0
	.cfi_startproc
	save	%sp, -104, %sp
.LCFI28:
	.cfi_window_save
	.cfi_register 15, 31
	.cfi_def_cfa_register 30
	st	%i0, [%fp+68]
	.loc 1 513 0
	sethi	%hi(-53248), %g1
	or	%g1, 512, %g1
	st	%g1, [%fp-4]
	.loc 1 514 0
	ld	[%fp+68], %g1
	ld	[%fp-4], %g2
#APP
! 514 "/home/ajit4/ajit-toolchain/AjitPublicResources/tools/ajit_access_routines_mt/src/ajit_access_routines.c" 1
	sta %g1, [%g2] 32
	
! 0 "" 2
	.loc 1 515 0
#NO_APP
	restore
	jmp	%o7+8
	 nop
	.cfi_endproc
.LFE28:
	.size	__ajit_write_serial_control_register_via_bypass__, .-__ajit_write_serial_control_register_via_bypass__
	.align 4
	.global __ajit_read_serial_control_register_via_bypass__
	.type	__ajit_read_serial_control_register_via_bypass__, #function
	.proc	016
__ajit_read_serial_control_register_via_bypass__:
.LFB29:
	.loc 1 518 0
	.cfi_startproc
	save	%sp, -104, %sp
.LCFI29:
	.cfi_window_save
	.cfi_register 15, 31
	.cfi_def_cfa_register 30
	.loc 1 519 0
	sethi	%hi(-53248), %g1
	or	%g1, 512, %g1
	st	%g1, [%fp-4]
	.loc 1 520 0
	st	%g0, [%fp-8]
	.loc 1 521 0
	ld	[%fp-4], %g1
#APP
! 521 "/home/ajit4/ajit-toolchain/AjitPublicResources/tools/ajit_access_routines_mt/src/ajit_access_routines.c" 1
	lda [%g1] 32, %i5
	
! 0 "" 2
#NO_APP
	st	%i5, [%fp-8]
	.loc 1 522 0
	ld	[%fp-8], %g1
	.loc 1 523 0
	mov	%g1, %i0
	restore
	jmp	%o7+8
	 nop
	.cfi_endproc
.LFE29:
	.size	__ajit_read_serial_control_register_via_bypass__, .-__ajit_read_serial_control_register_via_bypass__
	.align 4
	.global __ajit_write_serial_tx_register_via_bypass__
	.type	__ajit_write_serial_tx_register_via_bypass__, #function
	.proc	020
__ajit_write_serial_tx_register_via_bypass__:
.LFB30:
	.loc 1 526 0
	.cfi_startproc
	save	%sp, -104, %sp
.LCFI30:
	.cfi_window_save
	.cfi_register 15, 31
	.cfi_def_cfa_register 30
	mov	%i0, %g1
	stb	%g1, [%fp+68]
	.loc 1 527 0
	sethi	%hi(-53248), %g1
	or	%g1, 516, %g1
	st	%g1, [%fp-4]
	.loc 1 528 0
	ldub	[%fp+68], %g1
	ld	[%fp-4], %g2
#APP
! 528 "/home/ajit4/ajit-toolchain/AjitPublicResources/tools/ajit_access_routines_mt/src/ajit_access_routines.c" 1
	stuba %g1, [%g2] 32
	
! 0 "" 2
	.loc 1 529 0
#NO_APP
	restore
	jmp	%o7+8
	 nop
	.cfi_endproc
.LFE30:
	.size	__ajit_write_serial_tx_register_via_bypass__, .-__ajit_write_serial_tx_register_via_bypass__
	.align 4
	.global __ajit_read_serial_tx_register_via_bypass__
	.type	__ajit_read_serial_tx_register_via_bypass__, #function
	.proc	014
__ajit_read_serial_tx_register_via_bypass__:
.LFB31:
	.loc 1 532 0
	.cfi_startproc
	save	%sp, -104, %sp
.LCFI31:
	.cfi_window_save
	.cfi_register 15, 31
	.cfi_def_cfa_register 30
	.loc 1 533 0
	sethi	%hi(-53248), %g1
	or	%g1, 516, %g1
	st	%g1, [%fp-4]
	.loc 1 534 0
	stb	%g0, [%fp-5]
	.loc 1 535 0
	ld	[%fp-4], %g1
#APP
! 535 "/home/ajit4/ajit-toolchain/AjitPublicResources/tools/ajit_access_routines_mt/src/ajit_access_routines.c" 1
	lduba [%g1] 32, %i5
	
! 0 "" 2
#NO_APP
	stb	%i5, [%fp-5]
	.loc 1 536 0
	ldub	[%fp-5], %g1
	and	%g1, 0xff, %g1
	.loc 1 537 0
	mov	%g1, %i0
	restore
	jmp	%o7+8
	 nop
	.cfi_endproc
.LFE31:
	.size	__ajit_read_serial_tx_register_via_bypass__, .-__ajit_read_serial_tx_register_via_bypass__
	.align 4
	.global __ajit_read_serial_rx_register_via_bypass__
	.type	__ajit_read_serial_rx_register_via_bypass__, #function
	.proc	014
__ajit_read_serial_rx_register_via_bypass__:
.LFB32:
	.loc 1 540 0
	.cfi_startproc
	save	%sp, -104, %sp
.LCFI32:
	.cfi_window_save
	.cfi_register 15, 31
	.cfi_def_cfa_register 30
	.loc 1 541 0
	sethi	%hi(-53248), %g1
	or	%g1, 520, %g1
	st	%g1, [%fp-4]
	.loc 1 542 0
	stb	%g0, [%fp-5]
	.loc 1 543 0
	ld	[%fp-4], %g1
#APP
! 543 "/home/ajit4/ajit-toolchain/AjitPublicResources/tools/ajit_access_routines_mt/src/ajit_access_routines.c" 1
	lduba [%g1] 32, %i5
	
! 0 "" 2
#NO_APP
	stb	%i5, [%fp-5]
	.loc 1 544 0
	ldub	[%fp-5], %g1
	and	%g1, 0xff, %g1
	.loc 1 545 0
	mov	%g1, %i0
	restore
	jmp	%o7+8
	 nop
	.cfi_endproc
.LFE32:
	.size	__ajit_read_serial_rx_register_via_bypass__, .-__ajit_read_serial_rx_register_via_bypass__
	.align 4
	.global __ajit_write_serial_baud_limit_register_via_bypass__
	.type	__ajit_write_serial_baud_limit_register_via_bypass__, #function
	.proc	020
__ajit_write_serial_baud_limit_register_via_bypass__:
.LFB33:
	.loc 1 548 0
	.cfi_startproc
	save	%sp, -96, %sp
.LCFI33:
	.cfi_window_save
	.cfi_register 15, 31
	.cfi_def_cfa_register 30
	st	%i0, [%fp+68]
	.loc 1 549 0
	ld	[%fp+68], %g1
	sethi	%hi(-53248), %g2
	or	%g2, 524, %g2
#APP
! 549 "/home/ajit4/ajit-toolchain/AjitPublicResources/tools/ajit_access_routines_mt/src/ajit_access_routines.c" 1
	sta %g1, [%g2] 32
	
! 0 "" 2
	.loc 1 550 0
#NO_APP
	restore
	jmp	%o7+8
	 nop
	.cfi_endproc
.LFE33:
	.size	__ajit_write_serial_baud_limit_register_via_bypass__, .-__ajit_write_serial_baud_limit_register_via_bypass__
	.align 4
	.global __ajit_read_serial_baud_limit_register_via_bypass__
	.type	__ajit_read_serial_baud_limit_register_via_bypass__, #function
	.proc	016
__ajit_read_serial_baud_limit_register_via_bypass__:
.LFB34:
	.loc 1 553 0
	.cfi_startproc
	save	%sp, -104, %sp
.LCFI34:
	.cfi_window_save
	.cfi_register 15, 31
	.cfi_def_cfa_register 30
	.loc 1 555 0
	sethi	%hi(-53248), %g1
	or	%g1, 524, %g1
#APP
! 555 "/home/ajit4/ajit-toolchain/AjitPublicResources/tools/ajit_access_routines_mt/src/ajit_access_routines.c" 1
	lda [%g1] 32, %i5
	
! 0 "" 2
#NO_APP
	st	%i5, [%fp-4]
	.loc 1 556 0
	ld	[%fp-4], %g1
	.loc 1 557 0
	mov	%g1, %i0
	restore
	jmp	%o7+8
	 nop
	.cfi_endproc
.LFE34:
	.size	__ajit_read_serial_baud_limit_register_via_bypass__, .-__ajit_read_serial_baud_limit_register_via_bypass__
	.align 4
	.global __ajit_write_serial_baud_frequency_register_via_bypass__
	.type	__ajit_write_serial_baud_frequency_register_via_bypass__, #function
	.proc	020
__ajit_write_serial_baud_frequency_register_via_bypass__:
.LFB35:
	.loc 1 561 0
	.cfi_startproc
	save	%sp, -96, %sp
.LCFI35:
	.cfi_window_save
	.cfi_register 15, 31
	.cfi_def_cfa_register 30
	st	%i0, [%fp+68]
	.loc 1 562 0
	ld	[%fp+68], %g1
	sethi	%hi(-53248), %g2
	or	%g2, 528, %g2
#APP
! 562 "/home/ajit4/ajit-toolchain/AjitPublicResources/tools/ajit_access_routines_mt/src/ajit_access_routines.c" 1
	sta %g1, [%g2] 32
	
! 0 "" 2
	.loc 1 563 0
#NO_APP
	restore
	jmp	%o7+8
	 nop
	.cfi_endproc
.LFE35:
	.size	__ajit_write_serial_baud_frequency_register_via_bypass__, .-__ajit_write_serial_baud_frequency_register_via_bypass__
	.align 4
	.global __ajit_read_serial_baud_frequency_register_via_bypass__
	.type	__ajit_read_serial_baud_frequency_register_via_bypass__, #function
	.proc	016
__ajit_read_serial_baud_frequency_register_via_bypass__:
.LFB36:
	.loc 1 566 0
	.cfi_startproc
	save	%sp, -104, %sp
.LCFI36:
	.cfi_window_save
	.cfi_register 15, 31
	.cfi_def_cfa_register 30
	.loc 1 568 0
	sethi	%hi(-53248), %g1
	or	%g1, 528, %g1
#APP
! 568 "/home/ajit4/ajit-toolchain/AjitPublicResources/tools/ajit_access_routines_mt/src/ajit_access_routines.c" 1
	lda [%g1] 32, %i5
	
! 0 "" 2
#NO_APP
	st	%i5, [%fp-4]
	.loc 1 569 0
	ld	[%fp-4], %g1
	.loc 1 570 0
	mov	%g1, %i0
	restore
	jmp	%o7+8
	 nop
	.cfi_endproc
.LFE36:
	.size	__ajit_read_serial_baud_frequency_register_via_bypass__, .-__ajit_read_serial_baud_frequency_register_via_bypass__
	.align 4
	.global __ajit_serial_configure_via_bypass__
	.type	__ajit_serial_configure_via_bypass__, #function
	.proc	020
__ajit_serial_configure_via_bypass__:
.LFB37:
	.loc 1 574 0
	.cfi_startproc
	save	%sp, -96, %sp
.LCFI37:
	.cfi_window_save
	.cfi_register 15, 31
	.cfi_def_cfa_register 30
	mov	%i0, %g3
	mov	%i1, %g2
	mov	%i2, %g1
	stb	%g3, [%fp+68]
	stb	%g2, [%fp+72]
	stb	%g1, [%fp+76]
	.loc 1 575 0
	ldub	[%fp+68], %g1
	and	%g1, 0xff, %g3
	ldub	[%fp+72], %g1
	and	%g1, 0xff, %g2
	ldub	[%fp+76], %g1
	and	%g1, 0xff, %g1
	mov	0, %o0
	mov	0, %o1
	mov	%g3, %o2
	mov	%g2, %o3
	mov	%g1, %o4
	call	__ajit_serial_configure_inner__, 0
	 nop
	.loc 1 576 0
	restore
	jmp	%o7+8
	 nop
	.cfi_endproc
.LFE37:
	.size	__ajit_serial_configure_via_bypass__, .-__ajit_serial_configure_via_bypass__
	.align 4
	.global __ajit_serial_set_baudrate_via_bypass__
	.type	__ajit_serial_set_baudrate_via_bypass__, #function
	.proc	020
__ajit_serial_set_baudrate_via_bypass__:
.LFB38:
	.loc 1 579 0
	.cfi_startproc
	save	%sp, -96, %sp
.LCFI38:
	.cfi_window_save
	.cfi_register 15, 31
	.cfi_def_cfa_register 30
	st	%i0, [%fp+68]
	st	%i1, [%fp+72]
	.loc 1 580 0
	mov	0, %o0
	mov	0, %o1
	ld	[%fp+68], %o2
	ld	[%fp+72], %o3
	call	__ajit_serial_set_baudrate_inner__, 0
	 nop
	.loc 1 581 0
	restore
	jmp	%o7+8
	 nop
	.cfi_endproc
.LFE38:
	.size	__ajit_serial_set_baudrate_via_bypass__, .-__ajit_serial_set_baudrate_via_bypass__
	.align 4
	.global __ajit_serial_set_uart_reset_via_bypass__
	.type	__ajit_serial_set_uart_reset_via_bypass__, #function
	.proc	020
__ajit_serial_set_uart_reset_via_bypass__:
.LFB39:
	.loc 1 584 0
	.cfi_startproc
	save	%sp, -96, %sp
.LCFI39:
	.cfi_window_save
	.cfi_register 15, 31
	.cfi_def_cfa_register 30
	mov	%i0, %g1
	stb	%g1, [%fp+68]
	.loc 1 585 0
	ldub	[%fp+68], %g1
	and	%g1, 0xff, %g1
	mov	0, %o0
	mov	0, %o1
	mov	%g1, %o2
	call	__ajit_serial_set_uart_reset_inner__, 0
	 nop
	.loc 1 586 0
	restore
	jmp	%o7+8
	 nop
	.cfi_endproc
.LFE39:
	.size	__ajit_serial_set_uart_reset_via_bypass__, .-__ajit_serial_set_uart_reset_via_bypass__
	.align 4
	.global __ajit_serial_putchar_via_bypass__
	.type	__ajit_serial_putchar_via_bypass__, #function
	.proc	04
__ajit_serial_putchar_via_bypass__:
.LFB40:
	.loc 1 590 0
	.cfi_startproc
	save	%sp, -96, %sp
.LCFI40:
	.cfi_window_save
	.cfi_register 15, 31
	.cfi_def_cfa_register 30
	mov	%i0, %g1
	stb	%g1, [%fp+68]
	.loc 1 591 0
	ldub	[%fp+68], %g1
	sll	%g1, 24, %g1
	sra	%g1, 24, %g1
	mov	0, %o0
	mov	0, %o1
	mov	%g1, %o2
	call	__ajit_serial_putchar_inner__, 0
	 nop
	mov	%o0, %g1
	.loc 1 592 0
	mov	%g1, %i0
	restore
	jmp	%o7+8
	 nop
	.cfi_endproc
.LFE40:
	.size	__ajit_serial_putchar_via_bypass__, .-__ajit_serial_putchar_via_bypass__
	.align 4
	.global __ajit_serial_getchar_via_bypass__
	.type	__ajit_serial_getchar_via_bypass__, #function
	.proc	04
__ajit_serial_getchar_via_bypass__:
.LFB41:
	.loc 1 599 0
	.cfi_startproc
	save	%sp, -104, %sp
.LCFI41:
	.cfi_window_save
	.cfi_register 15, 31
	.cfi_def_cfa_register 30
	.loc 1 600 0
	st	%g0, [%fp-4]
	.loc 1 603 0
	b	.L137
	 nop
.L138:
	.loc 1 604 0
	add	%fp, -5, %g1
	mov	0, %o0
	mov	0, %o1
	mov	%g1, %o2
	call	__ajit_serial_getchar_inner__, 0
	 nop
	st	%o0, [%fp-4]
.L137:
	.loc 1 603 0 discriminator 1
	ld	[%fp-4], %g1
	cmp	%g1, 0
	be	.L138
	 nop
	.loc 1 606 0
	ldub	[%fp-5], %g1
	sll	%g1, 24, %g1
	sra	%g1, 24, %g1
	.loc 1 607 0
	mov	%g1, %i0
	restore
	jmp	%o7+8
	 nop
	.cfi_endproc
.LFE41:
	.size	__ajit_serial_getchar_via_bypass__, .-__ajit_serial_getchar_via_bypass__
	.align 4
	.global __ajit_serial_puts_via_bypass__
	.type	__ajit_serial_puts_via_bypass__, #function
	.proc	020
__ajit_serial_puts_via_bypass__:
.LFB42:
	.loc 1 610 0
	.cfi_startproc
	save	%sp, -96, %sp
.LCFI42:
	.cfi_window_save
	.cfi_register 15, 31
	.cfi_def_cfa_register 30
	st	%i0, [%fp+68]
	st	%i1, [%fp+72]
	.loc 1 611 0
	mov	0, %o0
	mov	0, %o1
	ld	[%fp+68], %o2
	ld	[%fp+72], %o3
	call	__ajit_serial_puts_inner__, 0
	 nop
	.loc 1 612 0
	restore
	jmp	%o7+8
	 nop
	.cfi_endproc
.LFE42:
	.size	__ajit_serial_puts_via_bypass__, .-__ajit_serial_puts_via_bypass__
	.align 4
	.global __ajit_serial_gets_via_bypass__
	.type	__ajit_serial_gets_via_bypass__, #function
	.proc	020
__ajit_serial_gets_via_bypass__:
.LFB43:
	.loc 1 617 0
	.cfi_startproc
	save	%sp, -96, %sp
.LCFI43:
	.cfi_window_save
	.cfi_register 15, 31
	.cfi_def_cfa_register 30
	st	%i0, [%fp+68]
	st	%i1, [%fp+72]
	.loc 1 618 0
	mov	0, %o0
	mov	0, %o1
	ld	[%fp+68], %o2
	ld	[%fp+72], %o3
	call	__ajit_serial_gets_inner__, 0
	 nop
	.loc 1 619 0
	restore
	jmp	%o7+8
	 nop
	.cfi_endproc
.LFE43:
	.size	__ajit_serial_gets_via_bypass__, .-__ajit_serial_gets_via_bypass__
	.align 4
	.global __ajit_write_serial_control_register_via_vmap__
	.type	__ajit_write_serial_control_register_via_vmap__, #function
	.proc	020
__ajit_write_serial_control_register_via_vmap__:
.LFB44:
	.loc 1 626 0
	.cfi_startproc
	save	%sp, -96, %sp
.LCFI44:
	.cfi_window_save
	.cfi_register 15, 31
	.cfi_def_cfa_register 30
	st	%i0, [%fp+68]
	.loc 1 627 0
	sethi	%hi(-53248), %g1
	or	%g1, 512, %g1
	ld	[%fp+68], %g2
	st	%g2, [%g1]
	.loc 1 628 0
	restore
	jmp	%o7+8
	 nop
	.cfi_endproc
.LFE44:
	.size	__ajit_write_serial_control_register_via_vmap__, .-__ajit_write_serial_control_register_via_vmap__
	.align 4
	.global __ajit_read_serial_control_register_via_vmap__
	.type	__ajit_read_serial_control_register_via_vmap__, #function
	.proc	016
__ajit_read_serial_control_register_via_vmap__:
.LFB45:
	.loc 1 631 0
	.cfi_startproc
	save	%sp, -104, %sp
.LCFI45:
	.cfi_window_save
	.cfi_register 15, 31
	.cfi_def_cfa_register 30
	.loc 1 632 0
	sethi	%hi(-53248), %g1
	or	%g1, 512, %g1
	ldub	[%g1], %g1
	and	%g1, 0xff, %g1
	st	%g1, [%fp-4]
	.loc 1 633 0
	ld	[%fp-4], %g1
	.loc 1 634 0
	mov	%g1, %i0
	restore
	jmp	%o7+8
	 nop
	.cfi_endproc
.LFE45:
	.size	__ajit_read_serial_control_register_via_vmap__, .-__ajit_read_serial_control_register_via_vmap__
	.align 4
	.global __ajit_write_serial_tx_register_via_vmap__
	.type	__ajit_write_serial_tx_register_via_vmap__, #function
	.proc	020
__ajit_write_serial_tx_register_via_vmap__:
.LFB46:
	.loc 1 636 0
	.cfi_startproc
	save	%sp, -96, %sp
.LCFI46:
	.cfi_window_save
	.cfi_register 15, 31
	.cfi_def_cfa_register 30
	mov	%i0, %g1
	stb	%g1, [%fp+68]
	.loc 1 637 0
	sethi	%hi(-53248), %g1
	or	%g1, 516, %g1
	ldub	[%fp+68], %g2
	stb	%g2, [%g1]
	.loc 1 638 0
	restore
	jmp	%o7+8
	 nop
	.cfi_endproc
.LFE46:
	.size	__ajit_write_serial_tx_register_via_vmap__, .-__ajit_write_serial_tx_register_via_vmap__
	.align 4
	.global __ajit_read_serial_tx_register_via_vmap__
	.type	__ajit_read_serial_tx_register_via_vmap__, #function
	.proc	014
__ajit_read_serial_tx_register_via_vmap__:
.LFB47:
	.loc 1 640 0
	.cfi_startproc
	save	%sp, -104, %sp
.LCFI47:
	.cfi_window_save
	.cfi_register 15, 31
	.cfi_def_cfa_register 30
	.loc 1 641 0
	sethi	%hi(-53248), %g1
	or	%g1, 516, %g1
	ldub	[%g1], %g1
	stb	%g1, [%fp-1]
	.loc 1 642 0
	ldub	[%fp-1], %g1
	and	%g1, 0xff, %g1
	.loc 1 643 0
	mov	%g1, %i0
	restore
	jmp	%o7+8
	 nop
	.cfi_endproc
.LFE47:
	.size	__ajit_read_serial_tx_register_via_vmap__, .-__ajit_read_serial_tx_register_via_vmap__
	.align 4
	.global __ajit_read_serial_rx_register_via_vmap__
	.type	__ajit_read_serial_rx_register_via_vmap__, #function
	.proc	014
__ajit_read_serial_rx_register_via_vmap__:
.LFB48:
	.loc 1 645 0
	.cfi_startproc
	save	%sp, -104, %sp
.LCFI48:
	.cfi_window_save
	.cfi_register 15, 31
	.cfi_def_cfa_register 30
	.loc 1 646 0
	sethi	%hi(-53248), %g1
	or	%g1, 520, %g1
	ldub	[%g1], %g1
	stb	%g1, [%fp-1]
	.loc 1 647 0
	ldub	[%fp-1], %g1
	and	%g1, 0xff, %g1
	.loc 1 648 0
	mov	%g1, %i0
	restore
	jmp	%o7+8
	 nop
	.cfi_endproc
.LFE48:
	.size	__ajit_read_serial_rx_register_via_vmap__, .-__ajit_read_serial_rx_register_via_vmap__
	.align 4
	.global __ajit_serial_putchar_via_vmap__
	.type	__ajit_serial_putchar_via_vmap__, #function
	.proc	04
__ajit_serial_putchar_via_vmap__:
.LFB49:
	.loc 1 654 0
	.cfi_startproc
	save	%sp, -96, %sp
.LCFI49:
	.cfi_window_save
	.cfi_register 15, 31
	.cfi_def_cfa_register 30
	mov	%i0, %g1
	stb	%g1, [%fp+68]
	.loc 1 655 0
	ldub	[%fp+68], %g1
	sll	%g1, 24, %g1
	sra	%g1, 24, %g1
	mov	1, %o0
	mov	0, %o1
	mov	%g1, %o2
	call	__ajit_serial_putchar_inner__, 0
	 nop
	mov	%o0, %g1
	.loc 1 656 0
	mov	%g1, %i0
	restore
	jmp	%o7+8
	 nop
	.cfi_endproc
.LFE49:
	.size	__ajit_serial_putchar_via_vmap__, .-__ajit_serial_putchar_via_vmap__
	.align 4
	.global __ajit_serial_getchar_via_vmap__
	.type	__ajit_serial_getchar_via_vmap__, #function
	.proc	04
__ajit_serial_getchar_via_vmap__:
.LFB50:
	.loc 1 660 0
	.cfi_startproc
	save	%sp, -104, %sp
.LCFI50:
	.cfi_window_save
	.cfi_register 15, 31
	.cfi_def_cfa_register 30
	.loc 1 661 0
	st	%g0, [%fp-4]
	.loc 1 664 0
	b	.L153
	 nop
.L154:
	.loc 1 665 0
	add	%fp, -5, %g1
	mov	1, %o0
	mov	0, %o1
	mov	%g1, %o2
	call	__ajit_serial_getchar_inner__, 0
	 nop
	st	%o0, [%fp-4]
.L153:
	.loc 1 664 0 discriminator 1
	ld	[%fp-4], %g1
	cmp	%g1, 0
	be	.L154
	 nop
	.loc 1 667 0
	ldub	[%fp-5], %g1
	sll	%g1, 24, %g1
	sra	%g1, 24, %g1
	.loc 1 668 0
	mov	%g1, %i0
	restore
	jmp	%o7+8
	 nop
	.cfi_endproc
.LFE50:
	.size	__ajit_serial_getchar_via_vmap__, .-__ajit_serial_getchar_via_vmap__
	.align 4
	.global __ajit_serial_puts_via_vmap__
	.type	__ajit_serial_puts_via_vmap__, #function
	.proc	020
__ajit_serial_puts_via_vmap__:
.LFB51:
	.loc 1 672 0
	.cfi_startproc
	save	%sp, -96, %sp
.LCFI51:
	.cfi_window_save
	.cfi_register 15, 31
	.cfi_def_cfa_register 30
	st	%i0, [%fp+68]
	st	%i1, [%fp+72]
	.loc 1 673 0
	mov	1, %o0
	mov	0, %o1
	ld	[%fp+68], %o2
	ld	[%fp+72], %o3
	call	__ajit_serial_puts_inner__, 0
	 nop
	.loc 1 674 0
	restore
	jmp	%o7+8
	 nop
	.cfi_endproc
.LFE51:
	.size	__ajit_serial_puts_via_vmap__, .-__ajit_serial_puts_via_vmap__
	.align 4
	.global __ajit_serial_gets_via_vmap__
	.type	__ajit_serial_gets_via_vmap__, #function
	.proc	020
__ajit_serial_gets_via_vmap__:
.LFB52:
	.loc 1 679 0
	.cfi_startproc
	save	%sp, -96, %sp
.LCFI52:
	.cfi_window_save
	.cfi_register 15, 31
	.cfi_def_cfa_register 30
	st	%i0, [%fp+68]
	st	%i1, [%fp+72]
	.loc 1 680 0
	mov	1, %o0
	mov	0, %o1
	ld	[%fp+68], %o2
	ld	[%fp+72], %o3
	call	__ajit_serial_gets_inner__, 0
	 nop
	.loc 1 681 0
	restore
	jmp	%o7+8
	 nop
	.cfi_endproc
.LFE52:
	.size	__ajit_serial_gets_via_vmap__, .-__ajit_serial_gets_via_vmap__
	.align 4
	.global __ajit_serial_configure_via_vmap__
	.type	__ajit_serial_configure_via_vmap__, #function
	.proc	020
__ajit_serial_configure_via_vmap__:
.LFB53:
	.loc 1 684 0
	.cfi_startproc
	save	%sp, -96, %sp
.LCFI53:
	.cfi_window_save
	.cfi_register 15, 31
	.cfi_def_cfa_register 30
	mov	%i0, %g3
	mov	%i1, %g2
	mov	%i2, %g1
	stb	%g3, [%fp+68]
	stb	%g2, [%fp+72]
	stb	%g1, [%fp+76]
	.loc 1 685 0
	ldub	[%fp+68], %g1
	and	%g1, 0xff, %g3
	ldub	[%fp+72], %g1
	and	%g1, 0xff, %g2
	ldub	[%fp+76], %g1
	and	%g1, 0xff, %g1
	mov	1, %o0
	mov	0, %o1
	mov	%g3, %o2
	mov	%g2, %o3
	mov	%g1, %o4
	call	__ajit_serial_configure_inner__, 0
	 nop
	.loc 1 686 0
	restore
	jmp	%o7+8
	 nop
	.cfi_endproc
.LFE53:
	.size	__ajit_serial_configure_via_vmap__, .-__ajit_serial_configure_via_vmap__
	.align 4
	.global __ajit_serial_set_uart_reset_via_vmap__
	.type	__ajit_serial_set_uart_reset_via_vmap__, #function
	.proc	020
__ajit_serial_set_uart_reset_via_vmap__:
.LFB54:
	.loc 1 689 0
	.cfi_startproc
	save	%sp, -96, %sp
.LCFI54:
	.cfi_window_save
	.cfi_register 15, 31
	.cfi_def_cfa_register 30
	mov	%i0, %g1
	stb	%g1, [%fp+68]
	.loc 1 690 0
	ldub	[%fp+68], %g1
	and	%g1, 0xff, %g1
	mov	1, %o0
	mov	0, %o1
	mov	%g1, %o2
	call	__ajit_serial_set_uart_reset_inner__, 0
	 nop
	.loc 1 691 0
	restore
	jmp	%o7+8
	 nop
	.cfi_endproc
.LFE54:
	.size	__ajit_serial_set_uart_reset_via_vmap__, .-__ajit_serial_set_uart_reset_via_vmap__
	.align 4
	.global __ajit_serial_set_baudrate_via_vmap__
	.type	__ajit_serial_set_baudrate_via_vmap__, #function
	.proc	020
__ajit_serial_set_baudrate_via_vmap__:
.LFB55:
	.loc 1 694 0
	.cfi_startproc
	save	%sp, -96, %sp
.LCFI55:
	.cfi_window_save
	.cfi_register 15, 31
	.cfi_def_cfa_register 30
	st	%i0, [%fp+68]
	st	%i1, [%fp+72]
	.loc 1 695 0
	mov	1, %o0
	mov	0, %o1
	ld	[%fp+68], %o2
	ld	[%fp+72], %o3
	call	__ajit_serial_set_baudrate_inner__, 0
	 nop
	.loc 1 696 0
	restore
	jmp	%o7+8
	 nop
	.cfi_endproc
.LFE55:
	.size	__ajit_serial_set_baudrate_via_vmap__, .-__ajit_serial_set_baudrate_via_vmap__
	.align 4
	.global __ajit_read_serial_baud_limit_register_via_vmap__
	.type	__ajit_read_serial_baud_limit_register_via_vmap__, #function
	.proc	016
__ajit_read_serial_baud_limit_register_via_vmap__:
.LFB56:
	.loc 1 699 0
	.cfi_startproc
	save	%sp, -104, %sp
.LCFI56:
	.cfi_window_save
	.cfi_register 15, 31
	.cfi_def_cfa_register 30
	.loc 1 700 0
	sethi	%hi(-53248), %g1
	or	%g1, 524, %g1
	ld	[%g1], %g1
	st	%g1, [%fp-4]
	.loc 1 701 0
	ld	[%fp-4], %g1
	.loc 1 702 0
	mov	%g1, %i0
	restore
	jmp	%o7+8
	 nop
	.cfi_endproc
.LFE56:
	.size	__ajit_read_serial_baud_limit_register_via_vmap__, .-__ajit_read_serial_baud_limit_register_via_vmap__
	.align 4
	.global __ajit_write_serial_baud_limit_register_via_vmap__
	.type	__ajit_write_serial_baud_limit_register_via_vmap__, #function
	.proc	020
__ajit_write_serial_baud_limit_register_via_vmap__:
.LFB57:
	.loc 1 704 0
	.cfi_startproc
	save	%sp, -96, %sp
.LCFI57:
	.cfi_window_save
	.cfi_register 15, 31
	.cfi_def_cfa_register 30
	st	%i0, [%fp+68]
	.loc 1 705 0
	sethi	%hi(-53248), %g1
	or	%g1, 524, %g1
	ld	[%fp+68], %g2
	st	%g2, [%g1]
	.loc 1 706 0
	restore
	jmp	%o7+8
	 nop
	.cfi_endproc
.LFE57:
	.size	__ajit_write_serial_baud_limit_register_via_vmap__, .-__ajit_write_serial_baud_limit_register_via_vmap__
	.align 4
	.global __ajit_read_serial_baud_frequency_register_via_vmap__
	.type	__ajit_read_serial_baud_frequency_register_via_vmap__, #function
	.proc	016
__ajit_read_serial_baud_frequency_register_via_vmap__:
.LFB58:
	.loc 1 709 0
	.cfi_startproc
	save	%sp, -104, %sp
.LCFI58:
	.cfi_window_save
	.cfi_register 15, 31
	.cfi_def_cfa_register 30
	.loc 1 710 0
	sethi	%hi(-53248), %g1
	or	%g1, 528, %g1
	ld	[%g1], %g1
	st	%g1, [%fp-4]
	.loc 1 711 0
	ld	[%fp-4], %g1
	.loc 1 712 0
	mov	%g1, %i0
	restore
	jmp	%o7+8
	 nop
	.cfi_endproc
.LFE58:
	.size	__ajit_read_serial_baud_frequency_register_via_vmap__, .-__ajit_read_serial_baud_frequency_register_via_vmap__
	.align 4
	.global __ajit_write_serial_baud_frequency_register_via_vmap__
	.type	__ajit_write_serial_baud_frequency_register_via_vmap__, #function
	.proc	020
__ajit_write_serial_baud_frequency_register_via_vmap__:
.LFB59:
	.loc 1 714 0
	.cfi_startproc
	save	%sp, -96, %sp
.LCFI59:
	.cfi_window_save
	.cfi_register 15, 31
	.cfi_def_cfa_register 30
	st	%i0, [%fp+68]
	.loc 1 715 0
	sethi	%hi(-53248), %g1
	or	%g1, 528, %g1
	ld	[%fp+68], %g2
	st	%g2, [%g1]
	.loc 1 716 0
	restore
	jmp	%o7+8
	 nop
	.cfi_endproc
.LFE59:
	.size	__ajit_write_serial_baud_frequency_register_via_vmap__, .-__ajit_write_serial_baud_frequency_register_via_vmap__
	.align 4
	.global calculate_baud_control_values_for_uart
	.type	calculate_baud_control_values_for_uart, #function
	.proc	020
calculate_baud_control_values_for_uart:
.LFB60:
	.loc 1 728 0
	.cfi_startproc
	save	%sp, -112, %sp
.LCFI60:
	.cfi_window_save
	.cfi_register 15, 31
	.cfi_def_cfa_register 30
	st	%i0, [%fp+68]
	st	%i1, [%fp+72]
	st	%i2, [%fp+76]
	st	%i3, [%fp+80]
	.loc 1 729 0
	ld	[%fp+76], %g1
	st	%g0, [%g1]
	.loc 1 730 0
	ld	[%fp+80], %g1
	st	%g0, [%g1]
	.loc 1 733 0
	ld	[%fp+68], %g1
	sll	%g1, 4, %g1
	st	%g1, [%fp-4]
	.loc 1 734 0
	ld	[%fp+72], %g1
	st	%g1, [%fp-8]
	.loc 1 736 0
	ld	[%fp-4], %g1
	cmp	%g1, 0
	be	.L167
	 nop
	.loc 1 736 0 is_stmt 0 discriminator 1
	ld	[%fp-4], %g2
	ld	[%fp-8], %g1
	cmp	%g2, %g1
	bgeu	.L167
	 nop
	b	.L171
	 nop
.L172:
	.loc 1 746 0 is_stmt 1
	nop
.L171:
.LBB4:
	.loc 1 740 0
	ld	[%fp-8], %g1
	wr	%g0, 0, %y
	ld	[%fp-4], %g3
	nop
	nop
	udiv	%g1, %g3, %g3
	ld	[%fp-4], %g2
	smul	%g3, %g2, %g2
	sub	%g1, %g2, %g1
	st	%g1, [%fp-12]
	.loc 1 741 0
	ld	[%fp-4], %g1
	st	%g1, [%fp-8]
	.loc 1 742 0
	ld	[%fp-12], %g1
	st	%g1, [%fp-4]
	.loc 1 744 0
	ld	[%fp-12], %g1
	cmp	%g1, 0
	bne	.L172
	 nop
	.loc 1 745 0
	nop
.LBE4:
	.loc 1 749 0
	ld	[%fp+68], %g1
	sll	%g1, 4, %g1
	wr	%g0, 0, %y
	ld	[%fp-8], %g2
	nop
	nop
	udiv	%g1, %g2, %g2
	ld	[%fp+80], %g1
	st	%g2, [%g1]
	.loc 1 750 0
	ld	[%fp+72], %g1
	wr	%g0, 0, %y
	ld	[%fp-8], %g2
	nop
	nop
	udiv	%g1, %g2, %g2
	ld	[%fp+80], %g1
	ld	[%g1], %g1
	sub	%g2, %g1, %g2
	ld	[%fp+76], %g1
	st	%g2, [%g1]
.L167:
	.loc 1 753 0
	restore
	jmp	%o7+8
	 nop
	.cfi_endproc
.LFE60:
	.size	calculate_baud_control_values_for_uart, .-calculate_baud_control_values_for_uart
	.align 4
	.global __ajit_serial_configure_inner__
	.type	__ajit_serial_configure_inner__, #function
	.proc	020
__ajit_serial_configure_inner__:
.LFB61:
	.loc 1 757 0
	.cfi_startproc
	save	%sp, -104, %sp
.LCFI61:
	.cfi_window_save
	.cfi_register 15, 31
	.cfi_def_cfa_register 30
	mov	%i0, %g4
	st	%i1, [%fp+72]
	mov	%i2, %g3
	mov	%i3, %g2
	mov	%i4, %g1
	stb	%g4, [%fp+68]
	stb	%g3, [%fp+76]
	stb	%g2, [%fp+80]
	stb	%g1, [%fp+84]
	.loc 1 758 0
	st	%g0, [%fp-4]
	.loc 1 759 0
	ld	[%fp+72], %g1
	cmp	%g1, 0
	bne	.L174
	 nop
	.loc 1 759 0 is_stmt 0 discriminator 1
	sethi	%hi(-53248), %g1
	or	%g1, 512, %g1
	b	.L175
	 nop
.L174:
	.loc 1 759 0 discriminator 2
	sethi	%hi(-53248), %g1
	or	%g1, 576, %g1
.L175:
	.loc 1 759 0 discriminator 3
	st	%g1, [%fp-8]
	.loc 1 762 0 is_stmt 1 discriminator 3
	ldub	[%fp+68], %g1
	and	%g1, 0xff, %g1
	cmp	%g1, 0
	be	.L176
	 nop
	.loc 1 763 0
	ld	[%fp-8], %g1
	ld	[%g1], %g1
	st	%g1, [%fp-4]
	b	.L177
	 nop
.L176:
	.loc 1 765 0
	ld	[%fp-8], %g1
#APP
! 765 "/home/ajit4/ajit-toolchain/AjitPublicResources/tools/ajit_access_routines_mt/src/ajit_access_routines.c" 1
	lda [%g1] 32, %i5
	
! 0 "" 2
#NO_APP
	st	%i5, [%fp-4]
.L177:
	.loc 1 768 0
	ldub	[%fp+76], %g1
	and	%g1, 0xff, %g1
	cmp	%g1, 0
	be	.L178
	 nop
	.loc 1 770 0
	ld	[%fp-4], %g1
	or	%g1, 1, %g1
	st	%g1, [%fp-4]
	b	.L179
	 nop
.L178:
	.loc 1 774 0
	ld	[%fp-4], %g1
	and	%g1, -2, %g1
	st	%g1, [%fp-4]
.L179:
	.loc 1 777 0
	ldub	[%fp+80], %g1
	and	%g1, 0xff, %g1
	cmp	%g1, 0
	be	.L180
	 nop
	.loc 1 779 0
	ld	[%fp-4], %g1
	or	%g1, 2, %g1
	st	%g1, [%fp-4]
	b	.L181
	 nop
.L180:
	.loc 1 783 0
	ld	[%fp-4], %g1
	and	%g1, -3, %g1
	st	%g1, [%fp-4]
.L181:
	.loc 1 786 0
	ldub	[%fp+84], %g1
	and	%g1, 0xff, %g1
	cmp	%g1, 0
	be	.L182
	 nop
	.loc 1 788 0
	ld	[%fp-4], %g1
	or	%g1, 4, %g1
	st	%g1, [%fp-4]
	b	.L183
	 nop
.L182:
	.loc 1 792 0
	ld	[%fp-4], %g1
	and	%g1, -5, %g1
	st	%g1, [%fp-4]
.L183:
	.loc 1 794 0
	ldub	[%fp+68], %g1
	and	%g1, 0xff, %g1
	cmp	%g1, 0
	be	.L184
	 nop
	.loc 1 795 0
	ld	[%fp-8], %g1
	ld	[%fp-4], %g2
	st	%g2, [%g1]
	b	.L173
	 nop
.L184:
	.loc 1 797 0
	ld	[%fp-4], %g1
	ld	[%fp-8], %g2
#APP
! 797 "/home/ajit4/ajit-toolchain/AjitPublicResources/tools/ajit_access_routines_mt/src/ajit_access_routines.c" 1
	sta %g1, [%g2] 32
	
! 0 "" 2
#NO_APP
.L173:
	.loc 1 799 0
	restore
	jmp	%o7+8
	 nop
	.cfi_endproc
.LFE61:
	.size	__ajit_serial_configure_inner__, .-__ajit_serial_configure_inner__
	.align 4
	.global __ajit_serial_set_baudrate_inner__
	.type	__ajit_serial_set_baudrate_inner__, #function
	.proc	020
__ajit_serial_set_baudrate_inner__:
.LFB62:
	.loc 1 804 0
	.cfi_startproc
	save	%sp, -112, %sp
.LCFI62:
	.cfi_window_save
	.cfi_register 15, 31
	.cfi_def_cfa_register 30
	mov	%i0, %g1
	st	%i1, [%fp+72]
	st	%i2, [%fp+76]
	st	%i3, [%fp+80]
	stb	%g1, [%fp+68]
	.loc 1 806 0
	add	%fp, -12, %g2
	add	%fp, -16, %g1
	ld	[%fp+76], %o0
	ld	[%fp+80], %o1
	mov	%g2, %o2
	mov	%g1, %o3
	call	calculate_baud_control_values_for_uart, 0
	 nop
	.loc 1 811 0
	ld	[%fp+72], %g1
	cmp	%g1, 0
	bne	.L187
	 nop
	.loc 1 811 0 is_stmt 0 discriminator 1
	sethi	%hi(-53248), %g1
	or	%g1, 524, %g1
	b	.L188
	 nop
.L187:
	.loc 1 811 0 discriminator 2
	sethi	%hi(-53248), %g1
	or	%g1, 588, %g1
.L188:
	.loc 1 809 0 is_stmt 1
	st	%g1, [%fp-4]
	.loc 1 816 0
	ld	[%fp+72], %g1
	cmp	%g1, 0
	bne	.L189
	 nop
	.loc 1 816 0 is_stmt 0 discriminator 1
	sethi	%hi(-53248), %g1
	or	%g1, 528, %g1
	b	.L190
	 nop
.L189:
	.loc 1 816 0 discriminator 2
	sethi	%hi(-53248), %g1
	or	%g1, 592, %g1
.L190:
	.loc 1 814 0 is_stmt 1
	st	%g1, [%fp-8]
	.loc 1 820 0
	ldub	[%fp+68], %g1
	and	%g1, 0xff, %g1
	cmp	%g1, 0
	be	.L191
	 nop
	.loc 1 822 0
	ld	[%fp-4], %g1
	ld	[%fp-12], %g2
	st	%g2, [%g1]
	.loc 1 823 0
	ld	[%fp-8], %g1
	ld	[%fp-16], %g2
	st	%g2, [%g1]
	b	.L186
	 nop
.L191:
	.loc 1 827 0
	ld	[%fp-12], %g1
	ld	[%fp-4], %g2
#APP
! 827 "/home/ajit4/ajit-toolchain/AjitPublicResources/tools/ajit_access_routines_mt/src/ajit_access_routines.c" 1
	sta %g1, [%g2] 32
	
! 0 "" 2
	.loc 1 828 0
#NO_APP
	ld	[%fp-16], %g1
	ld	[%fp-8], %g2
#APP
! 828 "/home/ajit4/ajit-toolchain/AjitPublicResources/tools/ajit_access_routines_mt/src/ajit_access_routines.c" 1
	sta %g1, [%g2] 32
	
! 0 "" 2
#NO_APP
.L186:
	.loc 1 830 0
	restore
	jmp	%o7+8
	 nop
	.cfi_endproc
.LFE62:
	.size	__ajit_serial_set_baudrate_inner__, .-__ajit_serial_set_baudrate_inner__
	.align 4
	.global __ajit_serial_putchar_inner__
	.type	__ajit_serial_putchar_inner__, #function
	.proc	04
__ajit_serial_putchar_inner__:
.LFB63:
	.loc 1 838 0
	.cfi_startproc
	save	%sp, -112, %sp
.LCFI63:
	.cfi_window_save
	.cfi_register 15, 31
	.cfi_def_cfa_register 30
	mov	%i0, %g2
	st	%i1, [%fp+72]
	mov	%i2, %g1
	stb	%g2, [%fp+68]
	stb	%g1, [%fp+76]
	.loc 1 839 0
	st	%g0, [%fp-4]
	.loc 1 840 0
	ld	[%fp+72], %g1
	cmp	%g1, 0
	bne	.L194
	 nop
	.loc 1 840 0 is_stmt 0 discriminator 1
	sethi	%hi(-53248), %g1
	or	%g1, 512, %g1
	b	.L195
	 nop
.L194:
	.loc 1 840 0 discriminator 2
	sethi	%hi(-53248), %g1
	or	%g1, 576, %g1
.L195:
	.loc 1 840 0 discriminator 3
	st	%g1, [%fp-12]
	.loc 1 841 0 is_stmt 1 discriminator 3
	ld	[%fp+72], %g1
	cmp	%g1, 0
	bne	.L196
	 nop
	.loc 1 841 0 is_stmt 0 discriminator 1
	sethi	%hi(-53248), %g1
	or	%g1, 516, %g1
	b	.L197
	 nop
.L196:
	.loc 1 841 0 discriminator 2
	sethi	%hi(-53248), %g1
	or	%g1, 580, %g1
.L197:
	.loc 1 841 0 discriminator 3
	st	%g1, [%fp-16]
	.loc 1 843 0 is_stmt 1 discriminator 3
	ldub	[%fp+68], %g1
	and	%g1, 0xff, %g1
	cmp	%g1, 0
	be	.L198
	 nop
	.loc 1 844 0
	ld	[%fp-12], %g1
	ld	[%g1], %g1
	st	%g1, [%fp-4]
	b	.L199
	 nop
.L198:
	.loc 1 846 0
	ld	[%fp-12], %g1
#APP
! 846 "/home/ajit4/ajit-toolchain/AjitPublicResources/tools/ajit_access_routines_mt/src/ajit_access_routines.c" 1
	lda [%g1] 32, %i5
	
! 0 "" 2
#NO_APP
	st	%i5, [%fp-4]
.L199:
	.loc 1 848 0
	st	%g0, [%fp-8]
	.loc 1 849 0
	ld	[%fp-4], %g1
	and	%g1, 1, %g1
	cmp	%g1, 0
	be	.L200
	 nop
	.loc 1 851 0
	ld	[%fp-4], %g1
	and	%g1, 8, %g1
	cmp	%g1, 0
	bne	.L200
	 nop
	.loc 1 853 0
	ldub	[%fp+68], %g1
	and	%g1, 0xff, %g1
	cmp	%g1, 0
	be	.L201
	 nop
	.loc 1 854 0
	ld	[%fp-16], %g1
	ldub	[%fp+76], %g2
	stb	%g2, [%g1]
	b	.L202
	 nop
.L201:
	.loc 1 856 0
	ldub	[%fp+76], %g1
	ld	[%fp-16], %g2
#APP
! 856 "/home/ajit4/ajit-toolchain/AjitPublicResources/tools/ajit_access_routines_mt/src/ajit_access_routines.c" 1
	stuba %g1, [%g2] 32
	
! 0 "" 2
#NO_APP
.L202:
	.loc 1 858 0
	mov	1, %g1
	st	%g1, [%fp-8]
.L200:
	.loc 1 861 0
	ld	[%fp-8], %g1
	.loc 1 862 0
	mov	%g1, %i0
	restore
	jmp	%o7+8
	 nop
	.cfi_endproc
.LFE63:
	.size	__ajit_serial_putchar_inner__, .-__ajit_serial_putchar_inner__
	.align 4
	.global __ajit_serial_getchar_inner__
	.type	__ajit_serial_getchar_inner__, #function
	.proc	04
__ajit_serial_getchar_inner__:
.LFB64:
	.loc 1 870 0
	.cfi_startproc
	save	%sp, -120, %sp
.LCFI64:
	.cfi_window_save
	.cfi_register 15, 31
	.cfi_def_cfa_register 30
	mov	%i0, %g1
	st	%i1, [%fp+72]
	st	%i2, [%fp+76]
	stb	%g1, [%fp+68]
	.loc 1 871 0
	st	%g0, [%fp-4]
	.loc 1 872 0
	ld	[%fp+72], %g1
	cmp	%g1, 0
	bne	.L205
	 nop
	.loc 1 872 0 is_stmt 0 discriminator 1
	sethi	%hi(-53248), %g1
	or	%g1, 512, %g1
	b	.L206
	 nop
.L205:
	.loc 1 872 0 discriminator 2
	sethi	%hi(-53248), %g1
	or	%g1, 576, %g1
.L206:
	.loc 1 872 0 discriminator 3
	st	%g1, [%fp-12]
	.loc 1 873 0 is_stmt 1 discriminator 3
	ld	[%fp+72], %g1
	cmp	%g1, 0
	bne	.L207
	 nop
	.loc 1 873 0 is_stmt 0 discriminator 1
	sethi	%hi(-53248), %g1
	or	%g1, 520, %g1
	b	.L208
	 nop
.L207:
	.loc 1 873 0 discriminator 2
	sethi	%hi(-53248), %g1
	or	%g1, 584, %g1
.L208:
	.loc 1 873 0 discriminator 3
	st	%g1, [%fp-16]
	.loc 1 876 0 is_stmt 1 discriminator 3
	ldub	[%fp+68], %g1
	and	%g1, 0xff, %g1
	cmp	%g1, 0
	be	.L209
	 nop
	.loc 1 877 0
	ld	[%fp-12], %g1
	ld	[%g1], %g1
	st	%g1, [%fp-8]
	b	.L210
	 nop
.L209:
	.loc 1 879 0
	ld	[%fp-12], %g1
#APP
! 879 "/home/ajit4/ajit-toolchain/AjitPublicResources/tools/ajit_access_routines_mt/src/ajit_access_routines.c" 1
	lda [%g1] 32, %i5
	
! 0 "" 2
#NO_APP
	st	%i5, [%fp-8]
.L210:
	.loc 1 881 0
	ld	[%fp-8], %g1
	and	%g1, 2, %g1
	cmp	%g1, 0
	be	.L211
	 nop
	.loc 1 883 0
	ld	[%fp-8], %g1
	and	%g1, 16, %g1
	cmp	%g1, 0
	be	.L211
	 nop
	.loc 1 885 0
	ldub	[%fp+68], %g1
	and	%g1, 0xff, %g1
	cmp	%g1, 0
	be	.L212
	 nop
	.loc 1 886 0
	ld	[%fp-16], %g1
	ldub	[%g1], %g1
	mov	%g1, %g2
	ld	[%fp+76], %g1
	stb	%g2, [%g1]
	b	.L213
	 nop
.L212:
.LBB5:
	.loc 1 890 0
	ld	[%fp-16], %g1
#APP
! 890 "/home/ajit4/ajit-toolchain/AjitPublicResources/tools/ajit_access_routines_mt/src/ajit_access_routines.c" 1
	lduba [%g1] 32, %i5
	
! 0 "" 2
#NO_APP
	stb	%i5, [%fp-17]
	.loc 1 891 0
	ldub	[%fp-17], %g2
	ld	[%fp+76], %g1
	stb	%g2, [%g1]
.L213:
.LBE5:
	.loc 1 893 0
	mov	1, %g1
	st	%g1, [%fp-4]
.L211:
	.loc 1 896 0
	ld	[%fp-4], %g1
	.loc 1 897 0
	mov	%g1, %i0
	restore
	jmp	%o7+8
	 nop
	.cfi_endproc
.LFE64:
	.size	__ajit_serial_getchar_inner__, .-__ajit_serial_getchar_inner__
	.align 4
	.global __ajit_serial_puts_inner__
	.type	__ajit_serial_puts_inner__, #function
	.proc	020
__ajit_serial_puts_inner__:
.LFB65:
	.loc 1 900 0
	.cfi_startproc
	save	%sp, -112, %sp
.LCFI65:
	.cfi_window_save
	.cfi_register 15, 31
	.cfi_def_cfa_register 30
	mov	%i0, %g1
	st	%i1, [%fp+72]
	st	%i2, [%fp+76]
	st	%i3, [%fp+80]
	stb	%g1, [%fp+68]
	.loc 1 902 0
	st	%g0, [%fp-4]
	b	.L216
	 nop
.L221:
.LBB6:
	.loc 1 904 0
	st	%g0, [%fp-8]
	.loc 1 906 0
	ld	[%fp-4], %g1
	ld	[%fp+76], %g2
	add	%g2, %g1, %g1
	ldub	[%g1], %g1
	stb	%g1, [%fp-9]
	.loc 1 907 0
	ldub	[%fp-9], %g1
	sll	%g1, 24, %g1
	sra	%g1, 24, %g1
	cmp	%g1, 0
	bne	.L219
	 nop
	b	.L215
	 nop
.L220:
	.loc 1 911 0
	ld	[%fp-4], %g1
	ld	[%fp+76], %g2
	add	%g2, %g1, %g1
	ldub	[%g1], %g1
	ldub	[%fp+68], %g2
	and	%g2, 0xff, %g2
	sll	%g1, 24, %g1
	sra	%g1, 24, %g1
	mov	%g2, %o0
	ld	[%fp+72], %o1
	mov	%g1, %o2
	call	__ajit_serial_putchar_inner__, 0
	 nop
	st	%o0, [%fp-8]
.L219:
	.loc 1 909 0 discriminator 1
	ld	[%fp-8], %g1
	cmp	%g1, 0
	be	.L220
	 nop
.LBE6:
	.loc 1 902 0
	ld	[%fp-4], %g1
	add	%g1, 1, %g1
	st	%g1, [%fp-4]
.L216:
	.loc 1 902 0 is_stmt 0 discriminator 1
	ld	[%fp-4], %g2
	ld	[%fp+80], %g1
	cmp	%g2, %g1
	blu	.L221
	 nop
.L215:
	.loc 1 914 0 is_stmt 1
	restore
	jmp	%o7+8
	 nop
	.cfi_endproc
.LFE65:
	.size	__ajit_serial_puts_inner__, .-__ajit_serial_puts_inner__
	.align 4
	.global __ajit_serial_gets_inner__
	.type	__ajit_serial_gets_inner__, #function
	.proc	020
__ajit_serial_gets_inner__:
.LFB66:
	.loc 1 919 0
	.cfi_startproc
	save	%sp, -112, %sp
.LCFI66:
	.cfi_window_save
	.cfi_register 15, 31
	.cfi_def_cfa_register 30
	mov	%i0, %g1
	st	%i1, [%fp+72]
	st	%i2, [%fp+76]
	st	%i3, [%fp+80]
	stb	%g1, [%fp+68]
	.loc 1 921 0
	st	%g0, [%fp-4]
	b	.L223
	 nop
.L228:
.LBB7:
	.loc 1 923 0
	st	%g0, [%fp-8]
	.loc 1 924 0
	stb	%g0, [%fp-9]
	.loc 1 925 0
	b	.L224
	 nop
.L225:
	.loc 1 927 0
	ldub	[%fp+68], %g1
	and	%g1, 0xff, %g2
	add	%fp, -9, %g1
	mov	%g2, %o0
	ld	[%fp+72], %o1
	mov	%g1, %o2
	call	__ajit_serial_getchar_inner__, 0
	 nop
	st	%o0, [%fp-8]
.L224:
	.loc 1 925 0 discriminator 1
	ld	[%fp-8], %g1
	cmp	%g1, 0
	be	.L225
	 nop
	.loc 1 930 0
	ld	[%fp-4], %g1
	ld	[%fp+76], %g2
	add	%g2, %g1, %g1
	ldub	[%fp-9], %g2
	stb	%g2, [%g1]
	.loc 1 931 0
	ldub	[%fp-9], %g1
	sll	%g1, 24, %g1
	sra	%g1, 24, %g1
	cmp	%g1, 0
	be	.L227
	 nop
.LBE7:
	.loc 1 921 0
	ld	[%fp-4], %g1
	add	%g1, 1, %g1
	st	%g1, [%fp-4]
.L223:
	.loc 1 921 0 is_stmt 0 discriminator 1
	ld	[%fp-4], %g2
	ld	[%fp+80], %g1
	add	%g1, -1, %g1
	cmp	%g2, %g1
	blu	.L228
	 nop
.L227:
	.loc 1 934 0 is_stmt 1
	ld	[%fp+80], %g1
	add	%g1, -1, %g1
	ld	[%fp+76], %g2
	add	%g2, %g1, %g1
	stb	%g0, [%g1]
	.loc 1 935 0
	restore
	jmp	%o7+8
	 nop
	.cfi_endproc
.LFE66:
	.size	__ajit_serial_gets_inner__, .-__ajit_serial_gets_inner__
	.align 4
	.global __ajit_serial_set_uart_reset_inner__
	.type	__ajit_serial_set_uart_reset_inner__, #function
	.proc	020
__ajit_serial_set_uart_reset_inner__:
.LFB67:
	.loc 1 938 0
	.cfi_startproc
	save	%sp, -104, %sp
.LCFI67:
	.cfi_window_save
	.cfi_register 15, 31
	.cfi_def_cfa_register 30
	mov	%i0, %g2
	st	%i1, [%fp+72]
	mov	%i2, %g1
	stb	%g2, [%fp+68]
	stb	%g1, [%fp+76]
	.loc 1 939 0
	st	%g0, [%fp-4]
	.loc 1 940 0
	ld	[%fp+72], %g1
	cmp	%g1, 0
	bne	.L230
	 nop
	.loc 1 940 0 is_stmt 0 discriminator 1
	sethi	%hi(-53248), %g1
	or	%g1, 512, %g1
	b	.L231
	 nop
.L230:
	.loc 1 940 0 discriminator 2
	sethi	%hi(-53248), %g1
	or	%g1, 576, %g1
.L231:
	.loc 1 940 0 discriminator 3
	st	%g1, [%fp-8]
	.loc 1 942 0 is_stmt 1 discriminator 3
	ldub	[%fp+68], %g1
	and	%g1, 0xff, %g1
	cmp	%g1, 0
	be	.L232
	 nop
	.loc 1 943 0
	ld	[%fp-8], %g1
	ld	[%g1], %g1
	st	%g1, [%fp-4]
	b	.L233
	 nop
.L232:
	.loc 1 945 0
	ld	[%fp-8], %g1
#APP
! 945 "/home/ajit4/ajit-toolchain/AjitPublicResources/tools/ajit_access_routines_mt/src/ajit_access_routines.c" 1
	lda [%g1] 32, %i5
	
! 0 "" 2
#NO_APP
	st	%i5, [%fp-4]
.L233:
	.loc 1 947 0
	ldub	[%fp+76], %g1
	and	%g1, 0xff, %g1
	cmp	%g1, 0
	bne	.L234
	 nop
	.loc 1 948 0
	ld	[%fp-4], %g1
	and	%g1, -33, %g1
	st	%g1, [%fp-4]
	b	.L235
	 nop
.L234:
	.loc 1 950 0
	ld	[%fp-4], %g1
	or	%g1, 32, %g1
	st	%g1, [%fp-4]
.L235:
	.loc 1 952 0
	ldub	[%fp+68], %g1
	and	%g1, 0xff, %g1
	cmp	%g1, 0
	be	.L236
	 nop
	.loc 1 953 0
	ld	[%fp-8], %g1
	ld	[%fp-4], %g2
	st	%g2, [%g1]
	b	.L229
	 nop
.L236:
	.loc 1 955 0
	ld	[%fp-4], %g1
	ld	[%fp-8], %g2
#APP
! 955 "/home/ajit4/ajit-toolchain/AjitPublicResources/tools/ajit_access_routines_mt/src/ajit_access_routines.c" 1
	sta %g1, [%g2] 32
	
! 0 "" 2
#NO_APP
.L229:
	.loc 1 956 0
	restore
	jmp	%o7+8
	 nop
	.cfi_endproc
.LFE67:
	.size	__ajit_serial_set_uart_reset_inner__, .-__ajit_serial_set_uart_reset_inner__
	.align 4
	.global __ajit_write_irc_control_register_via_bypass__
	.type	__ajit_write_irc_control_register_via_bypass__, #function
	.proc	020
__ajit_write_irc_control_register_via_bypass__:
.LFB68:
	.loc 1 961 0
	.cfi_startproc
	save	%sp, -104, %sp
.LCFI68:
	.cfi_window_save
	.cfi_register 15, 31
	.cfi_def_cfa_register 30
	st	%i0, [%fp+68]
	.loc 1 962 0
	sethi	%hi(-53248), %g1
	st	%g1, [%fp-4]
	.loc 1 963 0
	ld	[%fp+68], %o0
	ld	[%fp-4], %o1
	call	__ajit_store_word_mmu_bypass__, 0
	 nop
	.loc 1 964 0
	restore
	jmp	%o7+8
	 nop
	.cfi_endproc
.LFE68:
	.size	__ajit_write_irc_control_register_via_bypass__, .-__ajit_write_irc_control_register_via_bypass__
	.align 4
	.global __ajit_read_irc_control_register_via_bypass__
	.type	__ajit_read_irc_control_register_via_bypass__, #function
	.proc	016
__ajit_read_irc_control_register_via_bypass__:
.LFB69:
	.loc 1 967 0
	.cfi_startproc
	save	%sp, -104, %sp
.LCFI69:
	.cfi_window_save
	.cfi_register 15, 31
	.cfi_def_cfa_register 30
	.loc 1 968 0
	sethi	%hi(-53248), %g1
	st	%g1, [%fp-4]
	.loc 1 969 0
	ld	[%fp-4], %o0
	call	__ajit_load_word_mmu_bypass__, 0
	 nop
	st	%o0, [%fp-8]
	.loc 1 970 0
	ld	[%fp-8], %g1
	.loc 1 971 0
	mov	%g1, %i0
	restore
	jmp	%o7+8
	 nop
	.cfi_endproc
.LFE69:
	.size	__ajit_read_irc_control_register_via_bypass__, .-__ajit_read_irc_control_register_via_bypass__
	.align 4
	.global __ajit_write_irc_control_register_via_vmap__
	.type	__ajit_write_irc_control_register_via_vmap__, #function
	.proc	020
__ajit_write_irc_control_register_via_vmap__:
.LFB70:
	.loc 1 974 0
	.cfi_startproc
	save	%sp, -96, %sp
.LCFI70:
	.cfi_window_save
	.cfi_register 15, 31
	.cfi_def_cfa_register 30
	st	%i0, [%fp+68]
	.loc 1 975 0
	sethi	%hi(-53248), %g1
	ld	[%fp+68], %g2
	st	%g2, [%g1]
	.loc 1 976 0
	restore
	jmp	%o7+8
	 nop
	.cfi_endproc
.LFE70:
	.size	__ajit_write_irc_control_register_via_vmap__, .-__ajit_write_irc_control_register_via_vmap__
	.align 4
	.global __ajit_read_irc_control_register_via_vmap__
	.type	__ajit_read_irc_control_register_via_vmap__, #function
	.proc	016
__ajit_read_irc_control_register_via_vmap__:
.LFB71:
	.loc 1 979 0
	.cfi_startproc
	save	%sp, -104, %sp
.LCFI71:
	.cfi_window_save
	.cfi_register 15, 31
	.cfi_def_cfa_register 30
	.loc 1 980 0
	sethi	%hi(-53248), %g1
	ld	[%g1], %g1
	st	%g1, [%fp-4]
	.loc 1 981 0
	ld	[%fp-4], %g1
	.loc 1 982 0
	mov	%g1, %i0
	restore
	jmp	%o7+8
	 nop
	.cfi_endproc
.LFE71:
	.size	__ajit_read_irc_control_register_via_vmap__, .-__ajit_read_irc_control_register_via_vmap__
	.align 4
	.global __ajit_write_spi_master_register_via_bypass__
	.type	__ajit_write_spi_master_register_via_bypass__, #function
	.proc	020
__ajit_write_spi_master_register_via_bypass__:
.LFB72:
	.loc 1 1014 0
	.cfi_startproc
	save	%sp, -104, %sp
.LCFI72:
	.cfi_window_save
	.cfi_register 15, 31
	.cfi_def_cfa_register 30
	mov	%i0, %g2
	mov	%i1, %g1
	stb	%g2, [%fp+68]
	stb	%g1, [%fp+72]
	.loc 1 1015 0
	ldub	[%fp+68], %g1
	and	%g1, 0xff, %g1
	sll	%g1, 2, %g1
	mov	%g1, %g2
	sethi	%hi(-53248), %g1
	or	%g1, 768, %g1
	add	%g2, %g1, %g1
	st	%g1, [%fp-4]
	.loc 1 1016 0
	ldub	[%fp+72], %g1
	and	%g1, 0xff, %g1
	mov	%g1, %o0
	ld	[%fp-4], %o1
	call	__ajit_store_word_mmu_bypass__, 0
	 nop
	.loc 1 1017 0
	restore
	jmp	%o7+8
	 nop
	.cfi_endproc
.LFE72:
	.size	__ajit_write_spi_master_register_via_bypass__, .-__ajit_write_spi_master_register_via_bypass__
	.align 4
	.global __ajit_write_spi_master_register_via_vmap__
	.type	__ajit_write_spi_master_register_via_vmap__, #function
	.proc	020
__ajit_write_spi_master_register_via_vmap__:
.LFB73:
	.loc 1 1020 0
	.cfi_startproc
	save	%sp, -104, %sp
.LCFI73:
	.cfi_window_save
	.cfi_register 15, 31
	.cfi_def_cfa_register 30
	mov	%i0, %g2
	mov	%i1, %g1
	stb	%g2, [%fp+68]
	stb	%g1, [%fp+72]
	.loc 1 1021 0
	ldub	[%fp+68], %g1
	and	%g1, 0xff, %g1
	sll	%g1, 2, %g1
	mov	%g1, %g2
	sethi	%hi(-53248), %g1
	or	%g1, 768, %g1
	add	%g2, %g1, %g1
	st	%g1, [%fp-4]
	.loc 1 1024 0
	ld	[%fp-4], %g1
	ldub	[%fp+72], %g2
	stb	%g2, [%g1]
	.loc 1 1025 0
	restore
	jmp	%o7+8
	 nop
	.cfi_endproc
.LFE73:
	.size	__ajit_write_spi_master_register_via_vmap__, .-__ajit_write_spi_master_register_via_vmap__
	.align 4
	.global __ajit_read_spi_master_register_via_bypass__
	.type	__ajit_read_spi_master_register_via_bypass__, #function
	.proc	014
__ajit_read_spi_master_register_via_bypass__:
.LFB74:
	.loc 1 1037 0
	.cfi_startproc
	save	%sp, -104, %sp
.LCFI74:
	.cfi_window_save
	.cfi_register 15, 31
	.cfi_def_cfa_register 30
	mov	%i0, %g1
	stb	%g1, [%fp+68]
	.loc 1 1038 0
	ldub	[%fp+68], %g1
	and	%g1, 0xff, %g1
	sll	%g1, 2, %g1
	mov	%g1, %g2
	sethi	%hi(-53248), %g1
	or	%g1, 768, %g1
	add	%g2, %g1, %g1
	st	%g1, [%fp-4]
	.loc 1 1039 0
	ld	[%fp-4], %o0
	call	__ajit_load_word_mmu_bypass__, 0
	 nop
	st	%o0, [%fp-8]
	.loc 1 1040 0
	ld	[%fp-8], %g1
	and	%g1, 0xff, %g1
	.loc 1 1041 0
	mov	%g1, %i0
	restore
	jmp	%o7+8
	 nop
	.cfi_endproc
.LFE74:
	.size	__ajit_read_spi_master_register_via_bypass__, .-__ajit_read_spi_master_register_via_bypass__
	.align 4
	.global __ajit_read_spi_master_register_via_vmap__
	.type	__ajit_read_spi_master_register_via_vmap__, #function
	.proc	014
__ajit_read_spi_master_register_via_vmap__:
.LFB75:
	.loc 1 1044 0
	.cfi_startproc
	save	%sp, -104, %sp
.LCFI75:
	.cfi_window_save
	.cfi_register 15, 31
	.cfi_def_cfa_register 30
	mov	%i0, %g1
	stb	%g1, [%fp+68]
	.loc 1 1045 0
	ldub	[%fp+68], %g1
	and	%g1, 0xff, %g1
	sll	%g1, 2, %g1
	mov	%g1, %g2
	sethi	%hi(-53248), %g1
	or	%g1, 768, %g1
	add	%g2, %g1, %g1
	st	%g1, [%fp-4]
	.loc 1 1048 0
	ld	[%fp-4], %g1
	ldub	[%g1], %g1
	and	%g1, 0xff, %g1
	st	%g1, [%fp-8]
	.loc 1 1050 0
	ld	[%fp-8], %g1
	and	%g1, 0xff, %g1
	.loc 1 1051 0
	mov	%g1, %i0
	restore
	jmp	%o7+8
	 nop
	.cfi_endproc
.LFE75:
	.size	__ajit_read_spi_master_register_via_vmap__, .-__ajit_read_spi_master_register_via_vmap__
	.align 4
	.global __ajit_do_spi_transfer_via_bypass__
	.type	__ajit_do_spi_transfer_via_bypass__, #function
	.proc	014
__ajit_do_spi_transfer_via_bypass__:
.LFB76:
	.loc 1 1057 0
	.cfi_startproc
	save	%sp, -96, %sp
.LCFI76:
	.cfi_window_save
	.cfi_register 15, 31
	.cfi_def_cfa_register 30
	mov	%i0, %g3
	mov	%i1, %g2
	mov	%i2, %g1
	stb	%g3, [%fp+68]
	stb	%g2, [%fp+72]
	stb	%g1, [%fp+76]
	.loc 1 1058 0
	ldub	[%fp+68], %g1
	and	%g1, 0xff, %g3
	ldub	[%fp+72], %g1
	and	%g1, 0xff, %g2
	ldub	[%fp+76], %g1
	and	%g1, 0xff, %g1
	mov	0, %o0
	mov	%g3, %o1
	mov	%g2, %o2
	mov	%g1, %o3
	call	__ajit_do_spi_transfer_inner__, 0
	 nop
	mov	%o0, %g1
	and	%g1, 0xff, %g1
	.loc 1 1059 0
	mov	%g1, %i0
	restore
	jmp	%o7+8
	 nop
	.cfi_endproc
.LFE76:
	.size	__ajit_do_spi_transfer_via_bypass__, .-__ajit_do_spi_transfer_via_bypass__
	.align 4
	.global __ajit_do_spi_transfer_via_vmap__
	.type	__ajit_do_spi_transfer_via_vmap__, #function
	.proc	014
__ajit_do_spi_transfer_via_vmap__:
.LFB77:
	.loc 1 1064 0
	.cfi_startproc
	save	%sp, -96, %sp
.LCFI77:
	.cfi_window_save
	.cfi_register 15, 31
	.cfi_def_cfa_register 30
	mov	%i0, %g3
	mov	%i1, %g2
	mov	%i2, %g1
	stb	%g3, [%fp+68]
	stb	%g2, [%fp+72]
	stb	%g1, [%fp+76]
	.loc 1 1065 0
	ldub	[%fp+68], %g1
	and	%g1, 0xff, %g3
	ldub	[%fp+72], %g1
	and	%g1, 0xff, %g2
	ldub	[%fp+76], %g1
	and	%g1, 0xff, %g1
	mov	1, %o0
	mov	%g3, %o1
	mov	%g2, %o2
	mov	%g1, %o3
	call	__ajit_do_spi_transfer_inner__, 0
	 nop
	mov	%o0, %g1
	and	%g1, 0xff, %g1
	.loc 1 1066 0
	mov	%g1, %i0
	restore
	jmp	%o7+8
	 nop
	.cfi_endproc
.LFE77:
	.size	__ajit_do_spi_transfer_via_vmap__, .-__ajit_do_spi_transfer_via_vmap__
	.align 4
	.global __ajit_configure_spi_master_via_bypass___
	.type	__ajit_configure_spi_master_via_bypass___, #function
	.proc	014
__ajit_configure_spi_master_via_bypass___:
.LFB78:
	.loc 1 1069 0
	.cfi_startproc
	save	%sp, -104, %sp
.LCFI78:
	.cfi_window_save
	.cfi_register 15, 31
	.cfi_def_cfa_register 30
	mov	%i0, %g1
	stb	%g1, [%fp+68]
	.loc 1 1070 0
	sethi	%hi(-53248), %g1
	or	%g1, 780, %g1
	st	%g1, [%fp-4]
	.loc 1 1072 0
	ldub	[%fp+68], %g1
	and	%g1, 0xff, %g1
	and	%g1, 15, %g1
	or	%g1, 16, %g1
	mov	%g1, %o0
	ld	[%fp-4], %o1
	call	__ajit_store_word_mmu_bypass__, 0
	 nop
	.loc 1 1073 0
	mov	0, %g1
	and	%g1, 0xff, %g1
	.loc 1 1074 0
	mov	%g1, %i0
	restore
	jmp	%o7+8
	 nop
	.cfi_endproc
.LFE78:
	.size	__ajit_configure_spi_master_via_bypass___, .-__ajit_configure_spi_master_via_bypass___
	.align 4
	.global __ajit_configure_spi_master_via_vmap___
	.type	__ajit_configure_spi_master_via_vmap___, #function
	.proc	014
__ajit_configure_spi_master_via_vmap___:
.LFB79:
	.loc 1 1077 0
	.cfi_startproc
	save	%sp, -104, %sp
.LCFI79:
	.cfi_window_save
	.cfi_register 15, 31
	.cfi_def_cfa_register 30
	mov	%i0, %g1
	stb	%g1, [%fp+68]
	.loc 1 1078 0
	sethi	%hi(-53248), %g1
	or	%g1, 780, %g1
	st	%g1, [%fp-4]
	.loc 1 1080 0
	ld	[%fp-4], %g1
	ldub	[%fp+68], %g2
	and	%g2, 0xff, %g2
	and	%g2, 15, %g2
	or	%g2, 16, %g2
	st	%g2, [%g1]
	.loc 1 1081 0
	mov	0, %g1
	and	%g1, 0xff, %g1
	.loc 1 1082 0
	mov	%g1, %i0
	restore
	jmp	%o7+8
	 nop
	.cfi_endproc
.LFE79:
	.size	__ajit_configure_spi_master_via_vmap___, .-__ajit_configure_spi_master_via_vmap___
	.align 4
	.global __ajit_do_spi_transfer_inner__
	.type	__ajit_do_spi_transfer_inner__, #function
	.proc	014
__ajit_do_spi_transfer_inner__:
.LFB80:
	.loc 1 1089 0
	.cfi_startproc
	save	%sp, -112, %sp
.LCFI80:
	.cfi_window_save
	.cfi_register 15, 31
	.cfi_def_cfa_register 30
	mov	%i0, %g4
	mov	%i1, %g3
	mov	%i2, %g2
	mov	%i3, %g1
	stb	%g4, [%fp+68]
	stb	%g3, [%fp+72]
	stb	%g2, [%fp+76]
	stb	%g1, [%fp+80]
	.loc 1 1090 0
	ldub	[%fp+72], %g1
	and	%g1, 0xff, %g1
	and	%g1, 7, %g1
	sll	%g1, 3, %g1
	mov	%g1, %g2
	ldub	[%fp+80], %g1
	and	%g1, 0xff, %g1
	and	%g1, 1, %g1
	add	%g1, %g1, %g1
	or	%g2, %g1, %g1
	or	%g1, 1, %g1
	stb	%g1, [%fp-13]
	.loc 1 1091 0
	ldub	[%fp+68], %g1
	and	%g1, 0xff, %g1
	cmp	%g1, 0
	be	.L259
	 nop
	.loc 1 1093 0
	sethi	%hi(-53248), %g1
	or	%g1, 768, %g1
	ldub	[%fp+76], %g2
	and	%g2, 0xff, %g2
	st	%g2, [%g1]
	.loc 1 1094 0
	sethi	%hi(-53248), %g1
	or	%g1, 776, %g1
	ldub	[%fp-13], %g2
	and	%g2, 0xff, %g2
	st	%g2, [%g1]
	b	.L260
	 nop
.L259:
	.loc 1 1098 0
	ldub	[%fp+76], %g1
	sethi	%hi(-53248), %g2
	or	%g2, 768, %g2
#APP
! 1098 "/home/ajit4/ajit-toolchain/AjitPublicResources/tools/ajit_access_routines_mt/src/ajit_access_routines.c" 1
	sta %g1, [%g2] 32
	
! 0 "" 2
	.loc 1 1099 0
#NO_APP
	ldub	[%fp-13], %g1
	sethi	%hi(-53248), %g2
	or	%g2, 776, %g2
#APP
! 1099 "/home/ajit4/ajit-toolchain/AjitPublicResources/tools/ajit_access_routines_mt/src/ajit_access_routines.c" 1
	sta %g1, [%g2] 32
	
! 0 "" 2
#NO_APP
.L260:
	.loc 1 1102 0
	st	%g0, [%fp-4]
	b	.L266
	 nop
.L271:
	.loc 1 1120 0
	nop
.L266:
.LBB8:
	.loc 1 1107 0
	ldub	[%fp+68], %g1
	and	%g1, 0xff, %g1
	cmp	%g1, 0
	be	.L261
	 nop
	.loc 1 1108 0
	sethi	%hi(-53248), %g1
	or	%g1, 776, %g1
	ld	[%g1], %g1
	st	%g1, [%fp-8]
	b	.L262
	 nop
.L261:
	.loc 1 1110 0
	sethi	%hi(-53248), %g1
	or	%g1, 776, %g1
#APP
! 1110 "/home/ajit4/ajit-toolchain/AjitPublicResources/tools/ajit_access_routines_mt/src/ajit_access_routines.c" 1
	lda [%g1] 32, %i5
	
! 0 "" 2
#NO_APP
	st	%i5, [%fp-8]
.L262:
	.loc 1 1112 0
	ld	[%fp-8], %g1
	and	%g1, 1, %g1
	cmp	%g1, 0
	be	.L270
	 nop
.L263:
	.loc 1 1115 0
	ld	[%fp-4], %g1
	add	%g1, 1, %g1
	st	%g1, [%fp-4]
	.loc 1 1116 0
	ld	[%fp-4], %g2
	sethi	%hi(8192), %g1
	cmp	%g2, %g1
	bne	.L271
	 nop
	.loc 1 1118 0
	b	.L264
	 nop
.L270:
	.loc 1 1113 0
	nop
.L264:
.LBE8:
	.loc 1 1122 0
	st	%g0, [%fp-12]
	.loc 1 1123 0
	ldub	[%fp+68], %g1
	and	%g1, 0xff, %g1
	cmp	%g1, 0
	be	.L267
	 nop
	.loc 1 1124 0
	sethi	%hi(-53248), %g1
	or	%g1, 768, %g1
	ld	[%g1], %g1
	st	%g1, [%fp-12]
	b	.L268
	 nop
.L267:
	.loc 1 1126 0
	sethi	%hi(-53248), %g1
	or	%g1, 768, %g1
#APP
! 1126 "/home/ajit4/ajit-toolchain/AjitPublicResources/tools/ajit_access_routines_mt/src/ajit_access_routines.c" 1
	lda [%g1] 32, %i5
	
! 0 "" 2
#NO_APP
	st	%i5, [%fp-12]
.L268:
	.loc 1 1129 0
	ld	[%fp-12], %g1
	and	%g1, 0xff, %g1
	.loc 1 1131 0
	mov	%g1, %i0
	restore
	jmp	%o7+8
	 nop
	.cfi_endproc
.LFE80:
	.size	__ajit_do_spi_transfer_inner__, .-__ajit_do_spi_transfer_inner__
	.align 4
	.global __ajit_gpio_xfer__
	.type	__ajit_gpio_xfer__, #function
	.proc	016
__ajit_gpio_xfer__:
.LFB81:
	.loc 1 1138 0
	.cfi_startproc
	save	%sp, -112, %sp
.LCFI81:
	.cfi_window_save
	.cfi_register 15, 31
	.cfi_def_cfa_register 30
	mov	%i0, %g2
	mov	%i1, %g1
	stb	%g2, [%fp+68]
	stb	%g1, [%fp+72]
	.loc 1 1142 0
	st	%g0, [%fp-12]
	.loc 1 1143 0
	mov	1, %g1
	st	%g1, [%fp-8]
	.loc 1 1146 0
	ldub	[%fp+72], %g1
	and	%g1, 0xff, %g1
	mov	0, %o0
	mov	%g1, %o1
	call	__ajit_write_spi_master_register_via_bypass__, 0
	 nop
	.loc 1 1150 0
	ldub	[%fp+68], %g1
	and	%g1, 0xff, %g1
	and	%g1, 7, %g1
	sll	%g1, 3, %g1
	or	%g1, 3, %g1
	stb	%g1, [%fp-13]
	.loc 1 1153 0
	ldub	[%fp-13], %g1
	and	%g1, 0xff, %g1
	mov	2, %o0
	mov	%g1, %o1
	call	__ajit_write_spi_master_register_via_bypass__, 0
	 nop
	.loc 1 1156 0
	mov	256, %g1
	st	%g1, [%fp-4]
	.loc 1 1157 0
	b	.L273
	 nop
.L274:
	.loc 1 1159 0
	mov	2, %o0
	call	__ajit_read_spi_master_register_via_bypass__, 0
	 nop
	mov	%o0, %g1
	and	%g1, 0xff, %g1
	st	%g1, [%fp-8]
	.loc 1 1160 0
	ld	[%fp-4], %g1
	add	%g1, -1, %g1
	st	%g1, [%fp-4]
.L273:
	.loc 1 1157 0 discriminator 1
	ld	[%fp-4], %g1
	sra	%g1, 31, %g2
	ld	[%fp-4], %g1
	sub	%g2, %g1, %g1
	srl	%g1, 31, %g1
	and	%g1, 0xff, %g2
	ld	[%fp-8], %g1
	and	%g2, %g1, %g1
	cmp	%g1, 0
	bne	.L274
	 nop
	.loc 1 1164 0
	mov	0, %o0
	call	__ajit_read_spi_master_register_via_bypass__, 0
	 nop
	mov	%o0, %g1
	and	%g1, 0xff, %g1
	st	%g1, [%fp-12]
	.loc 1 1165 0
	ld	[%fp-12], %g1
	.loc 1 1166 0
	mov	%g1, %i0
	restore
	jmp	%o7+8
	 nop
	.cfi_endproc
.LFE81:
	.size	__ajit_gpio_xfer__, .-__ajit_gpio_xfer__
	.align 4
	.global __ajit_read_gpio_32_via_vmap__
	.type	__ajit_read_gpio_32_via_vmap__, #function
	.proc	016
__ajit_read_gpio_32_via_vmap__:
.LFB82:
	.loc 1 1173 0
	.cfi_startproc
	save	%sp, -104, %sp
.LCFI82:
	.cfi_window_save
	.cfi_register 15, 31
	.cfi_def_cfa_register 30
	.loc 1 1174 0
	sethi	%hi(-52224), %g1
	or	%g1, 4, %g1
	ld	[%g1], %g1
	st	%g1, [%fp-4]
	.loc 1 1175 0
	ld	[%fp-4], %g1
	.loc 1 1176 0
	mov	%g1, %i0
	restore
	jmp	%o7+8
	 nop
	.cfi_endproc
.LFE82:
	.size	__ajit_read_gpio_32_via_vmap__, .-__ajit_read_gpio_32_via_vmap__
	.align 4
	.global __ajit_write_gpio_32_via_vmap__
	.type	__ajit_write_gpio_32_via_vmap__, #function
	.proc	020
__ajit_write_gpio_32_via_vmap__:
.LFB83:
	.loc 1 1179 0
	.cfi_startproc
	save	%sp, -96, %sp
.LCFI83:
	.cfi_window_save
	.cfi_register 15, 31
	.cfi_def_cfa_register 30
	st	%i0, [%fp+68]
	.loc 1 1180 0
	sethi	%hi(-52224), %g1
	ld	[%fp+68], %g2
	st	%g2, [%g1]
	.loc 1 1181 0
	restore
	jmp	%o7+8
	 nop
	.cfi_endproc
.LFE83:
	.size	__ajit_write_gpio_32_via_vmap__, .-__ajit_write_gpio_32_via_vmap__
	.align 4
	.global __ajit_read_gpio_32_via_bypass__
	.type	__ajit_read_gpio_32_via_bypass__, #function
	.proc	016
__ajit_read_gpio_32_via_bypass__:
.LFB84:
	.loc 1 1184 0
	.cfi_startproc
	save	%sp, -104, %sp
.LCFI84:
	.cfi_window_save
	.cfi_register 15, 31
	.cfi_def_cfa_register 30
	.loc 1 1186 0
	sethi	%hi(-52224), %g1
	or	%g1, 4, %g1
#APP
! 1186 "/home/ajit4/ajit-toolchain/AjitPublicResources/tools/ajit_access_routines_mt/src/ajit_access_routines.c" 1
	lda [%g1] 32, %i5
	
! 0 "" 2
#NO_APP
	st	%i5, [%fp-4]
	.loc 1 1187 0
	ld	[%fp-4], %g1
	.loc 1 1188 0
	mov	%g1, %i0
	restore
	jmp	%o7+8
	 nop
	.cfi_endproc
.LFE84:
	.size	__ajit_read_gpio_32_via_bypass__, .-__ajit_read_gpio_32_via_bypass__
	.align 4
	.global __ajit_write_gpio_32_via_bypass__
	.type	__ajit_write_gpio_32_via_bypass__, #function
	.proc	020
__ajit_write_gpio_32_via_bypass__:
.LFB85:
	.loc 1 1190 0
	.cfi_startproc
	save	%sp, -96, %sp
.LCFI85:
	.cfi_window_save
	.cfi_register 15, 31
	.cfi_def_cfa_register 30
	st	%i0, [%fp+68]
	.loc 1 1191 0
	ld	[%fp+68], %g1
	sethi	%hi(-52224), %g2
#APP
! 1191 "/home/ajit4/ajit-toolchain/AjitPublicResources/tools/ajit_access_routines_mt/src/ajit_access_routines.c" 1
	sta %g1, [%g2] 32
	
! 0 "" 2
	.loc 1 1192 0
#NO_APP
	restore
	jmp	%o7+8
	 nop
	.cfi_endproc
.LFE85:
	.size	__ajit_write_gpio_32_via_bypass__, .-__ajit_write_gpio_32_via_bypass__
	.align 4
	.global __ajit_ta_0__
	.type	__ajit_ta_0__, #function
	.proc	020
__ajit_ta_0__:
.LFB86:
	.loc 1 1198 0
	.cfi_startproc
	save	%sp, -96, %sp
.LCFI86:
	.cfi_window_save
	.cfi_register 15, 31
	.cfi_def_cfa_register 30
	.loc 1 1199 0
#APP
! 1199 "/home/ajit4/ajit-toolchain/AjitPublicResources/tools/ajit_access_routines_mt/src/ajit_access_routines.c" 1
	ta 0; nop; nop;
! 0 "" 2
	.loc 1 1200 0
#NO_APP
	restore
	jmp	%o7+8
	 nop
	.cfi_endproc
.LFE86:
	.size	__ajit_ta_0__, .-__ajit_ta_0__
	.align 4
	.global __ajit_fsqrtd__
	.type	__ajit_fsqrtd__, #function
	.proc	020
__ajit_fsqrtd__:
.LFB87:
	.loc 1 1203 0
	.cfi_startproc
	save	%sp, -96, %sp
.LCFI87:
	.cfi_window_save
	.cfi_register 15, 31
	.cfi_def_cfa_register 30
	st	%i0, [%fp+68]
	st	%i1, [%fp+72]
	.loc 1 1204 0
	ld	[%fp+68], %g1
	ld	[%fp+72], %g2
#APP
! 1204 "/home/ajit4/ajit-toolchain/AjitPublicResources/tools/ajit_access_routines_mt/src/ajit_access_routines.c" 1
	ldd [%g1], %f0; fsqrtd %f0, %f2; std %f2, [%g2];
! 0 "" 2
	.loc 1 1205 0
#NO_APP
	restore
	jmp	%o7+8
	 nop
	.cfi_endproc
.LFE87:
	.size	__ajit_fsqrtd__, .-__ajit_fsqrtd__
	.align 4
	.global __ajit_fsqrts__
	.type	__ajit_fsqrts__, #function
	.proc	020
__ajit_fsqrts__:
.LFB88:
	.loc 1 1208 0
	.cfi_startproc
	save	%sp, -96, %sp
.LCFI88:
	.cfi_window_save
	.cfi_register 15, 31
	.cfi_def_cfa_register 30
	st	%i0, [%fp+68]
	st	%i1, [%fp+72]
	.loc 1 1209 0
	ld	[%fp+68], %g1
	ld	[%fp+72], %g2
#APP
! 1209 "/home/ajit4/ajit-toolchain/AjitPublicResources/tools/ajit_access_routines_mt/src/ajit_access_routines.c" 1
	ld [%g1], %f0; fsqrts %f0, %f1; st %f1, [%g2];
! 0 "" 2
	.loc 1 1210 0
#NO_APP
	restore
	jmp	%o7+8
	 nop
	.cfi_endproc
.LFE88:
	.size	__ajit_fsqrts__, .-__ajit_fsqrts__
	.align 4
	.global __ajit_fitod__
	.type	__ajit_fitod__, #function
	.proc	020
__ajit_fitod__:
.LFB89:
	.loc 1 1213 0
	.cfi_startproc
	save	%sp, -96, %sp
.LCFI89:
	.cfi_window_save
	.cfi_register 15, 31
	.cfi_def_cfa_register 30
	st	%i0, [%fp+68]
	st	%i1, [%fp+72]
	.loc 1 1214 0
	ld	[%fp+68], %g1
	ld	[%fp+72], %g2
#APP
! 1214 "/home/ajit4/ajit-toolchain/AjitPublicResources/tools/ajit_access_routines_mt/src/ajit_access_routines.c" 1
	ld [%g1], %f0; fitod %f0, %f2; std %f2, [%g2];
! 0 "" 2
	.loc 1 1215 0
#NO_APP
	restore
	jmp	%o7+8
	 nop
	.cfi_endproc
.LFE89:
	.size	__ajit_fitod__, .-__ajit_fitod__
	.align 4
	.global __ajit_fitos__
	.type	__ajit_fitos__, #function
	.proc	020
__ajit_fitos__:
.LFB90:
	.loc 1 1218 0
	.cfi_startproc
	save	%sp, -96, %sp
.LCFI90:
	.cfi_window_save
	.cfi_register 15, 31
	.cfi_def_cfa_register 30
	st	%i0, [%fp+68]
	st	%i1, [%fp+72]
	.loc 1 1219 0
	ld	[%fp+68], %g1
	ld	[%fp+72], %g2
#APP
! 1219 "/home/ajit4/ajit-toolchain/AjitPublicResources/tools/ajit_access_routines_mt/src/ajit_access_routines.c" 1
	ld [%g1], %f0; fitos %f0, %f1; st %f1, [%g2];
! 0 "" 2
	.loc 1 1220 0
#NO_APP
	restore
	jmp	%o7+8
	 nop
	.cfi_endproc
.LFE90:
	.size	__ajit_fitos__, .-__ajit_fitos__
	.align 4
	.global __ajit_fdtoi__
	.type	__ajit_fdtoi__, #function
	.proc	020
__ajit_fdtoi__:
.LFB91:
	.loc 1 1223 0
	.cfi_startproc
	save	%sp, -96, %sp
.LCFI91:
	.cfi_window_save
	.cfi_register 15, 31
	.cfi_def_cfa_register 30
	st	%i0, [%fp+68]
	st	%i1, [%fp+72]
	.loc 1 1224 0
	ld	[%fp+68], %g1
	ld	[%fp+72], %g2
#APP
! 1224 "/home/ajit4/ajit-toolchain/AjitPublicResources/tools/ajit_access_routines_mt/src/ajit_access_routines.c" 1
	ldd [%g1], %f0; fdtoi %f0, %f2; st %f2, [%g2];
! 0 "" 2
	.loc 1 1225 0
#NO_APP
	restore
	jmp	%o7+8
	 nop
	.cfi_endproc
.LFE91:
	.size	__ajit_fdtoi__, .-__ajit_fdtoi__
	.align 4
	.global __ajit_fstoi__
	.type	__ajit_fstoi__, #function
	.proc	020
__ajit_fstoi__:
.LFB92:
	.loc 1 1228 0
	.cfi_startproc
	save	%sp, -96, %sp
.LCFI92:
	.cfi_window_save
	.cfi_register 15, 31
	.cfi_def_cfa_register 30
	st	%i0, [%fp+68]
	st	%i1, [%fp+72]
	.loc 1 1229 0
	ld	[%fp+68], %g1
	ld	[%fp+72], %g2
#APP
! 1229 "/home/ajit4/ajit-toolchain/AjitPublicResources/tools/ajit_access_routines_mt/src/ajit_access_routines.c" 1
	ld [%g1], %f0; fstoi %f0, %f1; st %f1, [%g2];
! 0 "" 2
	.loc 1 1230 0
#NO_APP
	restore
	jmp	%o7+8
	 nop
	.cfi_endproc
.LFE92:
	.size	__ajit_fstoi__, .-__ajit_fstoi__
.Letext0:
	.file 2 "/home/ajit4/ajit-toolchain/build/buildroot-2014.08/output/host/usr/lib/gcc/sparc-buildroot-linux-uclibc/4.7.4/include/stdint-gcc.h"
	.file 3 "/home/ajit4/ajit-toolchain/AjitPublicResources/tools/ajit_access_routines_mt/include/ajit_access_routines.h"
	.section	.note.GNU-stack,"",@progbits
