
/lindata/My-work/Professional/iitb/development/isa-v2-branch/ajit-toolchain/as-dis-test/asmgen/runs/Monday-March-15-2021-13-27-26/objs/fcmpes.o:     file format elf32-sparc


Disassembly of section .text:

00000000 <main>:
       0:	01 00 00 00 	nop 
       4:	81 a8 0a a0 	fcmpes  %f0, %f0
       8:	81 a8 0a a1 	fcmpes  %f0, %f1
       c:	81 a8 0a a2 	fcmpes  %f0, %f2
      10:	81 a8 0a a3 	fcmpes  %f0, %f3
      14:	81 a8 0a a4 	fcmpes  %f0, %f4
      18:	81 a8 0a a5 	fcmpes  %f0, %f5
      1c:	81 a8 0a a6 	fcmpes  %f0, %f6
      20:	81 a8 0a a7 	fcmpes  %f0, %f7
      24:	81 a8 0a a8 	fcmpes  %f0, %f8
      28:	81 a8 0a a9 	fcmpes  %f0, %f9
      2c:	81 a8 0a aa 	fcmpes  %f0, %f10
      30:	81 a8 0a ab 	fcmpes  %f0, %f11
      34:	81 a8 0a ac 	fcmpes  %f0, %f12
      38:	81 a8 0a ad 	fcmpes  %f0, %f13
      3c:	81 a8 0a ae 	fcmpes  %f0, %f14
      40:	81 a8 0a af 	fcmpes  %f0, %f15
      44:	81 a8 0a b0 	fcmpes  %f0, %f16
      48:	81 a8 0a b1 	fcmpes  %f0, %f17
      4c:	81 a8 0a b2 	fcmpes  %f0, %f18
      50:	81 a8 0a b3 	fcmpes  %f0, %f19
      54:	81 a8 0a b4 	fcmpes  %f0, %f20
      58:	81 a8 0a b5 	fcmpes  %f0, %f21
      5c:	81 a8 0a b6 	fcmpes  %f0, %f22
      60:	81 a8 0a b7 	fcmpes  %f0, %f23
      64:	81 a8 0a b8 	fcmpes  %f0, %f24
      68:	81 a8 0a b9 	fcmpes  %f0, %f25
      6c:	81 a8 0a ba 	fcmpes  %f0, %f26
      70:	81 a8 0a bb 	fcmpes  %f0, %f27
      74:	81 a8 0a bc 	fcmpes  %f0, %f28
      78:	81 a8 0a bd 	fcmpes  %f0, %f29
      7c:	81 a8 0a be 	fcmpes  %f0, %f30
      80:	81 a8 0a bf 	fcmpes  %f0, %f31
      84:	81 a8 4a a0 	fcmpes  %f1, %f0
      88:	81 a8 4a a1 	fcmpes  %f1, %f1
      8c:	81 a8 4a a2 	fcmpes  %f1, %f2
      90:	81 a8 4a a3 	fcmpes  %f1, %f3
      94:	81 a8 4a a4 	fcmpes  %f1, %f4
      98:	81 a8 4a a5 	fcmpes  %f1, %f5
      9c:	81 a8 4a a6 	fcmpes  %f1, %f6
      a0:	81 a8 4a a7 	fcmpes  %f1, %f7
      a4:	81 a8 4a a8 	fcmpes  %f1, %f8
      a8:	81 a8 4a a9 	fcmpes  %f1, %f9
      ac:	81 a8 4a aa 	fcmpes  %f1, %f10
      b0:	81 a8 4a ab 	fcmpes  %f1, %f11
      b4:	81 a8 4a ac 	fcmpes  %f1, %f12
      b8:	81 a8 4a ad 	fcmpes  %f1, %f13
      bc:	81 a8 4a ae 	fcmpes  %f1, %f14
      c0:	81 a8 4a af 	fcmpes  %f1, %f15
      c4:	81 a8 4a b0 	fcmpes  %f1, %f16
      c8:	81 a8 4a b1 	fcmpes  %f1, %f17
      cc:	81 a8 4a b2 	fcmpes  %f1, %f18
      d0:	81 a8 4a b3 	fcmpes  %f1, %f19
      d4:	81 a8 4a b4 	fcmpes  %f1, %f20
      d8:	81 a8 4a b5 	fcmpes  %f1, %f21
      dc:	81 a8 4a b6 	fcmpes  %f1, %f22
      e0:	81 a8 4a b7 	fcmpes  %f1, %f23
      e4:	81 a8 4a b8 	fcmpes  %f1, %f24
      e8:	81 a8 4a b9 	fcmpes  %f1, %f25
      ec:	81 a8 4a ba 	fcmpes  %f1, %f26
      f0:	81 a8 4a bb 	fcmpes  %f1, %f27
      f4:	81 a8 4a bc 	fcmpes  %f1, %f28
      f8:	81 a8 4a bd 	fcmpes  %f1, %f29
      fc:	81 a8 4a be 	fcmpes  %f1, %f30
     100:	81 a8 4a bf 	fcmpes  %f1, %f31
     104:	81 a8 8a a0 	fcmpes  %f2, %f0
     108:	81 a8 8a a1 	fcmpes  %f2, %f1
     10c:	81 a8 8a a2 	fcmpes  %f2, %f2
     110:	81 a8 8a a3 	fcmpes  %f2, %f3
     114:	81 a8 8a a4 	fcmpes  %f2, %f4
     118:	81 a8 8a a5 	fcmpes  %f2, %f5
     11c:	81 a8 8a a6 	fcmpes  %f2, %f6
     120:	81 a8 8a a7 	fcmpes  %f2, %f7
     124:	81 a8 8a a8 	fcmpes  %f2, %f8
     128:	81 a8 8a a9 	fcmpes  %f2, %f9
     12c:	81 a8 8a aa 	fcmpes  %f2, %f10
     130:	81 a8 8a ab 	fcmpes  %f2, %f11
     134:	81 a8 8a ac 	fcmpes  %f2, %f12
     138:	81 a8 8a ad 	fcmpes  %f2, %f13
     13c:	81 a8 8a ae 	fcmpes  %f2, %f14
     140:	81 a8 8a af 	fcmpes  %f2, %f15
     144:	81 a8 8a b0 	fcmpes  %f2, %f16
     148:	81 a8 8a b1 	fcmpes  %f2, %f17
     14c:	81 a8 8a b2 	fcmpes  %f2, %f18
     150:	81 a8 8a b3 	fcmpes  %f2, %f19
     154:	81 a8 8a b4 	fcmpes  %f2, %f20
     158:	81 a8 8a b5 	fcmpes  %f2, %f21
     15c:	81 a8 8a b6 	fcmpes  %f2, %f22
     160:	81 a8 8a b7 	fcmpes  %f2, %f23
     164:	81 a8 8a b8 	fcmpes  %f2, %f24
     168:	81 a8 8a b9 	fcmpes  %f2, %f25
     16c:	81 a8 8a ba 	fcmpes  %f2, %f26
     170:	81 a8 8a bb 	fcmpes  %f2, %f27
     174:	81 a8 8a bc 	fcmpes  %f2, %f28
     178:	81 a8 8a bd 	fcmpes  %f2, %f29
     17c:	81 a8 8a be 	fcmpes  %f2, %f30
     180:	81 a8 8a bf 	fcmpes  %f2, %f31
     184:	81 a8 ca a0 	fcmpes  %f3, %f0
     188:	81 a8 ca a1 	fcmpes  %f3, %f1
     18c:	81 a8 ca a2 	fcmpes  %f3, %f2
     190:	81 a8 ca a3 	fcmpes  %f3, %f3
     194:	81 a8 ca a4 	fcmpes  %f3, %f4
     198:	81 a8 ca a5 	fcmpes  %f3, %f5
     19c:	81 a8 ca a6 	fcmpes  %f3, %f6
     1a0:	81 a8 ca a7 	fcmpes  %f3, %f7
     1a4:	81 a8 ca a8 	fcmpes  %f3, %f8
     1a8:	81 a8 ca a9 	fcmpes  %f3, %f9
     1ac:	81 a8 ca aa 	fcmpes  %f3, %f10
     1b0:	81 a8 ca ab 	fcmpes  %f3, %f11
     1b4:	81 a8 ca ac 	fcmpes  %f3, %f12
     1b8:	81 a8 ca ad 	fcmpes  %f3, %f13
     1bc:	81 a8 ca ae 	fcmpes  %f3, %f14
     1c0:	81 a8 ca af 	fcmpes  %f3, %f15
     1c4:	81 a8 ca b0 	fcmpes  %f3, %f16
     1c8:	81 a8 ca b1 	fcmpes  %f3, %f17
     1cc:	81 a8 ca b2 	fcmpes  %f3, %f18
     1d0:	81 a8 ca b3 	fcmpes  %f3, %f19
     1d4:	81 a8 ca b4 	fcmpes  %f3, %f20
     1d8:	81 a8 ca b5 	fcmpes  %f3, %f21
     1dc:	81 a8 ca b6 	fcmpes  %f3, %f22
     1e0:	81 a8 ca b7 	fcmpes  %f3, %f23
     1e4:	81 a8 ca b8 	fcmpes  %f3, %f24
     1e8:	81 a8 ca b9 	fcmpes  %f3, %f25
     1ec:	81 a8 ca ba 	fcmpes  %f3, %f26
     1f0:	81 a8 ca bb 	fcmpes  %f3, %f27
     1f4:	81 a8 ca bc 	fcmpes  %f3, %f28
     1f8:	81 a8 ca bd 	fcmpes  %f3, %f29
     1fc:	81 a8 ca be 	fcmpes  %f3, %f30
     200:	81 a8 ca bf 	fcmpes  %f3, %f31
     204:	81 a9 0a a0 	fcmpes  %f4, %f0
     208:	81 a9 0a a1 	fcmpes  %f4, %f1
     20c:	81 a9 0a a2 	fcmpes  %f4, %f2
     210:	81 a9 0a a3 	fcmpes  %f4, %f3
     214:	81 a9 0a a4 	fcmpes  %f4, %f4
     218:	81 a9 0a a5 	fcmpes  %f4, %f5
     21c:	81 a9 0a a6 	fcmpes  %f4, %f6
     220:	81 a9 0a a7 	fcmpes  %f4, %f7
     224:	81 a9 0a a8 	fcmpes  %f4, %f8
     228:	81 a9 0a a9 	fcmpes  %f4, %f9
     22c:	81 a9 0a aa 	fcmpes  %f4, %f10
     230:	81 a9 0a ab 	fcmpes  %f4, %f11
     234:	81 a9 0a ac 	fcmpes  %f4, %f12
     238:	81 a9 0a ad 	fcmpes  %f4, %f13
     23c:	81 a9 0a ae 	fcmpes  %f4, %f14
     240:	81 a9 0a af 	fcmpes  %f4, %f15
     244:	81 a9 0a b0 	fcmpes  %f4, %f16
     248:	81 a9 0a b1 	fcmpes  %f4, %f17
     24c:	81 a9 0a b2 	fcmpes  %f4, %f18
     250:	81 a9 0a b3 	fcmpes  %f4, %f19
     254:	81 a9 0a b4 	fcmpes  %f4, %f20
     258:	81 a9 0a b5 	fcmpes  %f4, %f21
     25c:	81 a9 0a b6 	fcmpes  %f4, %f22
     260:	81 a9 0a b7 	fcmpes  %f4, %f23
     264:	81 a9 0a b8 	fcmpes  %f4, %f24
     268:	81 a9 0a b9 	fcmpes  %f4, %f25
     26c:	81 a9 0a ba 	fcmpes  %f4, %f26
     270:	81 a9 0a bb 	fcmpes  %f4, %f27
     274:	81 a9 0a bc 	fcmpes  %f4, %f28
     278:	81 a9 0a bd 	fcmpes  %f4, %f29
     27c:	81 a9 0a be 	fcmpes  %f4, %f30
     280:	81 a9 0a bf 	fcmpes  %f4, %f31
     284:	81 a9 4a a0 	fcmpes  %f5, %f0
     288:	81 a9 4a a1 	fcmpes  %f5, %f1
     28c:	81 a9 4a a2 	fcmpes  %f5, %f2
     290:	81 a9 4a a3 	fcmpes  %f5, %f3
     294:	81 a9 4a a4 	fcmpes  %f5, %f4
     298:	81 a9 4a a5 	fcmpes  %f5, %f5
     29c:	81 a9 4a a6 	fcmpes  %f5, %f6
     2a0:	81 a9 4a a7 	fcmpes  %f5, %f7
     2a4:	81 a9 4a a8 	fcmpes  %f5, %f8
     2a8:	81 a9 4a a9 	fcmpes  %f5, %f9
     2ac:	81 a9 4a aa 	fcmpes  %f5, %f10
     2b0:	81 a9 4a ab 	fcmpes  %f5, %f11
     2b4:	81 a9 4a ac 	fcmpes  %f5, %f12
     2b8:	81 a9 4a ad 	fcmpes  %f5, %f13
     2bc:	81 a9 4a ae 	fcmpes  %f5, %f14
     2c0:	81 a9 4a af 	fcmpes  %f5, %f15
     2c4:	81 a9 4a b0 	fcmpes  %f5, %f16
     2c8:	81 a9 4a b1 	fcmpes  %f5, %f17
     2cc:	81 a9 4a b2 	fcmpes  %f5, %f18
     2d0:	81 a9 4a b3 	fcmpes  %f5, %f19
     2d4:	81 a9 4a b4 	fcmpes  %f5, %f20
     2d8:	81 a9 4a b5 	fcmpes  %f5, %f21
     2dc:	81 a9 4a b6 	fcmpes  %f5, %f22
     2e0:	81 a9 4a b7 	fcmpes  %f5, %f23
     2e4:	81 a9 4a b8 	fcmpes  %f5, %f24
     2e8:	81 a9 4a b9 	fcmpes  %f5, %f25
     2ec:	81 a9 4a ba 	fcmpes  %f5, %f26
     2f0:	81 a9 4a bb 	fcmpes  %f5, %f27
     2f4:	81 a9 4a bc 	fcmpes  %f5, %f28
     2f8:	81 a9 4a bd 	fcmpes  %f5, %f29
     2fc:	81 a9 4a be 	fcmpes  %f5, %f30
     300:	81 a9 4a bf 	fcmpes  %f5, %f31
     304:	81 a9 8a a0 	fcmpes  %f6, %f0
     308:	81 a9 8a a1 	fcmpes  %f6, %f1
     30c:	81 a9 8a a2 	fcmpes  %f6, %f2
     310:	81 a9 8a a3 	fcmpes  %f6, %f3
     314:	81 a9 8a a4 	fcmpes  %f6, %f4
     318:	81 a9 8a a5 	fcmpes  %f6, %f5
     31c:	81 a9 8a a6 	fcmpes  %f6, %f6
     320:	81 a9 8a a7 	fcmpes  %f6, %f7
     324:	81 a9 8a a8 	fcmpes  %f6, %f8
     328:	81 a9 8a a9 	fcmpes  %f6, %f9
     32c:	81 a9 8a aa 	fcmpes  %f6, %f10
     330:	81 a9 8a ab 	fcmpes  %f6, %f11
     334:	81 a9 8a ac 	fcmpes  %f6, %f12
     338:	81 a9 8a ad 	fcmpes  %f6, %f13
     33c:	81 a9 8a ae 	fcmpes  %f6, %f14
     340:	81 a9 8a af 	fcmpes  %f6, %f15
     344:	81 a9 8a b0 	fcmpes  %f6, %f16
     348:	81 a9 8a b1 	fcmpes  %f6, %f17
     34c:	81 a9 8a b2 	fcmpes  %f6, %f18
     350:	81 a9 8a b3 	fcmpes  %f6, %f19
     354:	81 a9 8a b4 	fcmpes  %f6, %f20
     358:	81 a9 8a b5 	fcmpes  %f6, %f21
     35c:	81 a9 8a b6 	fcmpes  %f6, %f22
     360:	81 a9 8a b7 	fcmpes  %f6, %f23
     364:	81 a9 8a b8 	fcmpes  %f6, %f24
     368:	81 a9 8a b9 	fcmpes  %f6, %f25
     36c:	81 a9 8a ba 	fcmpes  %f6, %f26
     370:	81 a9 8a bb 	fcmpes  %f6, %f27
     374:	81 a9 8a bc 	fcmpes  %f6, %f28
     378:	81 a9 8a bd 	fcmpes  %f6, %f29
     37c:	81 a9 8a be 	fcmpes  %f6, %f30
     380:	81 a9 8a bf 	fcmpes  %f6, %f31
     384:	81 a9 ca a0 	fcmpes  %f7, %f0
     388:	81 a9 ca a1 	fcmpes  %f7, %f1
     38c:	81 a9 ca a2 	fcmpes  %f7, %f2
     390:	81 a9 ca a3 	fcmpes  %f7, %f3
     394:	81 a9 ca a4 	fcmpes  %f7, %f4
     398:	81 a9 ca a5 	fcmpes  %f7, %f5
     39c:	81 a9 ca a6 	fcmpes  %f7, %f6
     3a0:	81 a9 ca a7 	fcmpes  %f7, %f7
     3a4:	81 a9 ca a8 	fcmpes  %f7, %f8
     3a8:	81 a9 ca a9 	fcmpes  %f7, %f9
     3ac:	81 a9 ca aa 	fcmpes  %f7, %f10
     3b0:	81 a9 ca ab 	fcmpes  %f7, %f11
     3b4:	81 a9 ca ac 	fcmpes  %f7, %f12
     3b8:	81 a9 ca ad 	fcmpes  %f7, %f13
     3bc:	81 a9 ca ae 	fcmpes  %f7, %f14
     3c0:	81 a9 ca af 	fcmpes  %f7, %f15
     3c4:	81 a9 ca b0 	fcmpes  %f7, %f16
     3c8:	81 a9 ca b1 	fcmpes  %f7, %f17
     3cc:	81 a9 ca b2 	fcmpes  %f7, %f18
     3d0:	81 a9 ca b3 	fcmpes  %f7, %f19
     3d4:	81 a9 ca b4 	fcmpes  %f7, %f20
     3d8:	81 a9 ca b5 	fcmpes  %f7, %f21
     3dc:	81 a9 ca b6 	fcmpes  %f7, %f22
     3e0:	81 a9 ca b7 	fcmpes  %f7, %f23
     3e4:	81 a9 ca b8 	fcmpes  %f7, %f24
     3e8:	81 a9 ca b9 	fcmpes  %f7, %f25
     3ec:	81 a9 ca ba 	fcmpes  %f7, %f26
     3f0:	81 a9 ca bb 	fcmpes  %f7, %f27
     3f4:	81 a9 ca bc 	fcmpes  %f7, %f28
     3f8:	81 a9 ca bd 	fcmpes  %f7, %f29
     3fc:	81 a9 ca be 	fcmpes  %f7, %f30
     400:	81 a9 ca bf 	fcmpes  %f7, %f31
     404:	81 aa 0a a0 	fcmpes  %f8, %f0
     408:	81 aa 0a a1 	fcmpes  %f8, %f1
     40c:	81 aa 0a a2 	fcmpes  %f8, %f2
     410:	81 aa 0a a3 	fcmpes  %f8, %f3
     414:	81 aa 0a a4 	fcmpes  %f8, %f4
     418:	81 aa 0a a5 	fcmpes  %f8, %f5
     41c:	81 aa 0a a6 	fcmpes  %f8, %f6
     420:	81 aa 0a a7 	fcmpes  %f8, %f7
     424:	81 aa 0a a8 	fcmpes  %f8, %f8
     428:	81 aa 0a a9 	fcmpes  %f8, %f9
     42c:	81 aa 0a aa 	fcmpes  %f8, %f10
     430:	81 aa 0a ab 	fcmpes  %f8, %f11
     434:	81 aa 0a ac 	fcmpes  %f8, %f12
     438:	81 aa 0a ad 	fcmpes  %f8, %f13
     43c:	81 aa 0a ae 	fcmpes  %f8, %f14
     440:	81 aa 0a af 	fcmpes  %f8, %f15
     444:	81 aa 0a b0 	fcmpes  %f8, %f16
     448:	81 aa 0a b1 	fcmpes  %f8, %f17
     44c:	81 aa 0a b2 	fcmpes  %f8, %f18
     450:	81 aa 0a b3 	fcmpes  %f8, %f19
     454:	81 aa 0a b4 	fcmpes  %f8, %f20
     458:	81 aa 0a b5 	fcmpes  %f8, %f21
     45c:	81 aa 0a b6 	fcmpes  %f8, %f22
     460:	81 aa 0a b7 	fcmpes  %f8, %f23
     464:	81 aa 0a b8 	fcmpes  %f8, %f24
     468:	81 aa 0a b9 	fcmpes  %f8, %f25
     46c:	81 aa 0a ba 	fcmpes  %f8, %f26
     470:	81 aa 0a bb 	fcmpes  %f8, %f27
     474:	81 aa 0a bc 	fcmpes  %f8, %f28
     478:	81 aa 0a bd 	fcmpes  %f8, %f29
     47c:	81 aa 0a be 	fcmpes  %f8, %f30
     480:	81 aa 0a bf 	fcmpes  %f8, %f31
     484:	81 aa 4a a0 	fcmpes  %f9, %f0
     488:	81 aa 4a a1 	fcmpes  %f9, %f1
     48c:	81 aa 4a a2 	fcmpes  %f9, %f2
     490:	81 aa 4a a3 	fcmpes  %f9, %f3
     494:	81 aa 4a a4 	fcmpes  %f9, %f4
     498:	81 aa 4a a5 	fcmpes  %f9, %f5
     49c:	81 aa 4a a6 	fcmpes  %f9, %f6
     4a0:	81 aa 4a a7 	fcmpes  %f9, %f7
     4a4:	81 aa 4a a8 	fcmpes  %f9, %f8
     4a8:	81 aa 4a a9 	fcmpes  %f9, %f9
     4ac:	81 aa 4a aa 	fcmpes  %f9, %f10
     4b0:	81 aa 4a ab 	fcmpes  %f9, %f11
     4b4:	81 aa 4a ac 	fcmpes  %f9, %f12
     4b8:	81 aa 4a ad 	fcmpes  %f9, %f13
     4bc:	81 aa 4a ae 	fcmpes  %f9, %f14
     4c0:	81 aa 4a af 	fcmpes  %f9, %f15
     4c4:	81 aa 4a b0 	fcmpes  %f9, %f16
     4c8:	81 aa 4a b1 	fcmpes  %f9, %f17
     4cc:	81 aa 4a b2 	fcmpes  %f9, %f18
     4d0:	81 aa 4a b3 	fcmpes  %f9, %f19
     4d4:	81 aa 4a b4 	fcmpes  %f9, %f20
     4d8:	81 aa 4a b5 	fcmpes  %f9, %f21
     4dc:	81 aa 4a b6 	fcmpes  %f9, %f22
     4e0:	81 aa 4a b7 	fcmpes  %f9, %f23
     4e4:	81 aa 4a b8 	fcmpes  %f9, %f24
     4e8:	81 aa 4a b9 	fcmpes  %f9, %f25
     4ec:	81 aa 4a ba 	fcmpes  %f9, %f26
     4f0:	81 aa 4a bb 	fcmpes  %f9, %f27
     4f4:	81 aa 4a bc 	fcmpes  %f9, %f28
     4f8:	81 aa 4a bd 	fcmpes  %f9, %f29
     4fc:	81 aa 4a be 	fcmpes  %f9, %f30
     500:	81 aa 4a bf 	fcmpes  %f9, %f31
     504:	81 aa 8a a0 	fcmpes  %f10, %f0
     508:	81 aa 8a a1 	fcmpes  %f10, %f1
     50c:	81 aa 8a a2 	fcmpes  %f10, %f2
     510:	81 aa 8a a3 	fcmpes  %f10, %f3
     514:	81 aa 8a a4 	fcmpes  %f10, %f4
     518:	81 aa 8a a5 	fcmpes  %f10, %f5
     51c:	81 aa 8a a6 	fcmpes  %f10, %f6
     520:	81 aa 8a a7 	fcmpes  %f10, %f7
     524:	81 aa 8a a8 	fcmpes  %f10, %f8
     528:	81 aa 8a a9 	fcmpes  %f10, %f9
     52c:	81 aa 8a aa 	fcmpes  %f10, %f10
     530:	81 aa 8a ab 	fcmpes  %f10, %f11
     534:	81 aa 8a ac 	fcmpes  %f10, %f12
     538:	81 aa 8a ad 	fcmpes  %f10, %f13
     53c:	81 aa 8a ae 	fcmpes  %f10, %f14
     540:	81 aa 8a af 	fcmpes  %f10, %f15
     544:	81 aa 8a b0 	fcmpes  %f10, %f16
     548:	81 aa 8a b1 	fcmpes  %f10, %f17
     54c:	81 aa 8a b2 	fcmpes  %f10, %f18
     550:	81 aa 8a b3 	fcmpes  %f10, %f19
     554:	81 aa 8a b4 	fcmpes  %f10, %f20
     558:	81 aa 8a b5 	fcmpes  %f10, %f21
     55c:	81 aa 8a b6 	fcmpes  %f10, %f22
     560:	81 aa 8a b7 	fcmpes  %f10, %f23
     564:	81 aa 8a b8 	fcmpes  %f10, %f24
     568:	81 aa 8a b9 	fcmpes  %f10, %f25
     56c:	81 aa 8a ba 	fcmpes  %f10, %f26
     570:	81 aa 8a bb 	fcmpes  %f10, %f27
     574:	81 aa 8a bc 	fcmpes  %f10, %f28
     578:	81 aa 8a bd 	fcmpes  %f10, %f29
     57c:	81 aa 8a be 	fcmpes  %f10, %f30
     580:	81 aa 8a bf 	fcmpes  %f10, %f31
     584:	81 aa ca a0 	fcmpes  %f11, %f0
     588:	81 aa ca a1 	fcmpes  %f11, %f1
     58c:	81 aa ca a2 	fcmpes  %f11, %f2
     590:	81 aa ca a3 	fcmpes  %f11, %f3
     594:	81 aa ca a4 	fcmpes  %f11, %f4
     598:	81 aa ca a5 	fcmpes  %f11, %f5
     59c:	81 aa ca a6 	fcmpes  %f11, %f6
     5a0:	81 aa ca a7 	fcmpes  %f11, %f7
     5a4:	81 aa ca a8 	fcmpes  %f11, %f8
     5a8:	81 aa ca a9 	fcmpes  %f11, %f9
     5ac:	81 aa ca aa 	fcmpes  %f11, %f10
     5b0:	81 aa ca ab 	fcmpes  %f11, %f11
     5b4:	81 aa ca ac 	fcmpes  %f11, %f12
     5b8:	81 aa ca ad 	fcmpes  %f11, %f13
     5bc:	81 aa ca ae 	fcmpes  %f11, %f14
     5c0:	81 aa ca af 	fcmpes  %f11, %f15
     5c4:	81 aa ca b0 	fcmpes  %f11, %f16
     5c8:	81 aa ca b1 	fcmpes  %f11, %f17
     5cc:	81 aa ca b2 	fcmpes  %f11, %f18
     5d0:	81 aa ca b3 	fcmpes  %f11, %f19
     5d4:	81 aa ca b4 	fcmpes  %f11, %f20
     5d8:	81 aa ca b5 	fcmpes  %f11, %f21
     5dc:	81 aa ca b6 	fcmpes  %f11, %f22
     5e0:	81 aa ca b7 	fcmpes  %f11, %f23
     5e4:	81 aa ca b8 	fcmpes  %f11, %f24
     5e8:	81 aa ca b9 	fcmpes  %f11, %f25
     5ec:	81 aa ca ba 	fcmpes  %f11, %f26
     5f0:	81 aa ca bb 	fcmpes  %f11, %f27
     5f4:	81 aa ca bc 	fcmpes  %f11, %f28
     5f8:	81 aa ca bd 	fcmpes  %f11, %f29
     5fc:	81 aa ca be 	fcmpes  %f11, %f30
     600:	81 aa ca bf 	fcmpes  %f11, %f31
     604:	81 ab 0a a0 	fcmpes  %f12, %f0
     608:	81 ab 0a a1 	fcmpes  %f12, %f1
     60c:	81 ab 0a a2 	fcmpes  %f12, %f2
     610:	81 ab 0a a3 	fcmpes  %f12, %f3
     614:	81 ab 0a a4 	fcmpes  %f12, %f4
     618:	81 ab 0a a5 	fcmpes  %f12, %f5
     61c:	81 ab 0a a6 	fcmpes  %f12, %f6
     620:	81 ab 0a a7 	fcmpes  %f12, %f7
     624:	81 ab 0a a8 	fcmpes  %f12, %f8
     628:	81 ab 0a a9 	fcmpes  %f12, %f9
     62c:	81 ab 0a aa 	fcmpes  %f12, %f10
     630:	81 ab 0a ab 	fcmpes  %f12, %f11
     634:	81 ab 0a ac 	fcmpes  %f12, %f12
     638:	81 ab 0a ad 	fcmpes  %f12, %f13
     63c:	81 ab 0a ae 	fcmpes  %f12, %f14
     640:	81 ab 0a af 	fcmpes  %f12, %f15
     644:	81 ab 0a b0 	fcmpes  %f12, %f16
     648:	81 ab 0a b1 	fcmpes  %f12, %f17
     64c:	81 ab 0a b2 	fcmpes  %f12, %f18
     650:	81 ab 0a b3 	fcmpes  %f12, %f19
     654:	81 ab 0a b4 	fcmpes  %f12, %f20
     658:	81 ab 0a b5 	fcmpes  %f12, %f21
     65c:	81 ab 0a b6 	fcmpes  %f12, %f22
     660:	81 ab 0a b7 	fcmpes  %f12, %f23
     664:	81 ab 0a b8 	fcmpes  %f12, %f24
     668:	81 ab 0a b9 	fcmpes  %f12, %f25
     66c:	81 ab 0a ba 	fcmpes  %f12, %f26
     670:	81 ab 0a bb 	fcmpes  %f12, %f27
     674:	81 ab 0a bc 	fcmpes  %f12, %f28
     678:	81 ab 0a bd 	fcmpes  %f12, %f29
     67c:	81 ab 0a be 	fcmpes  %f12, %f30
     680:	81 ab 0a bf 	fcmpes  %f12, %f31
     684:	81 ab 4a a0 	fcmpes  %f13, %f0
     688:	81 ab 4a a1 	fcmpes  %f13, %f1
     68c:	81 ab 4a a2 	fcmpes  %f13, %f2
     690:	81 ab 4a a3 	fcmpes  %f13, %f3
     694:	81 ab 4a a4 	fcmpes  %f13, %f4
     698:	81 ab 4a a5 	fcmpes  %f13, %f5
     69c:	81 ab 4a a6 	fcmpes  %f13, %f6
     6a0:	81 ab 4a a7 	fcmpes  %f13, %f7
     6a4:	81 ab 4a a8 	fcmpes  %f13, %f8
     6a8:	81 ab 4a a9 	fcmpes  %f13, %f9
     6ac:	81 ab 4a aa 	fcmpes  %f13, %f10
     6b0:	81 ab 4a ab 	fcmpes  %f13, %f11
     6b4:	81 ab 4a ac 	fcmpes  %f13, %f12
     6b8:	81 ab 4a ad 	fcmpes  %f13, %f13
     6bc:	81 ab 4a ae 	fcmpes  %f13, %f14
     6c0:	81 ab 4a af 	fcmpes  %f13, %f15
     6c4:	81 ab 4a b0 	fcmpes  %f13, %f16
     6c8:	81 ab 4a b1 	fcmpes  %f13, %f17
     6cc:	81 ab 4a b2 	fcmpes  %f13, %f18
     6d0:	81 ab 4a b3 	fcmpes  %f13, %f19
     6d4:	81 ab 4a b4 	fcmpes  %f13, %f20
     6d8:	81 ab 4a b5 	fcmpes  %f13, %f21
     6dc:	81 ab 4a b6 	fcmpes  %f13, %f22
     6e0:	81 ab 4a b7 	fcmpes  %f13, %f23
     6e4:	81 ab 4a b8 	fcmpes  %f13, %f24
     6e8:	81 ab 4a b9 	fcmpes  %f13, %f25
     6ec:	81 ab 4a ba 	fcmpes  %f13, %f26
     6f0:	81 ab 4a bb 	fcmpes  %f13, %f27
     6f4:	81 ab 4a bc 	fcmpes  %f13, %f28
     6f8:	81 ab 4a bd 	fcmpes  %f13, %f29
     6fc:	81 ab 4a be 	fcmpes  %f13, %f30
     700:	81 ab 4a bf 	fcmpes  %f13, %f31
     704:	81 ab 8a a0 	fcmpes  %f14, %f0
     708:	81 ab 8a a1 	fcmpes  %f14, %f1
     70c:	81 ab 8a a2 	fcmpes  %f14, %f2
     710:	81 ab 8a a3 	fcmpes  %f14, %f3
     714:	81 ab 8a a4 	fcmpes  %f14, %f4
     718:	81 ab 8a a5 	fcmpes  %f14, %f5
     71c:	81 ab 8a a6 	fcmpes  %f14, %f6
     720:	81 ab 8a a7 	fcmpes  %f14, %f7
     724:	81 ab 8a a8 	fcmpes  %f14, %f8
     728:	81 ab 8a a9 	fcmpes  %f14, %f9
     72c:	81 ab 8a aa 	fcmpes  %f14, %f10
     730:	81 ab 8a ab 	fcmpes  %f14, %f11
     734:	81 ab 8a ac 	fcmpes  %f14, %f12
     738:	81 ab 8a ad 	fcmpes  %f14, %f13
     73c:	81 ab 8a ae 	fcmpes  %f14, %f14
     740:	81 ab 8a af 	fcmpes  %f14, %f15
     744:	81 ab 8a b0 	fcmpes  %f14, %f16
     748:	81 ab 8a b1 	fcmpes  %f14, %f17
     74c:	81 ab 8a b2 	fcmpes  %f14, %f18
     750:	81 ab 8a b3 	fcmpes  %f14, %f19
     754:	81 ab 8a b4 	fcmpes  %f14, %f20
     758:	81 ab 8a b5 	fcmpes  %f14, %f21
     75c:	81 ab 8a b6 	fcmpes  %f14, %f22
     760:	81 ab 8a b7 	fcmpes  %f14, %f23
     764:	81 ab 8a b8 	fcmpes  %f14, %f24
     768:	81 ab 8a b9 	fcmpes  %f14, %f25
     76c:	81 ab 8a ba 	fcmpes  %f14, %f26
     770:	81 ab 8a bb 	fcmpes  %f14, %f27
     774:	81 ab 8a bc 	fcmpes  %f14, %f28
     778:	81 ab 8a bd 	fcmpes  %f14, %f29
     77c:	81 ab 8a be 	fcmpes  %f14, %f30
     780:	81 ab 8a bf 	fcmpes  %f14, %f31
     784:	81 ab ca a0 	fcmpes  %f15, %f0
     788:	81 ab ca a1 	fcmpes  %f15, %f1
     78c:	81 ab ca a2 	fcmpes  %f15, %f2
     790:	81 ab ca a3 	fcmpes  %f15, %f3
     794:	81 ab ca a4 	fcmpes  %f15, %f4
     798:	81 ab ca a5 	fcmpes  %f15, %f5
     79c:	81 ab ca a6 	fcmpes  %f15, %f6
     7a0:	81 ab ca a7 	fcmpes  %f15, %f7
     7a4:	81 ab ca a8 	fcmpes  %f15, %f8
     7a8:	81 ab ca a9 	fcmpes  %f15, %f9
     7ac:	81 ab ca aa 	fcmpes  %f15, %f10
     7b0:	81 ab ca ab 	fcmpes  %f15, %f11
     7b4:	81 ab ca ac 	fcmpes  %f15, %f12
     7b8:	81 ab ca ad 	fcmpes  %f15, %f13
     7bc:	81 ab ca ae 	fcmpes  %f15, %f14
     7c0:	81 ab ca af 	fcmpes  %f15, %f15
     7c4:	81 ab ca b0 	fcmpes  %f15, %f16
     7c8:	81 ab ca b1 	fcmpes  %f15, %f17
     7cc:	81 ab ca b2 	fcmpes  %f15, %f18
     7d0:	81 ab ca b3 	fcmpes  %f15, %f19
     7d4:	81 ab ca b4 	fcmpes  %f15, %f20
     7d8:	81 ab ca b5 	fcmpes  %f15, %f21
     7dc:	81 ab ca b6 	fcmpes  %f15, %f22
     7e0:	81 ab ca b7 	fcmpes  %f15, %f23
     7e4:	81 ab ca b8 	fcmpes  %f15, %f24
     7e8:	81 ab ca b9 	fcmpes  %f15, %f25
     7ec:	81 ab ca ba 	fcmpes  %f15, %f26
     7f0:	81 ab ca bb 	fcmpes  %f15, %f27
     7f4:	81 ab ca bc 	fcmpes  %f15, %f28
     7f8:	81 ab ca bd 	fcmpes  %f15, %f29
     7fc:	81 ab ca be 	fcmpes  %f15, %f30
     800:	81 ab ca bf 	fcmpes  %f15, %f31
     804:	81 ac 0a a0 	fcmpes  %f16, %f0
     808:	81 ac 0a a1 	fcmpes  %f16, %f1
     80c:	81 ac 0a a2 	fcmpes  %f16, %f2
     810:	81 ac 0a a3 	fcmpes  %f16, %f3
     814:	81 ac 0a a4 	fcmpes  %f16, %f4
     818:	81 ac 0a a5 	fcmpes  %f16, %f5
     81c:	81 ac 0a a6 	fcmpes  %f16, %f6
     820:	81 ac 0a a7 	fcmpes  %f16, %f7
     824:	81 ac 0a a8 	fcmpes  %f16, %f8
     828:	81 ac 0a a9 	fcmpes  %f16, %f9
     82c:	81 ac 0a aa 	fcmpes  %f16, %f10
     830:	81 ac 0a ab 	fcmpes  %f16, %f11
     834:	81 ac 0a ac 	fcmpes  %f16, %f12
     838:	81 ac 0a ad 	fcmpes  %f16, %f13
     83c:	81 ac 0a ae 	fcmpes  %f16, %f14
     840:	81 ac 0a af 	fcmpes  %f16, %f15
     844:	81 ac 0a b0 	fcmpes  %f16, %f16
     848:	81 ac 0a b1 	fcmpes  %f16, %f17
     84c:	81 ac 0a b2 	fcmpes  %f16, %f18
     850:	81 ac 0a b3 	fcmpes  %f16, %f19
     854:	81 ac 0a b4 	fcmpes  %f16, %f20
     858:	81 ac 0a b5 	fcmpes  %f16, %f21
     85c:	81 ac 0a b6 	fcmpes  %f16, %f22
     860:	81 ac 0a b7 	fcmpes  %f16, %f23
     864:	81 ac 0a b8 	fcmpes  %f16, %f24
     868:	81 ac 0a b9 	fcmpes  %f16, %f25
     86c:	81 ac 0a ba 	fcmpes  %f16, %f26
     870:	81 ac 0a bb 	fcmpes  %f16, %f27
     874:	81 ac 0a bc 	fcmpes  %f16, %f28
     878:	81 ac 0a bd 	fcmpes  %f16, %f29
     87c:	81 ac 0a be 	fcmpes  %f16, %f30
     880:	81 ac 0a bf 	fcmpes  %f16, %f31
     884:	81 ac 4a a0 	fcmpes  %f17, %f0
     888:	81 ac 4a a1 	fcmpes  %f17, %f1
     88c:	81 ac 4a a2 	fcmpes  %f17, %f2
     890:	81 ac 4a a3 	fcmpes  %f17, %f3
     894:	81 ac 4a a4 	fcmpes  %f17, %f4
     898:	81 ac 4a a5 	fcmpes  %f17, %f5
     89c:	81 ac 4a a6 	fcmpes  %f17, %f6
     8a0:	81 ac 4a a7 	fcmpes  %f17, %f7
     8a4:	81 ac 4a a8 	fcmpes  %f17, %f8
     8a8:	81 ac 4a a9 	fcmpes  %f17, %f9
     8ac:	81 ac 4a aa 	fcmpes  %f17, %f10
     8b0:	81 ac 4a ab 	fcmpes  %f17, %f11
     8b4:	81 ac 4a ac 	fcmpes  %f17, %f12
     8b8:	81 ac 4a ad 	fcmpes  %f17, %f13
     8bc:	81 ac 4a ae 	fcmpes  %f17, %f14
     8c0:	81 ac 4a af 	fcmpes  %f17, %f15
     8c4:	81 ac 4a b0 	fcmpes  %f17, %f16
     8c8:	81 ac 4a b1 	fcmpes  %f17, %f17
     8cc:	81 ac 4a b2 	fcmpes  %f17, %f18
     8d0:	81 ac 4a b3 	fcmpes  %f17, %f19
     8d4:	81 ac 4a b4 	fcmpes  %f17, %f20
     8d8:	81 ac 4a b5 	fcmpes  %f17, %f21
     8dc:	81 ac 4a b6 	fcmpes  %f17, %f22
     8e0:	81 ac 4a b7 	fcmpes  %f17, %f23
     8e4:	81 ac 4a b8 	fcmpes  %f17, %f24
     8e8:	81 ac 4a b9 	fcmpes  %f17, %f25
     8ec:	81 ac 4a ba 	fcmpes  %f17, %f26
     8f0:	81 ac 4a bb 	fcmpes  %f17, %f27
     8f4:	81 ac 4a bc 	fcmpes  %f17, %f28
     8f8:	81 ac 4a bd 	fcmpes  %f17, %f29
     8fc:	81 ac 4a be 	fcmpes  %f17, %f30
     900:	81 ac 4a bf 	fcmpes  %f17, %f31
     904:	81 ac 8a a0 	fcmpes  %f18, %f0
     908:	81 ac 8a a1 	fcmpes  %f18, %f1
     90c:	81 ac 8a a2 	fcmpes  %f18, %f2
     910:	81 ac 8a a3 	fcmpes  %f18, %f3
     914:	81 ac 8a a4 	fcmpes  %f18, %f4
     918:	81 ac 8a a5 	fcmpes  %f18, %f5
     91c:	81 ac 8a a6 	fcmpes  %f18, %f6
     920:	81 ac 8a a7 	fcmpes  %f18, %f7
     924:	81 ac 8a a8 	fcmpes  %f18, %f8
     928:	81 ac 8a a9 	fcmpes  %f18, %f9
     92c:	81 ac 8a aa 	fcmpes  %f18, %f10
     930:	81 ac 8a ab 	fcmpes  %f18, %f11
     934:	81 ac 8a ac 	fcmpes  %f18, %f12
     938:	81 ac 8a ad 	fcmpes  %f18, %f13
     93c:	81 ac 8a ae 	fcmpes  %f18, %f14
     940:	81 ac 8a af 	fcmpes  %f18, %f15
     944:	81 ac 8a b0 	fcmpes  %f18, %f16
     948:	81 ac 8a b1 	fcmpes  %f18, %f17
     94c:	81 ac 8a b2 	fcmpes  %f18, %f18
     950:	81 ac 8a b3 	fcmpes  %f18, %f19
     954:	81 ac 8a b4 	fcmpes  %f18, %f20
     958:	81 ac 8a b5 	fcmpes  %f18, %f21
     95c:	81 ac 8a b6 	fcmpes  %f18, %f22
     960:	81 ac 8a b7 	fcmpes  %f18, %f23
     964:	81 ac 8a b8 	fcmpes  %f18, %f24
     968:	81 ac 8a b9 	fcmpes  %f18, %f25
     96c:	81 ac 8a ba 	fcmpes  %f18, %f26
     970:	81 ac 8a bb 	fcmpes  %f18, %f27
     974:	81 ac 8a bc 	fcmpes  %f18, %f28
     978:	81 ac 8a bd 	fcmpes  %f18, %f29
     97c:	81 ac 8a be 	fcmpes  %f18, %f30
     980:	81 ac 8a bf 	fcmpes  %f18, %f31
     984:	81 ac ca a0 	fcmpes  %f19, %f0
     988:	81 ac ca a1 	fcmpes  %f19, %f1
     98c:	81 ac ca a2 	fcmpes  %f19, %f2
     990:	81 ac ca a3 	fcmpes  %f19, %f3
     994:	81 ac ca a4 	fcmpes  %f19, %f4
     998:	81 ac ca a5 	fcmpes  %f19, %f5
     99c:	81 ac ca a6 	fcmpes  %f19, %f6
     9a0:	81 ac ca a7 	fcmpes  %f19, %f7
     9a4:	81 ac ca a8 	fcmpes  %f19, %f8
     9a8:	81 ac ca a9 	fcmpes  %f19, %f9
     9ac:	81 ac ca aa 	fcmpes  %f19, %f10
     9b0:	81 ac ca ab 	fcmpes  %f19, %f11
     9b4:	81 ac ca ac 	fcmpes  %f19, %f12
     9b8:	81 ac ca ad 	fcmpes  %f19, %f13
     9bc:	81 ac ca ae 	fcmpes  %f19, %f14
     9c0:	81 ac ca af 	fcmpes  %f19, %f15
     9c4:	81 ac ca b0 	fcmpes  %f19, %f16
     9c8:	81 ac ca b1 	fcmpes  %f19, %f17
     9cc:	81 ac ca b2 	fcmpes  %f19, %f18
     9d0:	81 ac ca b3 	fcmpes  %f19, %f19
     9d4:	81 ac ca b4 	fcmpes  %f19, %f20
     9d8:	81 ac ca b5 	fcmpes  %f19, %f21
     9dc:	81 ac ca b6 	fcmpes  %f19, %f22
     9e0:	81 ac ca b7 	fcmpes  %f19, %f23
     9e4:	81 ac ca b8 	fcmpes  %f19, %f24
     9e8:	81 ac ca b9 	fcmpes  %f19, %f25
     9ec:	81 ac ca ba 	fcmpes  %f19, %f26
     9f0:	81 ac ca bb 	fcmpes  %f19, %f27
     9f4:	81 ac ca bc 	fcmpes  %f19, %f28
     9f8:	81 ac ca bd 	fcmpes  %f19, %f29
     9fc:	81 ac ca be 	fcmpes  %f19, %f30
     a00:	81 ac ca bf 	fcmpes  %f19, %f31
     a04:	81 ad 0a a0 	fcmpes  %f20, %f0
     a08:	81 ad 0a a1 	fcmpes  %f20, %f1
     a0c:	81 ad 0a a2 	fcmpes  %f20, %f2
     a10:	81 ad 0a a3 	fcmpes  %f20, %f3
     a14:	81 ad 0a a4 	fcmpes  %f20, %f4
     a18:	81 ad 0a a5 	fcmpes  %f20, %f5
     a1c:	81 ad 0a a6 	fcmpes  %f20, %f6
     a20:	81 ad 0a a7 	fcmpes  %f20, %f7
     a24:	81 ad 0a a8 	fcmpes  %f20, %f8
     a28:	81 ad 0a a9 	fcmpes  %f20, %f9
     a2c:	81 ad 0a aa 	fcmpes  %f20, %f10
     a30:	81 ad 0a ab 	fcmpes  %f20, %f11
     a34:	81 ad 0a ac 	fcmpes  %f20, %f12
     a38:	81 ad 0a ad 	fcmpes  %f20, %f13
     a3c:	81 ad 0a ae 	fcmpes  %f20, %f14
     a40:	81 ad 0a af 	fcmpes  %f20, %f15
     a44:	81 ad 0a b0 	fcmpes  %f20, %f16
     a48:	81 ad 0a b1 	fcmpes  %f20, %f17
     a4c:	81 ad 0a b2 	fcmpes  %f20, %f18
     a50:	81 ad 0a b3 	fcmpes  %f20, %f19
     a54:	81 ad 0a b4 	fcmpes  %f20, %f20
     a58:	81 ad 0a b5 	fcmpes  %f20, %f21
     a5c:	81 ad 0a b6 	fcmpes  %f20, %f22
     a60:	81 ad 0a b7 	fcmpes  %f20, %f23
     a64:	81 ad 0a b8 	fcmpes  %f20, %f24
     a68:	81 ad 0a b9 	fcmpes  %f20, %f25
     a6c:	81 ad 0a ba 	fcmpes  %f20, %f26
     a70:	81 ad 0a bb 	fcmpes  %f20, %f27
     a74:	81 ad 0a bc 	fcmpes  %f20, %f28
     a78:	81 ad 0a bd 	fcmpes  %f20, %f29
     a7c:	81 ad 0a be 	fcmpes  %f20, %f30
     a80:	81 ad 0a bf 	fcmpes  %f20, %f31
     a84:	81 ad 4a a0 	fcmpes  %f21, %f0
     a88:	81 ad 4a a1 	fcmpes  %f21, %f1
     a8c:	81 ad 4a a2 	fcmpes  %f21, %f2
     a90:	81 ad 4a a3 	fcmpes  %f21, %f3
     a94:	81 ad 4a a4 	fcmpes  %f21, %f4
     a98:	81 ad 4a a5 	fcmpes  %f21, %f5
     a9c:	81 ad 4a a6 	fcmpes  %f21, %f6
     aa0:	81 ad 4a a7 	fcmpes  %f21, %f7
     aa4:	81 ad 4a a8 	fcmpes  %f21, %f8
     aa8:	81 ad 4a a9 	fcmpes  %f21, %f9
     aac:	81 ad 4a aa 	fcmpes  %f21, %f10
     ab0:	81 ad 4a ab 	fcmpes  %f21, %f11
     ab4:	81 ad 4a ac 	fcmpes  %f21, %f12
     ab8:	81 ad 4a ad 	fcmpes  %f21, %f13
     abc:	81 ad 4a ae 	fcmpes  %f21, %f14
     ac0:	81 ad 4a af 	fcmpes  %f21, %f15
     ac4:	81 ad 4a b0 	fcmpes  %f21, %f16
     ac8:	81 ad 4a b1 	fcmpes  %f21, %f17
     acc:	81 ad 4a b2 	fcmpes  %f21, %f18
     ad0:	81 ad 4a b3 	fcmpes  %f21, %f19
     ad4:	81 ad 4a b4 	fcmpes  %f21, %f20
     ad8:	81 ad 4a b5 	fcmpes  %f21, %f21
     adc:	81 ad 4a b6 	fcmpes  %f21, %f22
     ae0:	81 ad 4a b7 	fcmpes  %f21, %f23
     ae4:	81 ad 4a b8 	fcmpes  %f21, %f24
     ae8:	81 ad 4a b9 	fcmpes  %f21, %f25
     aec:	81 ad 4a ba 	fcmpes  %f21, %f26
     af0:	81 ad 4a bb 	fcmpes  %f21, %f27
     af4:	81 ad 4a bc 	fcmpes  %f21, %f28
     af8:	81 ad 4a bd 	fcmpes  %f21, %f29
     afc:	81 ad 4a be 	fcmpes  %f21, %f30
     b00:	81 ad 4a bf 	fcmpes  %f21, %f31
     b04:	81 ad 8a a0 	fcmpes  %f22, %f0
     b08:	81 ad 8a a1 	fcmpes  %f22, %f1
     b0c:	81 ad 8a a2 	fcmpes  %f22, %f2
     b10:	81 ad 8a a3 	fcmpes  %f22, %f3
     b14:	81 ad 8a a4 	fcmpes  %f22, %f4
     b18:	81 ad 8a a5 	fcmpes  %f22, %f5
     b1c:	81 ad 8a a6 	fcmpes  %f22, %f6
     b20:	81 ad 8a a7 	fcmpes  %f22, %f7
     b24:	81 ad 8a a8 	fcmpes  %f22, %f8
     b28:	81 ad 8a a9 	fcmpes  %f22, %f9
     b2c:	81 ad 8a aa 	fcmpes  %f22, %f10
     b30:	81 ad 8a ab 	fcmpes  %f22, %f11
     b34:	81 ad 8a ac 	fcmpes  %f22, %f12
     b38:	81 ad 8a ad 	fcmpes  %f22, %f13
     b3c:	81 ad 8a ae 	fcmpes  %f22, %f14
     b40:	81 ad 8a af 	fcmpes  %f22, %f15
     b44:	81 ad 8a b0 	fcmpes  %f22, %f16
     b48:	81 ad 8a b1 	fcmpes  %f22, %f17
     b4c:	81 ad 8a b2 	fcmpes  %f22, %f18
     b50:	81 ad 8a b3 	fcmpes  %f22, %f19
     b54:	81 ad 8a b4 	fcmpes  %f22, %f20
     b58:	81 ad 8a b5 	fcmpes  %f22, %f21
     b5c:	81 ad 8a b6 	fcmpes  %f22, %f22
     b60:	81 ad 8a b7 	fcmpes  %f22, %f23
     b64:	81 ad 8a b8 	fcmpes  %f22, %f24
     b68:	81 ad 8a b9 	fcmpes  %f22, %f25
     b6c:	81 ad 8a ba 	fcmpes  %f22, %f26
     b70:	81 ad 8a bb 	fcmpes  %f22, %f27
     b74:	81 ad 8a bc 	fcmpes  %f22, %f28
     b78:	81 ad 8a bd 	fcmpes  %f22, %f29
     b7c:	81 ad 8a be 	fcmpes  %f22, %f30
     b80:	81 ad 8a bf 	fcmpes  %f22, %f31
     b84:	81 ad ca a0 	fcmpes  %f23, %f0
     b88:	81 ad ca a1 	fcmpes  %f23, %f1
     b8c:	81 ad ca a2 	fcmpes  %f23, %f2
     b90:	81 ad ca a3 	fcmpes  %f23, %f3
     b94:	81 ad ca a4 	fcmpes  %f23, %f4
     b98:	81 ad ca a5 	fcmpes  %f23, %f5
     b9c:	81 ad ca a6 	fcmpes  %f23, %f6
     ba0:	81 ad ca a7 	fcmpes  %f23, %f7
     ba4:	81 ad ca a8 	fcmpes  %f23, %f8
     ba8:	81 ad ca a9 	fcmpes  %f23, %f9
     bac:	81 ad ca aa 	fcmpes  %f23, %f10
     bb0:	81 ad ca ab 	fcmpes  %f23, %f11
     bb4:	81 ad ca ac 	fcmpes  %f23, %f12
     bb8:	81 ad ca ad 	fcmpes  %f23, %f13
     bbc:	81 ad ca ae 	fcmpes  %f23, %f14
     bc0:	81 ad ca af 	fcmpes  %f23, %f15
     bc4:	81 ad ca b0 	fcmpes  %f23, %f16
     bc8:	81 ad ca b1 	fcmpes  %f23, %f17
     bcc:	81 ad ca b2 	fcmpes  %f23, %f18
     bd0:	81 ad ca b3 	fcmpes  %f23, %f19
     bd4:	81 ad ca b4 	fcmpes  %f23, %f20
     bd8:	81 ad ca b5 	fcmpes  %f23, %f21
     bdc:	81 ad ca b6 	fcmpes  %f23, %f22
     be0:	81 ad ca b7 	fcmpes  %f23, %f23
     be4:	81 ad ca b8 	fcmpes  %f23, %f24
     be8:	81 ad ca b9 	fcmpes  %f23, %f25
     bec:	81 ad ca ba 	fcmpes  %f23, %f26
     bf0:	81 ad ca bb 	fcmpes  %f23, %f27
     bf4:	81 ad ca bc 	fcmpes  %f23, %f28
     bf8:	81 ad ca bd 	fcmpes  %f23, %f29
     bfc:	81 ad ca be 	fcmpes  %f23, %f30
     c00:	81 ad ca bf 	fcmpes  %f23, %f31
     c04:	81 ae 0a a0 	fcmpes  %f24, %f0
     c08:	81 ae 0a a1 	fcmpes  %f24, %f1
     c0c:	81 ae 0a a2 	fcmpes  %f24, %f2
     c10:	81 ae 0a a3 	fcmpes  %f24, %f3
     c14:	81 ae 0a a4 	fcmpes  %f24, %f4
     c18:	81 ae 0a a5 	fcmpes  %f24, %f5
     c1c:	81 ae 0a a6 	fcmpes  %f24, %f6
     c20:	81 ae 0a a7 	fcmpes  %f24, %f7
     c24:	81 ae 0a a8 	fcmpes  %f24, %f8
     c28:	81 ae 0a a9 	fcmpes  %f24, %f9
     c2c:	81 ae 0a aa 	fcmpes  %f24, %f10
     c30:	81 ae 0a ab 	fcmpes  %f24, %f11
     c34:	81 ae 0a ac 	fcmpes  %f24, %f12
     c38:	81 ae 0a ad 	fcmpes  %f24, %f13
     c3c:	81 ae 0a ae 	fcmpes  %f24, %f14
     c40:	81 ae 0a af 	fcmpes  %f24, %f15
     c44:	81 ae 0a b0 	fcmpes  %f24, %f16
     c48:	81 ae 0a b1 	fcmpes  %f24, %f17
     c4c:	81 ae 0a b2 	fcmpes  %f24, %f18
     c50:	81 ae 0a b3 	fcmpes  %f24, %f19
     c54:	81 ae 0a b4 	fcmpes  %f24, %f20
     c58:	81 ae 0a b5 	fcmpes  %f24, %f21
     c5c:	81 ae 0a b6 	fcmpes  %f24, %f22
     c60:	81 ae 0a b7 	fcmpes  %f24, %f23
     c64:	81 ae 0a b8 	fcmpes  %f24, %f24
     c68:	81 ae 0a b9 	fcmpes  %f24, %f25
     c6c:	81 ae 0a ba 	fcmpes  %f24, %f26
     c70:	81 ae 0a bb 	fcmpes  %f24, %f27
     c74:	81 ae 0a bc 	fcmpes  %f24, %f28
     c78:	81 ae 0a bd 	fcmpes  %f24, %f29
     c7c:	81 ae 0a be 	fcmpes  %f24, %f30
     c80:	81 ae 0a bf 	fcmpes  %f24, %f31
     c84:	81 ae 4a a0 	fcmpes  %f25, %f0
     c88:	81 ae 4a a1 	fcmpes  %f25, %f1
     c8c:	81 ae 4a a2 	fcmpes  %f25, %f2
     c90:	81 ae 4a a3 	fcmpes  %f25, %f3
     c94:	81 ae 4a a4 	fcmpes  %f25, %f4
     c98:	81 ae 4a a5 	fcmpes  %f25, %f5
     c9c:	81 ae 4a a6 	fcmpes  %f25, %f6
     ca0:	81 ae 4a a7 	fcmpes  %f25, %f7
     ca4:	81 ae 4a a8 	fcmpes  %f25, %f8
     ca8:	81 ae 4a a9 	fcmpes  %f25, %f9
     cac:	81 ae 4a aa 	fcmpes  %f25, %f10
     cb0:	81 ae 4a ab 	fcmpes  %f25, %f11
     cb4:	81 ae 4a ac 	fcmpes  %f25, %f12
     cb8:	81 ae 4a ad 	fcmpes  %f25, %f13
     cbc:	81 ae 4a ae 	fcmpes  %f25, %f14
     cc0:	81 ae 4a af 	fcmpes  %f25, %f15
     cc4:	81 ae 4a b0 	fcmpes  %f25, %f16
     cc8:	81 ae 4a b1 	fcmpes  %f25, %f17
     ccc:	81 ae 4a b2 	fcmpes  %f25, %f18
     cd0:	81 ae 4a b3 	fcmpes  %f25, %f19
     cd4:	81 ae 4a b4 	fcmpes  %f25, %f20
     cd8:	81 ae 4a b5 	fcmpes  %f25, %f21
     cdc:	81 ae 4a b6 	fcmpes  %f25, %f22
     ce0:	81 ae 4a b7 	fcmpes  %f25, %f23
     ce4:	81 ae 4a b8 	fcmpes  %f25, %f24
     ce8:	81 ae 4a b9 	fcmpes  %f25, %f25
     cec:	81 ae 4a ba 	fcmpes  %f25, %f26
     cf0:	81 ae 4a bb 	fcmpes  %f25, %f27
     cf4:	81 ae 4a bc 	fcmpes  %f25, %f28
     cf8:	81 ae 4a bd 	fcmpes  %f25, %f29
     cfc:	81 ae 4a be 	fcmpes  %f25, %f30
     d00:	81 ae 4a bf 	fcmpes  %f25, %f31
     d04:	81 ae 8a a0 	fcmpes  %f26, %f0
     d08:	81 ae 8a a1 	fcmpes  %f26, %f1
     d0c:	81 ae 8a a2 	fcmpes  %f26, %f2
     d10:	81 ae 8a a3 	fcmpes  %f26, %f3
     d14:	81 ae 8a a4 	fcmpes  %f26, %f4
     d18:	81 ae 8a a5 	fcmpes  %f26, %f5
     d1c:	81 ae 8a a6 	fcmpes  %f26, %f6
     d20:	81 ae 8a a7 	fcmpes  %f26, %f7
     d24:	81 ae 8a a8 	fcmpes  %f26, %f8
     d28:	81 ae 8a a9 	fcmpes  %f26, %f9
     d2c:	81 ae 8a aa 	fcmpes  %f26, %f10
     d30:	81 ae 8a ab 	fcmpes  %f26, %f11
     d34:	81 ae 8a ac 	fcmpes  %f26, %f12
     d38:	81 ae 8a ad 	fcmpes  %f26, %f13
     d3c:	81 ae 8a ae 	fcmpes  %f26, %f14
     d40:	81 ae 8a af 	fcmpes  %f26, %f15
     d44:	81 ae 8a b0 	fcmpes  %f26, %f16
     d48:	81 ae 8a b1 	fcmpes  %f26, %f17
     d4c:	81 ae 8a b2 	fcmpes  %f26, %f18
     d50:	81 ae 8a b3 	fcmpes  %f26, %f19
     d54:	81 ae 8a b4 	fcmpes  %f26, %f20
     d58:	81 ae 8a b5 	fcmpes  %f26, %f21
     d5c:	81 ae 8a b6 	fcmpes  %f26, %f22
     d60:	81 ae 8a b7 	fcmpes  %f26, %f23
     d64:	81 ae 8a b8 	fcmpes  %f26, %f24
     d68:	81 ae 8a b9 	fcmpes  %f26, %f25
     d6c:	81 ae 8a ba 	fcmpes  %f26, %f26
     d70:	81 ae 8a bb 	fcmpes  %f26, %f27
     d74:	81 ae 8a bc 	fcmpes  %f26, %f28
     d78:	81 ae 8a bd 	fcmpes  %f26, %f29
     d7c:	81 ae 8a be 	fcmpes  %f26, %f30
     d80:	81 ae 8a bf 	fcmpes  %f26, %f31
     d84:	81 ae ca a0 	fcmpes  %f27, %f0
     d88:	81 ae ca a1 	fcmpes  %f27, %f1
     d8c:	81 ae ca a2 	fcmpes  %f27, %f2
     d90:	81 ae ca a3 	fcmpes  %f27, %f3
     d94:	81 ae ca a4 	fcmpes  %f27, %f4
     d98:	81 ae ca a5 	fcmpes  %f27, %f5
     d9c:	81 ae ca a6 	fcmpes  %f27, %f6
     da0:	81 ae ca a7 	fcmpes  %f27, %f7
     da4:	81 ae ca a8 	fcmpes  %f27, %f8
     da8:	81 ae ca a9 	fcmpes  %f27, %f9
     dac:	81 ae ca aa 	fcmpes  %f27, %f10
     db0:	81 ae ca ab 	fcmpes  %f27, %f11
     db4:	81 ae ca ac 	fcmpes  %f27, %f12
     db8:	81 ae ca ad 	fcmpes  %f27, %f13
     dbc:	81 ae ca ae 	fcmpes  %f27, %f14
     dc0:	81 ae ca af 	fcmpes  %f27, %f15
     dc4:	81 ae ca b0 	fcmpes  %f27, %f16
     dc8:	81 ae ca b1 	fcmpes  %f27, %f17
     dcc:	81 ae ca b2 	fcmpes  %f27, %f18
     dd0:	81 ae ca b3 	fcmpes  %f27, %f19
     dd4:	81 ae ca b4 	fcmpes  %f27, %f20
     dd8:	81 ae ca b5 	fcmpes  %f27, %f21
     ddc:	81 ae ca b6 	fcmpes  %f27, %f22
     de0:	81 ae ca b7 	fcmpes  %f27, %f23
     de4:	81 ae ca b8 	fcmpes  %f27, %f24
     de8:	81 ae ca b9 	fcmpes  %f27, %f25
     dec:	81 ae ca ba 	fcmpes  %f27, %f26
     df0:	81 ae ca bb 	fcmpes  %f27, %f27
     df4:	81 ae ca bc 	fcmpes  %f27, %f28
     df8:	81 ae ca bd 	fcmpes  %f27, %f29
     dfc:	81 ae ca be 	fcmpes  %f27, %f30
     e00:	81 ae ca bf 	fcmpes  %f27, %f31
     e04:	81 af 0a a0 	fcmpes  %f28, %f0
     e08:	81 af 0a a1 	fcmpes  %f28, %f1
     e0c:	81 af 0a a2 	fcmpes  %f28, %f2
     e10:	81 af 0a a3 	fcmpes  %f28, %f3
     e14:	81 af 0a a4 	fcmpes  %f28, %f4
     e18:	81 af 0a a5 	fcmpes  %f28, %f5
     e1c:	81 af 0a a6 	fcmpes  %f28, %f6
     e20:	81 af 0a a7 	fcmpes  %f28, %f7
     e24:	81 af 0a a8 	fcmpes  %f28, %f8
     e28:	81 af 0a a9 	fcmpes  %f28, %f9
     e2c:	81 af 0a aa 	fcmpes  %f28, %f10
     e30:	81 af 0a ab 	fcmpes  %f28, %f11
     e34:	81 af 0a ac 	fcmpes  %f28, %f12
     e38:	81 af 0a ad 	fcmpes  %f28, %f13
     e3c:	81 af 0a ae 	fcmpes  %f28, %f14
     e40:	81 af 0a af 	fcmpes  %f28, %f15
     e44:	81 af 0a b0 	fcmpes  %f28, %f16
     e48:	81 af 0a b1 	fcmpes  %f28, %f17
     e4c:	81 af 0a b2 	fcmpes  %f28, %f18
     e50:	81 af 0a b3 	fcmpes  %f28, %f19
     e54:	81 af 0a b4 	fcmpes  %f28, %f20
     e58:	81 af 0a b5 	fcmpes  %f28, %f21
     e5c:	81 af 0a b6 	fcmpes  %f28, %f22
     e60:	81 af 0a b7 	fcmpes  %f28, %f23
     e64:	81 af 0a b8 	fcmpes  %f28, %f24
     e68:	81 af 0a b9 	fcmpes  %f28, %f25
     e6c:	81 af 0a ba 	fcmpes  %f28, %f26
     e70:	81 af 0a bb 	fcmpes  %f28, %f27
     e74:	81 af 0a bc 	fcmpes  %f28, %f28
     e78:	81 af 0a bd 	fcmpes  %f28, %f29
     e7c:	81 af 0a be 	fcmpes  %f28, %f30
     e80:	81 af 0a bf 	fcmpes  %f28, %f31
     e84:	81 af 4a a0 	fcmpes  %f29, %f0
     e88:	81 af 4a a1 	fcmpes  %f29, %f1
     e8c:	81 af 4a a2 	fcmpes  %f29, %f2
     e90:	81 af 4a a3 	fcmpes  %f29, %f3
     e94:	81 af 4a a4 	fcmpes  %f29, %f4
     e98:	81 af 4a a5 	fcmpes  %f29, %f5
     e9c:	81 af 4a a6 	fcmpes  %f29, %f6
     ea0:	81 af 4a a7 	fcmpes  %f29, %f7
     ea4:	81 af 4a a8 	fcmpes  %f29, %f8
     ea8:	81 af 4a a9 	fcmpes  %f29, %f9
     eac:	81 af 4a aa 	fcmpes  %f29, %f10
     eb0:	81 af 4a ab 	fcmpes  %f29, %f11
     eb4:	81 af 4a ac 	fcmpes  %f29, %f12
     eb8:	81 af 4a ad 	fcmpes  %f29, %f13
     ebc:	81 af 4a ae 	fcmpes  %f29, %f14
     ec0:	81 af 4a af 	fcmpes  %f29, %f15
     ec4:	81 af 4a b0 	fcmpes  %f29, %f16
     ec8:	81 af 4a b1 	fcmpes  %f29, %f17
     ecc:	81 af 4a b2 	fcmpes  %f29, %f18
     ed0:	81 af 4a b3 	fcmpes  %f29, %f19
     ed4:	81 af 4a b4 	fcmpes  %f29, %f20
     ed8:	81 af 4a b5 	fcmpes  %f29, %f21
     edc:	81 af 4a b6 	fcmpes  %f29, %f22
     ee0:	81 af 4a b7 	fcmpes  %f29, %f23
     ee4:	81 af 4a b8 	fcmpes  %f29, %f24
     ee8:	81 af 4a b9 	fcmpes  %f29, %f25
     eec:	81 af 4a ba 	fcmpes  %f29, %f26
     ef0:	81 af 4a bb 	fcmpes  %f29, %f27
     ef4:	81 af 4a bc 	fcmpes  %f29, %f28
     ef8:	81 af 4a bd 	fcmpes  %f29, %f29
     efc:	81 af 4a be 	fcmpes  %f29, %f30
     f00:	81 af 4a bf 	fcmpes  %f29, %f31
     f04:	81 af 8a a0 	fcmpes  %f30, %f0
     f08:	81 af 8a a1 	fcmpes  %f30, %f1
     f0c:	81 af 8a a2 	fcmpes  %f30, %f2
     f10:	81 af 8a a3 	fcmpes  %f30, %f3
     f14:	81 af 8a a4 	fcmpes  %f30, %f4
     f18:	81 af 8a a5 	fcmpes  %f30, %f5
     f1c:	81 af 8a a6 	fcmpes  %f30, %f6
     f20:	81 af 8a a7 	fcmpes  %f30, %f7
     f24:	81 af 8a a8 	fcmpes  %f30, %f8
     f28:	81 af 8a a9 	fcmpes  %f30, %f9
     f2c:	81 af 8a aa 	fcmpes  %f30, %f10
     f30:	81 af 8a ab 	fcmpes  %f30, %f11
     f34:	81 af 8a ac 	fcmpes  %f30, %f12
     f38:	81 af 8a ad 	fcmpes  %f30, %f13
     f3c:	81 af 8a ae 	fcmpes  %f30, %f14
     f40:	81 af 8a af 	fcmpes  %f30, %f15
     f44:	81 af 8a b0 	fcmpes  %f30, %f16
     f48:	81 af 8a b1 	fcmpes  %f30, %f17
     f4c:	81 af 8a b2 	fcmpes  %f30, %f18
     f50:	81 af 8a b3 	fcmpes  %f30, %f19
     f54:	81 af 8a b4 	fcmpes  %f30, %f20
     f58:	81 af 8a b5 	fcmpes  %f30, %f21
     f5c:	81 af 8a b6 	fcmpes  %f30, %f22
     f60:	81 af 8a b7 	fcmpes  %f30, %f23
     f64:	81 af 8a b8 	fcmpes  %f30, %f24
     f68:	81 af 8a b9 	fcmpes  %f30, %f25
     f6c:	81 af 8a ba 	fcmpes  %f30, %f26
     f70:	81 af 8a bb 	fcmpes  %f30, %f27
     f74:	81 af 8a bc 	fcmpes  %f30, %f28
     f78:	81 af 8a bd 	fcmpes  %f30, %f29
     f7c:	81 af 8a be 	fcmpes  %f30, %f30
     f80:	81 af 8a bf 	fcmpes  %f30, %f31
     f84:	81 af ca a0 	fcmpes  %f31, %f0
     f88:	81 af ca a1 	fcmpes  %f31, %f1
     f8c:	81 af ca a2 	fcmpes  %f31, %f2
     f90:	81 af ca a3 	fcmpes  %f31, %f3
     f94:	81 af ca a4 	fcmpes  %f31, %f4
     f98:	81 af ca a5 	fcmpes  %f31, %f5
     f9c:	81 af ca a6 	fcmpes  %f31, %f6
     fa0:	81 af ca a7 	fcmpes  %f31, %f7
     fa4:	81 af ca a8 	fcmpes  %f31, %f8
     fa8:	81 af ca a9 	fcmpes  %f31, %f9
     fac:	81 af ca aa 	fcmpes  %f31, %f10
     fb0:	81 af ca ab 	fcmpes  %f31, %f11
     fb4:	81 af ca ac 	fcmpes  %f31, %f12
     fb8:	81 af ca ad 	fcmpes  %f31, %f13
     fbc:	81 af ca ae 	fcmpes  %f31, %f14
     fc0:	81 af ca af 	fcmpes  %f31, %f15
     fc4:	81 af ca b0 	fcmpes  %f31, %f16
     fc8:	81 af ca b1 	fcmpes  %f31, %f17
     fcc:	81 af ca b2 	fcmpes  %f31, %f18
     fd0:	81 af ca b3 	fcmpes  %f31, %f19
     fd4:	81 af ca b4 	fcmpes  %f31, %f20
     fd8:	81 af ca b5 	fcmpes  %f31, %f21
     fdc:	81 af ca b6 	fcmpes  %f31, %f22
     fe0:	81 af ca b7 	fcmpes  %f31, %f23
     fe4:	81 af ca b8 	fcmpes  %f31, %f24
     fe8:	81 af ca b9 	fcmpes  %f31, %f25
     fec:	81 af ca ba 	fcmpes  %f31, %f26
     ff0:	81 af ca bb 	fcmpes  %f31, %f27
     ff4:	81 af ca bc 	fcmpes  %f31, %f28
     ff8:	81 af ca bd 	fcmpes  %f31, %f29
     ffc:	81 af ca be 	fcmpes  %f31, %f30
    1000:	81 af ca bf 	fcmpes  %f31, %f31
    1004:	01 00 00 00 	nop 
