
/lindata/My-work/Professional/iitb/development/isa-v2-branch/ajit-toolchain/as-dis-test/asmgen/runs/Monday-March-15-2021-13-27-26/objs/fmovs.o:     file format elf32-sparc


Disassembly of section .text:

00000000 <main>:
       0:	01 00 00 00 	nop 
       4:	81 a0 00 20 	fmovs  %f0, %f0
       8:	81 a0 00 21 	fmovs  %f1, %f0
       c:	81 a0 00 22 	fmovs  %f2, %f0
      10:	81 a0 00 23 	fmovs  %f3, %f0
      14:	81 a0 00 24 	fmovs  %f4, %f0
      18:	81 a0 00 25 	fmovs  %f5, %f0
      1c:	81 a0 00 26 	fmovs  %f6, %f0
      20:	81 a0 00 27 	fmovs  %f7, %f0
      24:	81 a0 00 28 	fmovs  %f8, %f0
      28:	81 a0 00 29 	fmovs  %f9, %f0
      2c:	81 a0 00 2a 	fmovs  %f10, %f0
      30:	81 a0 00 2b 	fmovs  %f11, %f0
      34:	81 a0 00 2c 	fmovs  %f12, %f0
      38:	81 a0 00 2d 	fmovs  %f13, %f0
      3c:	81 a0 00 2e 	fmovs  %f14, %f0
      40:	81 a0 00 2f 	fmovs  %f15, %f0
      44:	81 a0 00 30 	fmovs  %f16, %f0
      48:	81 a0 00 31 	fmovs  %f17, %f0
      4c:	81 a0 00 32 	fmovs  %f18, %f0
      50:	81 a0 00 33 	fmovs  %f19, %f0
      54:	81 a0 00 34 	fmovs  %f20, %f0
      58:	81 a0 00 35 	fmovs  %f21, %f0
      5c:	81 a0 00 36 	fmovs  %f22, %f0
      60:	81 a0 00 37 	fmovs  %f23, %f0
      64:	81 a0 00 38 	fmovs  %f24, %f0
      68:	81 a0 00 39 	fmovs  %f25, %f0
      6c:	81 a0 00 3a 	fmovs  %f26, %f0
      70:	81 a0 00 3b 	fmovs  %f27, %f0
      74:	81 a0 00 3c 	fmovs  %f28, %f0
      78:	81 a0 00 3d 	fmovs  %f29, %f0
      7c:	81 a0 00 3e 	fmovs  %f30, %f0
      80:	81 a0 00 3f 	fmovs  %f31, %f0
      84:	83 a0 00 20 	fmovs  %f0, %f1
      88:	83 a0 00 21 	fmovs  %f1, %f1
      8c:	83 a0 00 22 	fmovs  %f2, %f1
      90:	83 a0 00 23 	fmovs  %f3, %f1
      94:	83 a0 00 24 	fmovs  %f4, %f1
      98:	83 a0 00 25 	fmovs  %f5, %f1
      9c:	83 a0 00 26 	fmovs  %f6, %f1
      a0:	83 a0 00 27 	fmovs  %f7, %f1
      a4:	83 a0 00 28 	fmovs  %f8, %f1
      a8:	83 a0 00 29 	fmovs  %f9, %f1
      ac:	83 a0 00 2a 	fmovs  %f10, %f1
      b0:	83 a0 00 2b 	fmovs  %f11, %f1
      b4:	83 a0 00 2c 	fmovs  %f12, %f1
      b8:	83 a0 00 2d 	fmovs  %f13, %f1
      bc:	83 a0 00 2e 	fmovs  %f14, %f1
      c0:	83 a0 00 2f 	fmovs  %f15, %f1
      c4:	83 a0 00 30 	fmovs  %f16, %f1
      c8:	83 a0 00 31 	fmovs  %f17, %f1
      cc:	83 a0 00 32 	fmovs  %f18, %f1
      d0:	83 a0 00 33 	fmovs  %f19, %f1
      d4:	83 a0 00 34 	fmovs  %f20, %f1
      d8:	83 a0 00 35 	fmovs  %f21, %f1
      dc:	83 a0 00 36 	fmovs  %f22, %f1
      e0:	83 a0 00 37 	fmovs  %f23, %f1
      e4:	83 a0 00 38 	fmovs  %f24, %f1
      e8:	83 a0 00 39 	fmovs  %f25, %f1
      ec:	83 a0 00 3a 	fmovs  %f26, %f1
      f0:	83 a0 00 3b 	fmovs  %f27, %f1
      f4:	83 a0 00 3c 	fmovs  %f28, %f1
      f8:	83 a0 00 3d 	fmovs  %f29, %f1
      fc:	83 a0 00 3e 	fmovs  %f30, %f1
     100:	83 a0 00 3f 	fmovs  %f31, %f1
     104:	85 a0 00 20 	fmovs  %f0, %f2
     108:	85 a0 00 21 	fmovs  %f1, %f2
     10c:	85 a0 00 22 	fmovs  %f2, %f2
     110:	85 a0 00 23 	fmovs  %f3, %f2
     114:	85 a0 00 24 	fmovs  %f4, %f2
     118:	85 a0 00 25 	fmovs  %f5, %f2
     11c:	85 a0 00 26 	fmovs  %f6, %f2
     120:	85 a0 00 27 	fmovs  %f7, %f2
     124:	85 a0 00 28 	fmovs  %f8, %f2
     128:	85 a0 00 29 	fmovs  %f9, %f2
     12c:	85 a0 00 2a 	fmovs  %f10, %f2
     130:	85 a0 00 2b 	fmovs  %f11, %f2
     134:	85 a0 00 2c 	fmovs  %f12, %f2
     138:	85 a0 00 2d 	fmovs  %f13, %f2
     13c:	85 a0 00 2e 	fmovs  %f14, %f2
     140:	85 a0 00 2f 	fmovs  %f15, %f2
     144:	85 a0 00 30 	fmovs  %f16, %f2
     148:	85 a0 00 31 	fmovs  %f17, %f2
     14c:	85 a0 00 32 	fmovs  %f18, %f2
     150:	85 a0 00 33 	fmovs  %f19, %f2
     154:	85 a0 00 34 	fmovs  %f20, %f2
     158:	85 a0 00 35 	fmovs  %f21, %f2
     15c:	85 a0 00 36 	fmovs  %f22, %f2
     160:	85 a0 00 37 	fmovs  %f23, %f2
     164:	85 a0 00 38 	fmovs  %f24, %f2
     168:	85 a0 00 39 	fmovs  %f25, %f2
     16c:	85 a0 00 3a 	fmovs  %f26, %f2
     170:	85 a0 00 3b 	fmovs  %f27, %f2
     174:	85 a0 00 3c 	fmovs  %f28, %f2
     178:	85 a0 00 3d 	fmovs  %f29, %f2
     17c:	85 a0 00 3e 	fmovs  %f30, %f2
     180:	85 a0 00 3f 	fmovs  %f31, %f2
     184:	87 a0 00 20 	fmovs  %f0, %f3
     188:	87 a0 00 21 	fmovs  %f1, %f3
     18c:	87 a0 00 22 	fmovs  %f2, %f3
     190:	87 a0 00 23 	fmovs  %f3, %f3
     194:	87 a0 00 24 	fmovs  %f4, %f3
     198:	87 a0 00 25 	fmovs  %f5, %f3
     19c:	87 a0 00 26 	fmovs  %f6, %f3
     1a0:	87 a0 00 27 	fmovs  %f7, %f3
     1a4:	87 a0 00 28 	fmovs  %f8, %f3
     1a8:	87 a0 00 29 	fmovs  %f9, %f3
     1ac:	87 a0 00 2a 	fmovs  %f10, %f3
     1b0:	87 a0 00 2b 	fmovs  %f11, %f3
     1b4:	87 a0 00 2c 	fmovs  %f12, %f3
     1b8:	87 a0 00 2d 	fmovs  %f13, %f3
     1bc:	87 a0 00 2e 	fmovs  %f14, %f3
     1c0:	87 a0 00 2f 	fmovs  %f15, %f3
     1c4:	87 a0 00 30 	fmovs  %f16, %f3
     1c8:	87 a0 00 31 	fmovs  %f17, %f3
     1cc:	87 a0 00 32 	fmovs  %f18, %f3
     1d0:	87 a0 00 33 	fmovs  %f19, %f3
     1d4:	87 a0 00 34 	fmovs  %f20, %f3
     1d8:	87 a0 00 35 	fmovs  %f21, %f3
     1dc:	87 a0 00 36 	fmovs  %f22, %f3
     1e0:	87 a0 00 37 	fmovs  %f23, %f3
     1e4:	87 a0 00 38 	fmovs  %f24, %f3
     1e8:	87 a0 00 39 	fmovs  %f25, %f3
     1ec:	87 a0 00 3a 	fmovs  %f26, %f3
     1f0:	87 a0 00 3b 	fmovs  %f27, %f3
     1f4:	87 a0 00 3c 	fmovs  %f28, %f3
     1f8:	87 a0 00 3d 	fmovs  %f29, %f3
     1fc:	87 a0 00 3e 	fmovs  %f30, %f3
     200:	87 a0 00 3f 	fmovs  %f31, %f3
     204:	89 a0 00 20 	fmovs  %f0, %f4
     208:	89 a0 00 21 	fmovs  %f1, %f4
     20c:	89 a0 00 22 	fmovs  %f2, %f4
     210:	89 a0 00 23 	fmovs  %f3, %f4
     214:	89 a0 00 24 	fmovs  %f4, %f4
     218:	89 a0 00 25 	fmovs  %f5, %f4
     21c:	89 a0 00 26 	fmovs  %f6, %f4
     220:	89 a0 00 27 	fmovs  %f7, %f4
     224:	89 a0 00 28 	fmovs  %f8, %f4
     228:	89 a0 00 29 	fmovs  %f9, %f4
     22c:	89 a0 00 2a 	fmovs  %f10, %f4
     230:	89 a0 00 2b 	fmovs  %f11, %f4
     234:	89 a0 00 2c 	fmovs  %f12, %f4
     238:	89 a0 00 2d 	fmovs  %f13, %f4
     23c:	89 a0 00 2e 	fmovs  %f14, %f4
     240:	89 a0 00 2f 	fmovs  %f15, %f4
     244:	89 a0 00 30 	fmovs  %f16, %f4
     248:	89 a0 00 31 	fmovs  %f17, %f4
     24c:	89 a0 00 32 	fmovs  %f18, %f4
     250:	89 a0 00 33 	fmovs  %f19, %f4
     254:	89 a0 00 34 	fmovs  %f20, %f4
     258:	89 a0 00 35 	fmovs  %f21, %f4
     25c:	89 a0 00 36 	fmovs  %f22, %f4
     260:	89 a0 00 37 	fmovs  %f23, %f4
     264:	89 a0 00 38 	fmovs  %f24, %f4
     268:	89 a0 00 39 	fmovs  %f25, %f4
     26c:	89 a0 00 3a 	fmovs  %f26, %f4
     270:	89 a0 00 3b 	fmovs  %f27, %f4
     274:	89 a0 00 3c 	fmovs  %f28, %f4
     278:	89 a0 00 3d 	fmovs  %f29, %f4
     27c:	89 a0 00 3e 	fmovs  %f30, %f4
     280:	89 a0 00 3f 	fmovs  %f31, %f4
     284:	8b a0 00 20 	fmovs  %f0, %f5
     288:	8b a0 00 21 	fmovs  %f1, %f5
     28c:	8b a0 00 22 	fmovs  %f2, %f5
     290:	8b a0 00 23 	fmovs  %f3, %f5
     294:	8b a0 00 24 	fmovs  %f4, %f5
     298:	8b a0 00 25 	fmovs  %f5, %f5
     29c:	8b a0 00 26 	fmovs  %f6, %f5
     2a0:	8b a0 00 27 	fmovs  %f7, %f5
     2a4:	8b a0 00 28 	fmovs  %f8, %f5
     2a8:	8b a0 00 29 	fmovs  %f9, %f5
     2ac:	8b a0 00 2a 	fmovs  %f10, %f5
     2b0:	8b a0 00 2b 	fmovs  %f11, %f5
     2b4:	8b a0 00 2c 	fmovs  %f12, %f5
     2b8:	8b a0 00 2d 	fmovs  %f13, %f5
     2bc:	8b a0 00 2e 	fmovs  %f14, %f5
     2c0:	8b a0 00 2f 	fmovs  %f15, %f5
     2c4:	8b a0 00 30 	fmovs  %f16, %f5
     2c8:	8b a0 00 31 	fmovs  %f17, %f5
     2cc:	8b a0 00 32 	fmovs  %f18, %f5
     2d0:	8b a0 00 33 	fmovs  %f19, %f5
     2d4:	8b a0 00 34 	fmovs  %f20, %f5
     2d8:	8b a0 00 35 	fmovs  %f21, %f5
     2dc:	8b a0 00 36 	fmovs  %f22, %f5
     2e0:	8b a0 00 37 	fmovs  %f23, %f5
     2e4:	8b a0 00 38 	fmovs  %f24, %f5
     2e8:	8b a0 00 39 	fmovs  %f25, %f5
     2ec:	8b a0 00 3a 	fmovs  %f26, %f5
     2f0:	8b a0 00 3b 	fmovs  %f27, %f5
     2f4:	8b a0 00 3c 	fmovs  %f28, %f5
     2f8:	8b a0 00 3d 	fmovs  %f29, %f5
     2fc:	8b a0 00 3e 	fmovs  %f30, %f5
     300:	8b a0 00 3f 	fmovs  %f31, %f5
     304:	8d a0 00 20 	fmovs  %f0, %f6
     308:	8d a0 00 21 	fmovs  %f1, %f6
     30c:	8d a0 00 22 	fmovs  %f2, %f6
     310:	8d a0 00 23 	fmovs  %f3, %f6
     314:	8d a0 00 24 	fmovs  %f4, %f6
     318:	8d a0 00 25 	fmovs  %f5, %f6
     31c:	8d a0 00 26 	fmovs  %f6, %f6
     320:	8d a0 00 27 	fmovs  %f7, %f6
     324:	8d a0 00 28 	fmovs  %f8, %f6
     328:	8d a0 00 29 	fmovs  %f9, %f6
     32c:	8d a0 00 2a 	fmovs  %f10, %f6
     330:	8d a0 00 2b 	fmovs  %f11, %f6
     334:	8d a0 00 2c 	fmovs  %f12, %f6
     338:	8d a0 00 2d 	fmovs  %f13, %f6
     33c:	8d a0 00 2e 	fmovs  %f14, %f6
     340:	8d a0 00 2f 	fmovs  %f15, %f6
     344:	8d a0 00 30 	fmovs  %f16, %f6
     348:	8d a0 00 31 	fmovs  %f17, %f6
     34c:	8d a0 00 32 	fmovs  %f18, %f6
     350:	8d a0 00 33 	fmovs  %f19, %f6
     354:	8d a0 00 34 	fmovs  %f20, %f6
     358:	8d a0 00 35 	fmovs  %f21, %f6
     35c:	8d a0 00 36 	fmovs  %f22, %f6
     360:	8d a0 00 37 	fmovs  %f23, %f6
     364:	8d a0 00 38 	fmovs  %f24, %f6
     368:	8d a0 00 39 	fmovs  %f25, %f6
     36c:	8d a0 00 3a 	fmovs  %f26, %f6
     370:	8d a0 00 3b 	fmovs  %f27, %f6
     374:	8d a0 00 3c 	fmovs  %f28, %f6
     378:	8d a0 00 3d 	fmovs  %f29, %f6
     37c:	8d a0 00 3e 	fmovs  %f30, %f6
     380:	8d a0 00 3f 	fmovs  %f31, %f6
     384:	8f a0 00 20 	fmovs  %f0, %f7
     388:	8f a0 00 21 	fmovs  %f1, %f7
     38c:	8f a0 00 22 	fmovs  %f2, %f7
     390:	8f a0 00 23 	fmovs  %f3, %f7
     394:	8f a0 00 24 	fmovs  %f4, %f7
     398:	8f a0 00 25 	fmovs  %f5, %f7
     39c:	8f a0 00 26 	fmovs  %f6, %f7
     3a0:	8f a0 00 27 	fmovs  %f7, %f7
     3a4:	8f a0 00 28 	fmovs  %f8, %f7
     3a8:	8f a0 00 29 	fmovs  %f9, %f7
     3ac:	8f a0 00 2a 	fmovs  %f10, %f7
     3b0:	8f a0 00 2b 	fmovs  %f11, %f7
     3b4:	8f a0 00 2c 	fmovs  %f12, %f7
     3b8:	8f a0 00 2d 	fmovs  %f13, %f7
     3bc:	8f a0 00 2e 	fmovs  %f14, %f7
     3c0:	8f a0 00 2f 	fmovs  %f15, %f7
     3c4:	8f a0 00 30 	fmovs  %f16, %f7
     3c8:	8f a0 00 31 	fmovs  %f17, %f7
     3cc:	8f a0 00 32 	fmovs  %f18, %f7
     3d0:	8f a0 00 33 	fmovs  %f19, %f7
     3d4:	8f a0 00 34 	fmovs  %f20, %f7
     3d8:	8f a0 00 35 	fmovs  %f21, %f7
     3dc:	8f a0 00 36 	fmovs  %f22, %f7
     3e0:	8f a0 00 37 	fmovs  %f23, %f7
     3e4:	8f a0 00 38 	fmovs  %f24, %f7
     3e8:	8f a0 00 39 	fmovs  %f25, %f7
     3ec:	8f a0 00 3a 	fmovs  %f26, %f7
     3f0:	8f a0 00 3b 	fmovs  %f27, %f7
     3f4:	8f a0 00 3c 	fmovs  %f28, %f7
     3f8:	8f a0 00 3d 	fmovs  %f29, %f7
     3fc:	8f a0 00 3e 	fmovs  %f30, %f7
     400:	8f a0 00 3f 	fmovs  %f31, %f7
     404:	91 a0 00 20 	fmovs  %f0, %f8
     408:	91 a0 00 21 	fmovs  %f1, %f8
     40c:	91 a0 00 22 	fmovs  %f2, %f8
     410:	91 a0 00 23 	fmovs  %f3, %f8
     414:	91 a0 00 24 	fmovs  %f4, %f8
     418:	91 a0 00 25 	fmovs  %f5, %f8
     41c:	91 a0 00 26 	fmovs  %f6, %f8
     420:	91 a0 00 27 	fmovs  %f7, %f8
     424:	91 a0 00 28 	fmovs  %f8, %f8
     428:	91 a0 00 29 	fmovs  %f9, %f8
     42c:	91 a0 00 2a 	fmovs  %f10, %f8
     430:	91 a0 00 2b 	fmovs  %f11, %f8
     434:	91 a0 00 2c 	fmovs  %f12, %f8
     438:	91 a0 00 2d 	fmovs  %f13, %f8
     43c:	91 a0 00 2e 	fmovs  %f14, %f8
     440:	91 a0 00 2f 	fmovs  %f15, %f8
     444:	91 a0 00 30 	fmovs  %f16, %f8
     448:	91 a0 00 31 	fmovs  %f17, %f8
     44c:	91 a0 00 32 	fmovs  %f18, %f8
     450:	91 a0 00 33 	fmovs  %f19, %f8
     454:	91 a0 00 34 	fmovs  %f20, %f8
     458:	91 a0 00 35 	fmovs  %f21, %f8
     45c:	91 a0 00 36 	fmovs  %f22, %f8
     460:	91 a0 00 37 	fmovs  %f23, %f8
     464:	91 a0 00 38 	fmovs  %f24, %f8
     468:	91 a0 00 39 	fmovs  %f25, %f8
     46c:	91 a0 00 3a 	fmovs  %f26, %f8
     470:	91 a0 00 3b 	fmovs  %f27, %f8
     474:	91 a0 00 3c 	fmovs  %f28, %f8
     478:	91 a0 00 3d 	fmovs  %f29, %f8
     47c:	91 a0 00 3e 	fmovs  %f30, %f8
     480:	91 a0 00 3f 	fmovs  %f31, %f8
     484:	93 a0 00 20 	fmovs  %f0, %f9
     488:	93 a0 00 21 	fmovs  %f1, %f9
     48c:	93 a0 00 22 	fmovs  %f2, %f9
     490:	93 a0 00 23 	fmovs  %f3, %f9
     494:	93 a0 00 24 	fmovs  %f4, %f9
     498:	93 a0 00 25 	fmovs  %f5, %f9
     49c:	93 a0 00 26 	fmovs  %f6, %f9
     4a0:	93 a0 00 27 	fmovs  %f7, %f9
     4a4:	93 a0 00 28 	fmovs  %f8, %f9
     4a8:	93 a0 00 29 	fmovs  %f9, %f9
     4ac:	93 a0 00 2a 	fmovs  %f10, %f9
     4b0:	93 a0 00 2b 	fmovs  %f11, %f9
     4b4:	93 a0 00 2c 	fmovs  %f12, %f9
     4b8:	93 a0 00 2d 	fmovs  %f13, %f9
     4bc:	93 a0 00 2e 	fmovs  %f14, %f9
     4c0:	93 a0 00 2f 	fmovs  %f15, %f9
     4c4:	93 a0 00 30 	fmovs  %f16, %f9
     4c8:	93 a0 00 31 	fmovs  %f17, %f9
     4cc:	93 a0 00 32 	fmovs  %f18, %f9
     4d0:	93 a0 00 33 	fmovs  %f19, %f9
     4d4:	93 a0 00 34 	fmovs  %f20, %f9
     4d8:	93 a0 00 35 	fmovs  %f21, %f9
     4dc:	93 a0 00 36 	fmovs  %f22, %f9
     4e0:	93 a0 00 37 	fmovs  %f23, %f9
     4e4:	93 a0 00 38 	fmovs  %f24, %f9
     4e8:	93 a0 00 39 	fmovs  %f25, %f9
     4ec:	93 a0 00 3a 	fmovs  %f26, %f9
     4f0:	93 a0 00 3b 	fmovs  %f27, %f9
     4f4:	93 a0 00 3c 	fmovs  %f28, %f9
     4f8:	93 a0 00 3d 	fmovs  %f29, %f9
     4fc:	93 a0 00 3e 	fmovs  %f30, %f9
     500:	93 a0 00 3f 	fmovs  %f31, %f9
     504:	95 a0 00 20 	fmovs  %f0, %f10
     508:	95 a0 00 21 	fmovs  %f1, %f10
     50c:	95 a0 00 22 	fmovs  %f2, %f10
     510:	95 a0 00 23 	fmovs  %f3, %f10
     514:	95 a0 00 24 	fmovs  %f4, %f10
     518:	95 a0 00 25 	fmovs  %f5, %f10
     51c:	95 a0 00 26 	fmovs  %f6, %f10
     520:	95 a0 00 27 	fmovs  %f7, %f10
     524:	95 a0 00 28 	fmovs  %f8, %f10
     528:	95 a0 00 29 	fmovs  %f9, %f10
     52c:	95 a0 00 2a 	fmovs  %f10, %f10
     530:	95 a0 00 2b 	fmovs  %f11, %f10
     534:	95 a0 00 2c 	fmovs  %f12, %f10
     538:	95 a0 00 2d 	fmovs  %f13, %f10
     53c:	95 a0 00 2e 	fmovs  %f14, %f10
     540:	95 a0 00 2f 	fmovs  %f15, %f10
     544:	95 a0 00 30 	fmovs  %f16, %f10
     548:	95 a0 00 31 	fmovs  %f17, %f10
     54c:	95 a0 00 32 	fmovs  %f18, %f10
     550:	95 a0 00 33 	fmovs  %f19, %f10
     554:	95 a0 00 34 	fmovs  %f20, %f10
     558:	95 a0 00 35 	fmovs  %f21, %f10
     55c:	95 a0 00 36 	fmovs  %f22, %f10
     560:	95 a0 00 37 	fmovs  %f23, %f10
     564:	95 a0 00 38 	fmovs  %f24, %f10
     568:	95 a0 00 39 	fmovs  %f25, %f10
     56c:	95 a0 00 3a 	fmovs  %f26, %f10
     570:	95 a0 00 3b 	fmovs  %f27, %f10
     574:	95 a0 00 3c 	fmovs  %f28, %f10
     578:	95 a0 00 3d 	fmovs  %f29, %f10
     57c:	95 a0 00 3e 	fmovs  %f30, %f10
     580:	95 a0 00 3f 	fmovs  %f31, %f10
     584:	97 a0 00 20 	fmovs  %f0, %f11
     588:	97 a0 00 21 	fmovs  %f1, %f11
     58c:	97 a0 00 22 	fmovs  %f2, %f11
     590:	97 a0 00 23 	fmovs  %f3, %f11
     594:	97 a0 00 24 	fmovs  %f4, %f11
     598:	97 a0 00 25 	fmovs  %f5, %f11
     59c:	97 a0 00 26 	fmovs  %f6, %f11
     5a0:	97 a0 00 27 	fmovs  %f7, %f11
     5a4:	97 a0 00 28 	fmovs  %f8, %f11
     5a8:	97 a0 00 29 	fmovs  %f9, %f11
     5ac:	97 a0 00 2a 	fmovs  %f10, %f11
     5b0:	97 a0 00 2b 	fmovs  %f11, %f11
     5b4:	97 a0 00 2c 	fmovs  %f12, %f11
     5b8:	97 a0 00 2d 	fmovs  %f13, %f11
     5bc:	97 a0 00 2e 	fmovs  %f14, %f11
     5c0:	97 a0 00 2f 	fmovs  %f15, %f11
     5c4:	97 a0 00 30 	fmovs  %f16, %f11
     5c8:	97 a0 00 31 	fmovs  %f17, %f11
     5cc:	97 a0 00 32 	fmovs  %f18, %f11
     5d0:	97 a0 00 33 	fmovs  %f19, %f11
     5d4:	97 a0 00 34 	fmovs  %f20, %f11
     5d8:	97 a0 00 35 	fmovs  %f21, %f11
     5dc:	97 a0 00 36 	fmovs  %f22, %f11
     5e0:	97 a0 00 37 	fmovs  %f23, %f11
     5e4:	97 a0 00 38 	fmovs  %f24, %f11
     5e8:	97 a0 00 39 	fmovs  %f25, %f11
     5ec:	97 a0 00 3a 	fmovs  %f26, %f11
     5f0:	97 a0 00 3b 	fmovs  %f27, %f11
     5f4:	97 a0 00 3c 	fmovs  %f28, %f11
     5f8:	97 a0 00 3d 	fmovs  %f29, %f11
     5fc:	97 a0 00 3e 	fmovs  %f30, %f11
     600:	97 a0 00 3f 	fmovs  %f31, %f11
     604:	99 a0 00 20 	fmovs  %f0, %f12
     608:	99 a0 00 21 	fmovs  %f1, %f12
     60c:	99 a0 00 22 	fmovs  %f2, %f12
     610:	99 a0 00 23 	fmovs  %f3, %f12
     614:	99 a0 00 24 	fmovs  %f4, %f12
     618:	99 a0 00 25 	fmovs  %f5, %f12
     61c:	99 a0 00 26 	fmovs  %f6, %f12
     620:	99 a0 00 27 	fmovs  %f7, %f12
     624:	99 a0 00 28 	fmovs  %f8, %f12
     628:	99 a0 00 29 	fmovs  %f9, %f12
     62c:	99 a0 00 2a 	fmovs  %f10, %f12
     630:	99 a0 00 2b 	fmovs  %f11, %f12
     634:	99 a0 00 2c 	fmovs  %f12, %f12
     638:	99 a0 00 2d 	fmovs  %f13, %f12
     63c:	99 a0 00 2e 	fmovs  %f14, %f12
     640:	99 a0 00 2f 	fmovs  %f15, %f12
     644:	99 a0 00 30 	fmovs  %f16, %f12
     648:	99 a0 00 31 	fmovs  %f17, %f12
     64c:	99 a0 00 32 	fmovs  %f18, %f12
     650:	99 a0 00 33 	fmovs  %f19, %f12
     654:	99 a0 00 34 	fmovs  %f20, %f12
     658:	99 a0 00 35 	fmovs  %f21, %f12
     65c:	99 a0 00 36 	fmovs  %f22, %f12
     660:	99 a0 00 37 	fmovs  %f23, %f12
     664:	99 a0 00 38 	fmovs  %f24, %f12
     668:	99 a0 00 39 	fmovs  %f25, %f12
     66c:	99 a0 00 3a 	fmovs  %f26, %f12
     670:	99 a0 00 3b 	fmovs  %f27, %f12
     674:	99 a0 00 3c 	fmovs  %f28, %f12
     678:	99 a0 00 3d 	fmovs  %f29, %f12
     67c:	99 a0 00 3e 	fmovs  %f30, %f12
     680:	99 a0 00 3f 	fmovs  %f31, %f12
     684:	9b a0 00 20 	fmovs  %f0, %f13
     688:	9b a0 00 21 	fmovs  %f1, %f13
     68c:	9b a0 00 22 	fmovs  %f2, %f13
     690:	9b a0 00 23 	fmovs  %f3, %f13
     694:	9b a0 00 24 	fmovs  %f4, %f13
     698:	9b a0 00 25 	fmovs  %f5, %f13
     69c:	9b a0 00 26 	fmovs  %f6, %f13
     6a0:	9b a0 00 27 	fmovs  %f7, %f13
     6a4:	9b a0 00 28 	fmovs  %f8, %f13
     6a8:	9b a0 00 29 	fmovs  %f9, %f13
     6ac:	9b a0 00 2a 	fmovs  %f10, %f13
     6b0:	9b a0 00 2b 	fmovs  %f11, %f13
     6b4:	9b a0 00 2c 	fmovs  %f12, %f13
     6b8:	9b a0 00 2d 	fmovs  %f13, %f13
     6bc:	9b a0 00 2e 	fmovs  %f14, %f13
     6c0:	9b a0 00 2f 	fmovs  %f15, %f13
     6c4:	9b a0 00 30 	fmovs  %f16, %f13
     6c8:	9b a0 00 31 	fmovs  %f17, %f13
     6cc:	9b a0 00 32 	fmovs  %f18, %f13
     6d0:	9b a0 00 33 	fmovs  %f19, %f13
     6d4:	9b a0 00 34 	fmovs  %f20, %f13
     6d8:	9b a0 00 35 	fmovs  %f21, %f13
     6dc:	9b a0 00 36 	fmovs  %f22, %f13
     6e0:	9b a0 00 37 	fmovs  %f23, %f13
     6e4:	9b a0 00 38 	fmovs  %f24, %f13
     6e8:	9b a0 00 39 	fmovs  %f25, %f13
     6ec:	9b a0 00 3a 	fmovs  %f26, %f13
     6f0:	9b a0 00 3b 	fmovs  %f27, %f13
     6f4:	9b a0 00 3c 	fmovs  %f28, %f13
     6f8:	9b a0 00 3d 	fmovs  %f29, %f13
     6fc:	9b a0 00 3e 	fmovs  %f30, %f13
     700:	9b a0 00 3f 	fmovs  %f31, %f13
     704:	9d a0 00 20 	fmovs  %f0, %f14
     708:	9d a0 00 21 	fmovs  %f1, %f14
     70c:	9d a0 00 22 	fmovs  %f2, %f14
     710:	9d a0 00 23 	fmovs  %f3, %f14
     714:	9d a0 00 24 	fmovs  %f4, %f14
     718:	9d a0 00 25 	fmovs  %f5, %f14
     71c:	9d a0 00 26 	fmovs  %f6, %f14
     720:	9d a0 00 27 	fmovs  %f7, %f14
     724:	9d a0 00 28 	fmovs  %f8, %f14
     728:	9d a0 00 29 	fmovs  %f9, %f14
     72c:	9d a0 00 2a 	fmovs  %f10, %f14
     730:	9d a0 00 2b 	fmovs  %f11, %f14
     734:	9d a0 00 2c 	fmovs  %f12, %f14
     738:	9d a0 00 2d 	fmovs  %f13, %f14
     73c:	9d a0 00 2e 	fmovs  %f14, %f14
     740:	9d a0 00 2f 	fmovs  %f15, %f14
     744:	9d a0 00 30 	fmovs  %f16, %f14
     748:	9d a0 00 31 	fmovs  %f17, %f14
     74c:	9d a0 00 32 	fmovs  %f18, %f14
     750:	9d a0 00 33 	fmovs  %f19, %f14
     754:	9d a0 00 34 	fmovs  %f20, %f14
     758:	9d a0 00 35 	fmovs  %f21, %f14
     75c:	9d a0 00 36 	fmovs  %f22, %f14
     760:	9d a0 00 37 	fmovs  %f23, %f14
     764:	9d a0 00 38 	fmovs  %f24, %f14
     768:	9d a0 00 39 	fmovs  %f25, %f14
     76c:	9d a0 00 3a 	fmovs  %f26, %f14
     770:	9d a0 00 3b 	fmovs  %f27, %f14
     774:	9d a0 00 3c 	fmovs  %f28, %f14
     778:	9d a0 00 3d 	fmovs  %f29, %f14
     77c:	9d a0 00 3e 	fmovs  %f30, %f14
     780:	9d a0 00 3f 	fmovs  %f31, %f14
     784:	9f a0 00 20 	fmovs  %f0, %f15
     788:	9f a0 00 21 	fmovs  %f1, %f15
     78c:	9f a0 00 22 	fmovs  %f2, %f15
     790:	9f a0 00 23 	fmovs  %f3, %f15
     794:	9f a0 00 24 	fmovs  %f4, %f15
     798:	9f a0 00 25 	fmovs  %f5, %f15
     79c:	9f a0 00 26 	fmovs  %f6, %f15
     7a0:	9f a0 00 27 	fmovs  %f7, %f15
     7a4:	9f a0 00 28 	fmovs  %f8, %f15
     7a8:	9f a0 00 29 	fmovs  %f9, %f15
     7ac:	9f a0 00 2a 	fmovs  %f10, %f15
     7b0:	9f a0 00 2b 	fmovs  %f11, %f15
     7b4:	9f a0 00 2c 	fmovs  %f12, %f15
     7b8:	9f a0 00 2d 	fmovs  %f13, %f15
     7bc:	9f a0 00 2e 	fmovs  %f14, %f15
     7c0:	9f a0 00 2f 	fmovs  %f15, %f15
     7c4:	9f a0 00 30 	fmovs  %f16, %f15
     7c8:	9f a0 00 31 	fmovs  %f17, %f15
     7cc:	9f a0 00 32 	fmovs  %f18, %f15
     7d0:	9f a0 00 33 	fmovs  %f19, %f15
     7d4:	9f a0 00 34 	fmovs  %f20, %f15
     7d8:	9f a0 00 35 	fmovs  %f21, %f15
     7dc:	9f a0 00 36 	fmovs  %f22, %f15
     7e0:	9f a0 00 37 	fmovs  %f23, %f15
     7e4:	9f a0 00 38 	fmovs  %f24, %f15
     7e8:	9f a0 00 39 	fmovs  %f25, %f15
     7ec:	9f a0 00 3a 	fmovs  %f26, %f15
     7f0:	9f a0 00 3b 	fmovs  %f27, %f15
     7f4:	9f a0 00 3c 	fmovs  %f28, %f15
     7f8:	9f a0 00 3d 	fmovs  %f29, %f15
     7fc:	9f a0 00 3e 	fmovs  %f30, %f15
     800:	9f a0 00 3f 	fmovs  %f31, %f15
     804:	a1 a0 00 20 	fmovs  %f0, %f16
     808:	a1 a0 00 21 	fmovs  %f1, %f16
     80c:	a1 a0 00 22 	fmovs  %f2, %f16
     810:	a1 a0 00 23 	fmovs  %f3, %f16
     814:	a1 a0 00 24 	fmovs  %f4, %f16
     818:	a1 a0 00 25 	fmovs  %f5, %f16
     81c:	a1 a0 00 26 	fmovs  %f6, %f16
     820:	a1 a0 00 27 	fmovs  %f7, %f16
     824:	a1 a0 00 28 	fmovs  %f8, %f16
     828:	a1 a0 00 29 	fmovs  %f9, %f16
     82c:	a1 a0 00 2a 	fmovs  %f10, %f16
     830:	a1 a0 00 2b 	fmovs  %f11, %f16
     834:	a1 a0 00 2c 	fmovs  %f12, %f16
     838:	a1 a0 00 2d 	fmovs  %f13, %f16
     83c:	a1 a0 00 2e 	fmovs  %f14, %f16
     840:	a1 a0 00 2f 	fmovs  %f15, %f16
     844:	a1 a0 00 30 	fmovs  %f16, %f16
     848:	a1 a0 00 31 	fmovs  %f17, %f16
     84c:	a1 a0 00 32 	fmovs  %f18, %f16
     850:	a1 a0 00 33 	fmovs  %f19, %f16
     854:	a1 a0 00 34 	fmovs  %f20, %f16
     858:	a1 a0 00 35 	fmovs  %f21, %f16
     85c:	a1 a0 00 36 	fmovs  %f22, %f16
     860:	a1 a0 00 37 	fmovs  %f23, %f16
     864:	a1 a0 00 38 	fmovs  %f24, %f16
     868:	a1 a0 00 39 	fmovs  %f25, %f16
     86c:	a1 a0 00 3a 	fmovs  %f26, %f16
     870:	a1 a0 00 3b 	fmovs  %f27, %f16
     874:	a1 a0 00 3c 	fmovs  %f28, %f16
     878:	a1 a0 00 3d 	fmovs  %f29, %f16
     87c:	a1 a0 00 3e 	fmovs  %f30, %f16
     880:	a1 a0 00 3f 	fmovs  %f31, %f16
     884:	a3 a0 00 20 	fmovs  %f0, %f17
     888:	a3 a0 00 21 	fmovs  %f1, %f17
     88c:	a3 a0 00 22 	fmovs  %f2, %f17
     890:	a3 a0 00 23 	fmovs  %f3, %f17
     894:	a3 a0 00 24 	fmovs  %f4, %f17
     898:	a3 a0 00 25 	fmovs  %f5, %f17
     89c:	a3 a0 00 26 	fmovs  %f6, %f17
     8a0:	a3 a0 00 27 	fmovs  %f7, %f17
     8a4:	a3 a0 00 28 	fmovs  %f8, %f17
     8a8:	a3 a0 00 29 	fmovs  %f9, %f17
     8ac:	a3 a0 00 2a 	fmovs  %f10, %f17
     8b0:	a3 a0 00 2b 	fmovs  %f11, %f17
     8b4:	a3 a0 00 2c 	fmovs  %f12, %f17
     8b8:	a3 a0 00 2d 	fmovs  %f13, %f17
     8bc:	a3 a0 00 2e 	fmovs  %f14, %f17
     8c0:	a3 a0 00 2f 	fmovs  %f15, %f17
     8c4:	a3 a0 00 30 	fmovs  %f16, %f17
     8c8:	a3 a0 00 31 	fmovs  %f17, %f17
     8cc:	a3 a0 00 32 	fmovs  %f18, %f17
     8d0:	a3 a0 00 33 	fmovs  %f19, %f17
     8d4:	a3 a0 00 34 	fmovs  %f20, %f17
     8d8:	a3 a0 00 35 	fmovs  %f21, %f17
     8dc:	a3 a0 00 36 	fmovs  %f22, %f17
     8e0:	a3 a0 00 37 	fmovs  %f23, %f17
     8e4:	a3 a0 00 38 	fmovs  %f24, %f17
     8e8:	a3 a0 00 39 	fmovs  %f25, %f17
     8ec:	a3 a0 00 3a 	fmovs  %f26, %f17
     8f0:	a3 a0 00 3b 	fmovs  %f27, %f17
     8f4:	a3 a0 00 3c 	fmovs  %f28, %f17
     8f8:	a3 a0 00 3d 	fmovs  %f29, %f17
     8fc:	a3 a0 00 3e 	fmovs  %f30, %f17
     900:	a3 a0 00 3f 	fmovs  %f31, %f17
     904:	a5 a0 00 20 	fmovs  %f0, %f18
     908:	a5 a0 00 21 	fmovs  %f1, %f18
     90c:	a5 a0 00 22 	fmovs  %f2, %f18
     910:	a5 a0 00 23 	fmovs  %f3, %f18
     914:	a5 a0 00 24 	fmovs  %f4, %f18
     918:	a5 a0 00 25 	fmovs  %f5, %f18
     91c:	a5 a0 00 26 	fmovs  %f6, %f18
     920:	a5 a0 00 27 	fmovs  %f7, %f18
     924:	a5 a0 00 28 	fmovs  %f8, %f18
     928:	a5 a0 00 29 	fmovs  %f9, %f18
     92c:	a5 a0 00 2a 	fmovs  %f10, %f18
     930:	a5 a0 00 2b 	fmovs  %f11, %f18
     934:	a5 a0 00 2c 	fmovs  %f12, %f18
     938:	a5 a0 00 2d 	fmovs  %f13, %f18
     93c:	a5 a0 00 2e 	fmovs  %f14, %f18
     940:	a5 a0 00 2f 	fmovs  %f15, %f18
     944:	a5 a0 00 30 	fmovs  %f16, %f18
     948:	a5 a0 00 31 	fmovs  %f17, %f18
     94c:	a5 a0 00 32 	fmovs  %f18, %f18
     950:	a5 a0 00 33 	fmovs  %f19, %f18
     954:	a5 a0 00 34 	fmovs  %f20, %f18
     958:	a5 a0 00 35 	fmovs  %f21, %f18
     95c:	a5 a0 00 36 	fmovs  %f22, %f18
     960:	a5 a0 00 37 	fmovs  %f23, %f18
     964:	a5 a0 00 38 	fmovs  %f24, %f18
     968:	a5 a0 00 39 	fmovs  %f25, %f18
     96c:	a5 a0 00 3a 	fmovs  %f26, %f18
     970:	a5 a0 00 3b 	fmovs  %f27, %f18
     974:	a5 a0 00 3c 	fmovs  %f28, %f18
     978:	a5 a0 00 3d 	fmovs  %f29, %f18
     97c:	a5 a0 00 3e 	fmovs  %f30, %f18
     980:	a5 a0 00 3f 	fmovs  %f31, %f18
     984:	a7 a0 00 20 	fmovs  %f0, %f19
     988:	a7 a0 00 21 	fmovs  %f1, %f19
     98c:	a7 a0 00 22 	fmovs  %f2, %f19
     990:	a7 a0 00 23 	fmovs  %f3, %f19
     994:	a7 a0 00 24 	fmovs  %f4, %f19
     998:	a7 a0 00 25 	fmovs  %f5, %f19
     99c:	a7 a0 00 26 	fmovs  %f6, %f19
     9a0:	a7 a0 00 27 	fmovs  %f7, %f19
     9a4:	a7 a0 00 28 	fmovs  %f8, %f19
     9a8:	a7 a0 00 29 	fmovs  %f9, %f19
     9ac:	a7 a0 00 2a 	fmovs  %f10, %f19
     9b0:	a7 a0 00 2b 	fmovs  %f11, %f19
     9b4:	a7 a0 00 2c 	fmovs  %f12, %f19
     9b8:	a7 a0 00 2d 	fmovs  %f13, %f19
     9bc:	a7 a0 00 2e 	fmovs  %f14, %f19
     9c0:	a7 a0 00 2f 	fmovs  %f15, %f19
     9c4:	a7 a0 00 30 	fmovs  %f16, %f19
     9c8:	a7 a0 00 31 	fmovs  %f17, %f19
     9cc:	a7 a0 00 32 	fmovs  %f18, %f19
     9d0:	a7 a0 00 33 	fmovs  %f19, %f19
     9d4:	a7 a0 00 34 	fmovs  %f20, %f19
     9d8:	a7 a0 00 35 	fmovs  %f21, %f19
     9dc:	a7 a0 00 36 	fmovs  %f22, %f19
     9e0:	a7 a0 00 37 	fmovs  %f23, %f19
     9e4:	a7 a0 00 38 	fmovs  %f24, %f19
     9e8:	a7 a0 00 39 	fmovs  %f25, %f19
     9ec:	a7 a0 00 3a 	fmovs  %f26, %f19
     9f0:	a7 a0 00 3b 	fmovs  %f27, %f19
     9f4:	a7 a0 00 3c 	fmovs  %f28, %f19
     9f8:	a7 a0 00 3d 	fmovs  %f29, %f19
     9fc:	a7 a0 00 3e 	fmovs  %f30, %f19
     a00:	a7 a0 00 3f 	fmovs  %f31, %f19
     a04:	a9 a0 00 20 	fmovs  %f0, %f20
     a08:	a9 a0 00 21 	fmovs  %f1, %f20
     a0c:	a9 a0 00 22 	fmovs  %f2, %f20
     a10:	a9 a0 00 23 	fmovs  %f3, %f20
     a14:	a9 a0 00 24 	fmovs  %f4, %f20
     a18:	a9 a0 00 25 	fmovs  %f5, %f20
     a1c:	a9 a0 00 26 	fmovs  %f6, %f20
     a20:	a9 a0 00 27 	fmovs  %f7, %f20
     a24:	a9 a0 00 28 	fmovs  %f8, %f20
     a28:	a9 a0 00 29 	fmovs  %f9, %f20
     a2c:	a9 a0 00 2a 	fmovs  %f10, %f20
     a30:	a9 a0 00 2b 	fmovs  %f11, %f20
     a34:	a9 a0 00 2c 	fmovs  %f12, %f20
     a38:	a9 a0 00 2d 	fmovs  %f13, %f20
     a3c:	a9 a0 00 2e 	fmovs  %f14, %f20
     a40:	a9 a0 00 2f 	fmovs  %f15, %f20
     a44:	a9 a0 00 30 	fmovs  %f16, %f20
     a48:	a9 a0 00 31 	fmovs  %f17, %f20
     a4c:	a9 a0 00 32 	fmovs  %f18, %f20
     a50:	a9 a0 00 33 	fmovs  %f19, %f20
     a54:	a9 a0 00 34 	fmovs  %f20, %f20
     a58:	a9 a0 00 35 	fmovs  %f21, %f20
     a5c:	a9 a0 00 36 	fmovs  %f22, %f20
     a60:	a9 a0 00 37 	fmovs  %f23, %f20
     a64:	a9 a0 00 38 	fmovs  %f24, %f20
     a68:	a9 a0 00 39 	fmovs  %f25, %f20
     a6c:	a9 a0 00 3a 	fmovs  %f26, %f20
     a70:	a9 a0 00 3b 	fmovs  %f27, %f20
     a74:	a9 a0 00 3c 	fmovs  %f28, %f20
     a78:	a9 a0 00 3d 	fmovs  %f29, %f20
     a7c:	a9 a0 00 3e 	fmovs  %f30, %f20
     a80:	a9 a0 00 3f 	fmovs  %f31, %f20
     a84:	ab a0 00 20 	fmovs  %f0, %f21
     a88:	ab a0 00 21 	fmovs  %f1, %f21
     a8c:	ab a0 00 22 	fmovs  %f2, %f21
     a90:	ab a0 00 23 	fmovs  %f3, %f21
     a94:	ab a0 00 24 	fmovs  %f4, %f21
     a98:	ab a0 00 25 	fmovs  %f5, %f21
     a9c:	ab a0 00 26 	fmovs  %f6, %f21
     aa0:	ab a0 00 27 	fmovs  %f7, %f21
     aa4:	ab a0 00 28 	fmovs  %f8, %f21
     aa8:	ab a0 00 29 	fmovs  %f9, %f21
     aac:	ab a0 00 2a 	fmovs  %f10, %f21
     ab0:	ab a0 00 2b 	fmovs  %f11, %f21
     ab4:	ab a0 00 2c 	fmovs  %f12, %f21
     ab8:	ab a0 00 2d 	fmovs  %f13, %f21
     abc:	ab a0 00 2e 	fmovs  %f14, %f21
     ac0:	ab a0 00 2f 	fmovs  %f15, %f21
     ac4:	ab a0 00 30 	fmovs  %f16, %f21
     ac8:	ab a0 00 31 	fmovs  %f17, %f21
     acc:	ab a0 00 32 	fmovs  %f18, %f21
     ad0:	ab a0 00 33 	fmovs  %f19, %f21
     ad4:	ab a0 00 34 	fmovs  %f20, %f21
     ad8:	ab a0 00 35 	fmovs  %f21, %f21
     adc:	ab a0 00 36 	fmovs  %f22, %f21
     ae0:	ab a0 00 37 	fmovs  %f23, %f21
     ae4:	ab a0 00 38 	fmovs  %f24, %f21
     ae8:	ab a0 00 39 	fmovs  %f25, %f21
     aec:	ab a0 00 3a 	fmovs  %f26, %f21
     af0:	ab a0 00 3b 	fmovs  %f27, %f21
     af4:	ab a0 00 3c 	fmovs  %f28, %f21
     af8:	ab a0 00 3d 	fmovs  %f29, %f21
     afc:	ab a0 00 3e 	fmovs  %f30, %f21
     b00:	ab a0 00 3f 	fmovs  %f31, %f21
     b04:	ad a0 00 20 	fmovs  %f0, %f22
     b08:	ad a0 00 21 	fmovs  %f1, %f22
     b0c:	ad a0 00 22 	fmovs  %f2, %f22
     b10:	ad a0 00 23 	fmovs  %f3, %f22
     b14:	ad a0 00 24 	fmovs  %f4, %f22
     b18:	ad a0 00 25 	fmovs  %f5, %f22
     b1c:	ad a0 00 26 	fmovs  %f6, %f22
     b20:	ad a0 00 27 	fmovs  %f7, %f22
     b24:	ad a0 00 28 	fmovs  %f8, %f22
     b28:	ad a0 00 29 	fmovs  %f9, %f22
     b2c:	ad a0 00 2a 	fmovs  %f10, %f22
     b30:	ad a0 00 2b 	fmovs  %f11, %f22
     b34:	ad a0 00 2c 	fmovs  %f12, %f22
     b38:	ad a0 00 2d 	fmovs  %f13, %f22
     b3c:	ad a0 00 2e 	fmovs  %f14, %f22
     b40:	ad a0 00 2f 	fmovs  %f15, %f22
     b44:	ad a0 00 30 	fmovs  %f16, %f22
     b48:	ad a0 00 31 	fmovs  %f17, %f22
     b4c:	ad a0 00 32 	fmovs  %f18, %f22
     b50:	ad a0 00 33 	fmovs  %f19, %f22
     b54:	ad a0 00 34 	fmovs  %f20, %f22
     b58:	ad a0 00 35 	fmovs  %f21, %f22
     b5c:	ad a0 00 36 	fmovs  %f22, %f22
     b60:	ad a0 00 37 	fmovs  %f23, %f22
     b64:	ad a0 00 38 	fmovs  %f24, %f22
     b68:	ad a0 00 39 	fmovs  %f25, %f22
     b6c:	ad a0 00 3a 	fmovs  %f26, %f22
     b70:	ad a0 00 3b 	fmovs  %f27, %f22
     b74:	ad a0 00 3c 	fmovs  %f28, %f22
     b78:	ad a0 00 3d 	fmovs  %f29, %f22
     b7c:	ad a0 00 3e 	fmovs  %f30, %f22
     b80:	ad a0 00 3f 	fmovs  %f31, %f22
     b84:	af a0 00 20 	fmovs  %f0, %f23
     b88:	af a0 00 21 	fmovs  %f1, %f23
     b8c:	af a0 00 22 	fmovs  %f2, %f23
     b90:	af a0 00 23 	fmovs  %f3, %f23
     b94:	af a0 00 24 	fmovs  %f4, %f23
     b98:	af a0 00 25 	fmovs  %f5, %f23
     b9c:	af a0 00 26 	fmovs  %f6, %f23
     ba0:	af a0 00 27 	fmovs  %f7, %f23
     ba4:	af a0 00 28 	fmovs  %f8, %f23
     ba8:	af a0 00 29 	fmovs  %f9, %f23
     bac:	af a0 00 2a 	fmovs  %f10, %f23
     bb0:	af a0 00 2b 	fmovs  %f11, %f23
     bb4:	af a0 00 2c 	fmovs  %f12, %f23
     bb8:	af a0 00 2d 	fmovs  %f13, %f23
     bbc:	af a0 00 2e 	fmovs  %f14, %f23
     bc0:	af a0 00 2f 	fmovs  %f15, %f23
     bc4:	af a0 00 30 	fmovs  %f16, %f23
     bc8:	af a0 00 31 	fmovs  %f17, %f23
     bcc:	af a0 00 32 	fmovs  %f18, %f23
     bd0:	af a0 00 33 	fmovs  %f19, %f23
     bd4:	af a0 00 34 	fmovs  %f20, %f23
     bd8:	af a0 00 35 	fmovs  %f21, %f23
     bdc:	af a0 00 36 	fmovs  %f22, %f23
     be0:	af a0 00 37 	fmovs  %f23, %f23
     be4:	af a0 00 38 	fmovs  %f24, %f23
     be8:	af a0 00 39 	fmovs  %f25, %f23
     bec:	af a0 00 3a 	fmovs  %f26, %f23
     bf0:	af a0 00 3b 	fmovs  %f27, %f23
     bf4:	af a0 00 3c 	fmovs  %f28, %f23
     bf8:	af a0 00 3d 	fmovs  %f29, %f23
     bfc:	af a0 00 3e 	fmovs  %f30, %f23
     c00:	af a0 00 3f 	fmovs  %f31, %f23
     c04:	b1 a0 00 20 	fmovs  %f0, %f24
     c08:	b1 a0 00 21 	fmovs  %f1, %f24
     c0c:	b1 a0 00 22 	fmovs  %f2, %f24
     c10:	b1 a0 00 23 	fmovs  %f3, %f24
     c14:	b1 a0 00 24 	fmovs  %f4, %f24
     c18:	b1 a0 00 25 	fmovs  %f5, %f24
     c1c:	b1 a0 00 26 	fmovs  %f6, %f24
     c20:	b1 a0 00 27 	fmovs  %f7, %f24
     c24:	b1 a0 00 28 	fmovs  %f8, %f24
     c28:	b1 a0 00 29 	fmovs  %f9, %f24
     c2c:	b1 a0 00 2a 	fmovs  %f10, %f24
     c30:	b1 a0 00 2b 	fmovs  %f11, %f24
     c34:	b1 a0 00 2c 	fmovs  %f12, %f24
     c38:	b1 a0 00 2d 	fmovs  %f13, %f24
     c3c:	b1 a0 00 2e 	fmovs  %f14, %f24
     c40:	b1 a0 00 2f 	fmovs  %f15, %f24
     c44:	b1 a0 00 30 	fmovs  %f16, %f24
     c48:	b1 a0 00 31 	fmovs  %f17, %f24
     c4c:	b1 a0 00 32 	fmovs  %f18, %f24
     c50:	b1 a0 00 33 	fmovs  %f19, %f24
     c54:	b1 a0 00 34 	fmovs  %f20, %f24
     c58:	b1 a0 00 35 	fmovs  %f21, %f24
     c5c:	b1 a0 00 36 	fmovs  %f22, %f24
     c60:	b1 a0 00 37 	fmovs  %f23, %f24
     c64:	b1 a0 00 38 	fmovs  %f24, %f24
     c68:	b1 a0 00 39 	fmovs  %f25, %f24
     c6c:	b1 a0 00 3a 	fmovs  %f26, %f24
     c70:	b1 a0 00 3b 	fmovs  %f27, %f24
     c74:	b1 a0 00 3c 	fmovs  %f28, %f24
     c78:	b1 a0 00 3d 	fmovs  %f29, %f24
     c7c:	b1 a0 00 3e 	fmovs  %f30, %f24
     c80:	b1 a0 00 3f 	fmovs  %f31, %f24
     c84:	b3 a0 00 20 	fmovs  %f0, %f25
     c88:	b3 a0 00 21 	fmovs  %f1, %f25
     c8c:	b3 a0 00 22 	fmovs  %f2, %f25
     c90:	b3 a0 00 23 	fmovs  %f3, %f25
     c94:	b3 a0 00 24 	fmovs  %f4, %f25
     c98:	b3 a0 00 25 	fmovs  %f5, %f25
     c9c:	b3 a0 00 26 	fmovs  %f6, %f25
     ca0:	b3 a0 00 27 	fmovs  %f7, %f25
     ca4:	b3 a0 00 28 	fmovs  %f8, %f25
     ca8:	b3 a0 00 29 	fmovs  %f9, %f25
     cac:	b3 a0 00 2a 	fmovs  %f10, %f25
     cb0:	b3 a0 00 2b 	fmovs  %f11, %f25
     cb4:	b3 a0 00 2c 	fmovs  %f12, %f25
     cb8:	b3 a0 00 2d 	fmovs  %f13, %f25
     cbc:	b3 a0 00 2e 	fmovs  %f14, %f25
     cc0:	b3 a0 00 2f 	fmovs  %f15, %f25
     cc4:	b3 a0 00 30 	fmovs  %f16, %f25
     cc8:	b3 a0 00 31 	fmovs  %f17, %f25
     ccc:	b3 a0 00 32 	fmovs  %f18, %f25
     cd0:	b3 a0 00 33 	fmovs  %f19, %f25
     cd4:	b3 a0 00 34 	fmovs  %f20, %f25
     cd8:	b3 a0 00 35 	fmovs  %f21, %f25
     cdc:	b3 a0 00 36 	fmovs  %f22, %f25
     ce0:	b3 a0 00 37 	fmovs  %f23, %f25
     ce4:	b3 a0 00 38 	fmovs  %f24, %f25
     ce8:	b3 a0 00 39 	fmovs  %f25, %f25
     cec:	b3 a0 00 3a 	fmovs  %f26, %f25
     cf0:	b3 a0 00 3b 	fmovs  %f27, %f25
     cf4:	b3 a0 00 3c 	fmovs  %f28, %f25
     cf8:	b3 a0 00 3d 	fmovs  %f29, %f25
     cfc:	b3 a0 00 3e 	fmovs  %f30, %f25
     d00:	b3 a0 00 3f 	fmovs  %f31, %f25
     d04:	b5 a0 00 20 	fmovs  %f0, %f26
     d08:	b5 a0 00 21 	fmovs  %f1, %f26
     d0c:	b5 a0 00 22 	fmovs  %f2, %f26
     d10:	b5 a0 00 23 	fmovs  %f3, %f26
     d14:	b5 a0 00 24 	fmovs  %f4, %f26
     d18:	b5 a0 00 25 	fmovs  %f5, %f26
     d1c:	b5 a0 00 26 	fmovs  %f6, %f26
     d20:	b5 a0 00 27 	fmovs  %f7, %f26
     d24:	b5 a0 00 28 	fmovs  %f8, %f26
     d28:	b5 a0 00 29 	fmovs  %f9, %f26
     d2c:	b5 a0 00 2a 	fmovs  %f10, %f26
     d30:	b5 a0 00 2b 	fmovs  %f11, %f26
     d34:	b5 a0 00 2c 	fmovs  %f12, %f26
     d38:	b5 a0 00 2d 	fmovs  %f13, %f26
     d3c:	b5 a0 00 2e 	fmovs  %f14, %f26
     d40:	b5 a0 00 2f 	fmovs  %f15, %f26
     d44:	b5 a0 00 30 	fmovs  %f16, %f26
     d48:	b5 a0 00 31 	fmovs  %f17, %f26
     d4c:	b5 a0 00 32 	fmovs  %f18, %f26
     d50:	b5 a0 00 33 	fmovs  %f19, %f26
     d54:	b5 a0 00 34 	fmovs  %f20, %f26
     d58:	b5 a0 00 35 	fmovs  %f21, %f26
     d5c:	b5 a0 00 36 	fmovs  %f22, %f26
     d60:	b5 a0 00 37 	fmovs  %f23, %f26
     d64:	b5 a0 00 38 	fmovs  %f24, %f26
     d68:	b5 a0 00 39 	fmovs  %f25, %f26
     d6c:	b5 a0 00 3a 	fmovs  %f26, %f26
     d70:	b5 a0 00 3b 	fmovs  %f27, %f26
     d74:	b5 a0 00 3c 	fmovs  %f28, %f26
     d78:	b5 a0 00 3d 	fmovs  %f29, %f26
     d7c:	b5 a0 00 3e 	fmovs  %f30, %f26
     d80:	b5 a0 00 3f 	fmovs  %f31, %f26
     d84:	b7 a0 00 20 	fmovs  %f0, %f27
     d88:	b7 a0 00 21 	fmovs  %f1, %f27
     d8c:	b7 a0 00 22 	fmovs  %f2, %f27
     d90:	b7 a0 00 23 	fmovs  %f3, %f27
     d94:	b7 a0 00 24 	fmovs  %f4, %f27
     d98:	b7 a0 00 25 	fmovs  %f5, %f27
     d9c:	b7 a0 00 26 	fmovs  %f6, %f27
     da0:	b7 a0 00 27 	fmovs  %f7, %f27
     da4:	b7 a0 00 28 	fmovs  %f8, %f27
     da8:	b7 a0 00 29 	fmovs  %f9, %f27
     dac:	b7 a0 00 2a 	fmovs  %f10, %f27
     db0:	b7 a0 00 2b 	fmovs  %f11, %f27
     db4:	b7 a0 00 2c 	fmovs  %f12, %f27
     db8:	b7 a0 00 2d 	fmovs  %f13, %f27
     dbc:	b7 a0 00 2e 	fmovs  %f14, %f27
     dc0:	b7 a0 00 2f 	fmovs  %f15, %f27
     dc4:	b7 a0 00 30 	fmovs  %f16, %f27
     dc8:	b7 a0 00 31 	fmovs  %f17, %f27
     dcc:	b7 a0 00 32 	fmovs  %f18, %f27
     dd0:	b7 a0 00 33 	fmovs  %f19, %f27
     dd4:	b7 a0 00 34 	fmovs  %f20, %f27
     dd8:	b7 a0 00 35 	fmovs  %f21, %f27
     ddc:	b7 a0 00 36 	fmovs  %f22, %f27
     de0:	b7 a0 00 37 	fmovs  %f23, %f27
     de4:	b7 a0 00 38 	fmovs  %f24, %f27
     de8:	b7 a0 00 39 	fmovs  %f25, %f27
     dec:	b7 a0 00 3a 	fmovs  %f26, %f27
     df0:	b7 a0 00 3b 	fmovs  %f27, %f27
     df4:	b7 a0 00 3c 	fmovs  %f28, %f27
     df8:	b7 a0 00 3d 	fmovs  %f29, %f27
     dfc:	b7 a0 00 3e 	fmovs  %f30, %f27
     e00:	b7 a0 00 3f 	fmovs  %f31, %f27
     e04:	b9 a0 00 20 	fmovs  %f0, %f28
     e08:	b9 a0 00 21 	fmovs  %f1, %f28
     e0c:	b9 a0 00 22 	fmovs  %f2, %f28
     e10:	b9 a0 00 23 	fmovs  %f3, %f28
     e14:	b9 a0 00 24 	fmovs  %f4, %f28
     e18:	b9 a0 00 25 	fmovs  %f5, %f28
     e1c:	b9 a0 00 26 	fmovs  %f6, %f28
     e20:	b9 a0 00 27 	fmovs  %f7, %f28
     e24:	b9 a0 00 28 	fmovs  %f8, %f28
     e28:	b9 a0 00 29 	fmovs  %f9, %f28
     e2c:	b9 a0 00 2a 	fmovs  %f10, %f28
     e30:	b9 a0 00 2b 	fmovs  %f11, %f28
     e34:	b9 a0 00 2c 	fmovs  %f12, %f28
     e38:	b9 a0 00 2d 	fmovs  %f13, %f28
     e3c:	b9 a0 00 2e 	fmovs  %f14, %f28
     e40:	b9 a0 00 2f 	fmovs  %f15, %f28
     e44:	b9 a0 00 30 	fmovs  %f16, %f28
     e48:	b9 a0 00 31 	fmovs  %f17, %f28
     e4c:	b9 a0 00 32 	fmovs  %f18, %f28
     e50:	b9 a0 00 33 	fmovs  %f19, %f28
     e54:	b9 a0 00 34 	fmovs  %f20, %f28
     e58:	b9 a0 00 35 	fmovs  %f21, %f28
     e5c:	b9 a0 00 36 	fmovs  %f22, %f28
     e60:	b9 a0 00 37 	fmovs  %f23, %f28
     e64:	b9 a0 00 38 	fmovs  %f24, %f28
     e68:	b9 a0 00 39 	fmovs  %f25, %f28
     e6c:	b9 a0 00 3a 	fmovs  %f26, %f28
     e70:	b9 a0 00 3b 	fmovs  %f27, %f28
     e74:	b9 a0 00 3c 	fmovs  %f28, %f28
     e78:	b9 a0 00 3d 	fmovs  %f29, %f28
     e7c:	b9 a0 00 3e 	fmovs  %f30, %f28
     e80:	b9 a0 00 3f 	fmovs  %f31, %f28
     e84:	bb a0 00 20 	fmovs  %f0, %f29
     e88:	bb a0 00 21 	fmovs  %f1, %f29
     e8c:	bb a0 00 22 	fmovs  %f2, %f29
     e90:	bb a0 00 23 	fmovs  %f3, %f29
     e94:	bb a0 00 24 	fmovs  %f4, %f29
     e98:	bb a0 00 25 	fmovs  %f5, %f29
     e9c:	bb a0 00 26 	fmovs  %f6, %f29
     ea0:	bb a0 00 27 	fmovs  %f7, %f29
     ea4:	bb a0 00 28 	fmovs  %f8, %f29
     ea8:	bb a0 00 29 	fmovs  %f9, %f29
     eac:	bb a0 00 2a 	fmovs  %f10, %f29
     eb0:	bb a0 00 2b 	fmovs  %f11, %f29
     eb4:	bb a0 00 2c 	fmovs  %f12, %f29
     eb8:	bb a0 00 2d 	fmovs  %f13, %f29
     ebc:	bb a0 00 2e 	fmovs  %f14, %f29
     ec0:	bb a0 00 2f 	fmovs  %f15, %f29
     ec4:	bb a0 00 30 	fmovs  %f16, %f29
     ec8:	bb a0 00 31 	fmovs  %f17, %f29
     ecc:	bb a0 00 32 	fmovs  %f18, %f29
     ed0:	bb a0 00 33 	fmovs  %f19, %f29
     ed4:	bb a0 00 34 	fmovs  %f20, %f29
     ed8:	bb a0 00 35 	fmovs  %f21, %f29
     edc:	bb a0 00 36 	fmovs  %f22, %f29
     ee0:	bb a0 00 37 	fmovs  %f23, %f29
     ee4:	bb a0 00 38 	fmovs  %f24, %f29
     ee8:	bb a0 00 39 	fmovs  %f25, %f29
     eec:	bb a0 00 3a 	fmovs  %f26, %f29
     ef0:	bb a0 00 3b 	fmovs  %f27, %f29
     ef4:	bb a0 00 3c 	fmovs  %f28, %f29
     ef8:	bb a0 00 3d 	fmovs  %f29, %f29
     efc:	bb a0 00 3e 	fmovs  %f30, %f29
     f00:	bb a0 00 3f 	fmovs  %f31, %f29
     f04:	bd a0 00 20 	fmovs  %f0, %f30
     f08:	bd a0 00 21 	fmovs  %f1, %f30
     f0c:	bd a0 00 22 	fmovs  %f2, %f30
     f10:	bd a0 00 23 	fmovs  %f3, %f30
     f14:	bd a0 00 24 	fmovs  %f4, %f30
     f18:	bd a0 00 25 	fmovs  %f5, %f30
     f1c:	bd a0 00 26 	fmovs  %f6, %f30
     f20:	bd a0 00 27 	fmovs  %f7, %f30
     f24:	bd a0 00 28 	fmovs  %f8, %f30
     f28:	bd a0 00 29 	fmovs  %f9, %f30
     f2c:	bd a0 00 2a 	fmovs  %f10, %f30
     f30:	bd a0 00 2b 	fmovs  %f11, %f30
     f34:	bd a0 00 2c 	fmovs  %f12, %f30
     f38:	bd a0 00 2d 	fmovs  %f13, %f30
     f3c:	bd a0 00 2e 	fmovs  %f14, %f30
     f40:	bd a0 00 2f 	fmovs  %f15, %f30
     f44:	bd a0 00 30 	fmovs  %f16, %f30
     f48:	bd a0 00 31 	fmovs  %f17, %f30
     f4c:	bd a0 00 32 	fmovs  %f18, %f30
     f50:	bd a0 00 33 	fmovs  %f19, %f30
     f54:	bd a0 00 34 	fmovs  %f20, %f30
     f58:	bd a0 00 35 	fmovs  %f21, %f30
     f5c:	bd a0 00 36 	fmovs  %f22, %f30
     f60:	bd a0 00 37 	fmovs  %f23, %f30
     f64:	bd a0 00 38 	fmovs  %f24, %f30
     f68:	bd a0 00 39 	fmovs  %f25, %f30
     f6c:	bd a0 00 3a 	fmovs  %f26, %f30
     f70:	bd a0 00 3b 	fmovs  %f27, %f30
     f74:	bd a0 00 3c 	fmovs  %f28, %f30
     f78:	bd a0 00 3d 	fmovs  %f29, %f30
     f7c:	bd a0 00 3e 	fmovs  %f30, %f30
     f80:	bd a0 00 3f 	fmovs  %f31, %f30
     f84:	bf a0 00 20 	fmovs  %f0, %f31
     f88:	bf a0 00 21 	fmovs  %f1, %f31
     f8c:	bf a0 00 22 	fmovs  %f2, %f31
     f90:	bf a0 00 23 	fmovs  %f3, %f31
     f94:	bf a0 00 24 	fmovs  %f4, %f31
     f98:	bf a0 00 25 	fmovs  %f5, %f31
     f9c:	bf a0 00 26 	fmovs  %f6, %f31
     fa0:	bf a0 00 27 	fmovs  %f7, %f31
     fa4:	bf a0 00 28 	fmovs  %f8, %f31
     fa8:	bf a0 00 29 	fmovs  %f9, %f31
     fac:	bf a0 00 2a 	fmovs  %f10, %f31
     fb0:	bf a0 00 2b 	fmovs  %f11, %f31
     fb4:	bf a0 00 2c 	fmovs  %f12, %f31
     fb8:	bf a0 00 2d 	fmovs  %f13, %f31
     fbc:	bf a0 00 2e 	fmovs  %f14, %f31
     fc0:	bf a0 00 2f 	fmovs  %f15, %f31
     fc4:	bf a0 00 30 	fmovs  %f16, %f31
     fc8:	bf a0 00 31 	fmovs  %f17, %f31
     fcc:	bf a0 00 32 	fmovs  %f18, %f31
     fd0:	bf a0 00 33 	fmovs  %f19, %f31
     fd4:	bf a0 00 34 	fmovs  %f20, %f31
     fd8:	bf a0 00 35 	fmovs  %f21, %f31
     fdc:	bf a0 00 36 	fmovs  %f22, %f31
     fe0:	bf a0 00 37 	fmovs  %f23, %f31
     fe4:	bf a0 00 38 	fmovs  %f24, %f31
     fe8:	bf a0 00 39 	fmovs  %f25, %f31
     fec:	bf a0 00 3a 	fmovs  %f26, %f31
     ff0:	bf a0 00 3b 	fmovs  %f27, %f31
     ff4:	bf a0 00 3c 	fmovs  %f28, %f31
     ff8:	bf a0 00 3d 	fmovs  %f29, %f31
     ffc:	bf a0 00 3e 	fmovs  %f30, %f31
    1000:	bf a0 00 3f 	fmovs  %f31, %f31
    1004:	01 00 00 00 	nop 
