
/lindata/My-work/Professional/iitb/development/isa-v2-branch/ajit-toolchain/as-dis-test/asmgen/runs/Monday-March-15-2021-13-27-26/objs/sethi.o:     file format elf32-sparc


Disassembly of section .text:

00000000 <main>:
   0:	01 00 00 00 	nop 
   4:	01 00 00 00 	nop 
   8:	01 3f ff ff 	sethi  %hi(0xfffffc00), %g0
   c:	03 00 00 00 	sethi  %hi(0), %g1
  10:	03 3f ff ff 	sethi  %hi(0xfffffc00), %g1
  14:	05 00 00 00 	sethi  %hi(0), %g2
  18:	05 3f ff ff 	sethi  %hi(0xfffffc00), %g2
  1c:	07 00 00 00 	sethi  %hi(0), %g3
  20:	07 3f ff ff 	sethi  %hi(0xfffffc00), %g3
  24:	09 00 00 00 	sethi  %hi(0), %g4
  28:	09 3f ff ff 	sethi  %hi(0xfffffc00), %g4
  2c:	0b 00 00 00 	sethi  %hi(0), %g5
  30:	0b 3f ff ff 	sethi  %hi(0xfffffc00), %g5
  34:	0d 00 00 00 	sethi  %hi(0), %g6
  38:	0d 3f ff ff 	sethi  %hi(0xfffffc00), %g6
  3c:	0f 00 00 00 	sethi  %hi(0), %g7
  40:	0f 3f ff ff 	sethi  %hi(0xfffffc00), %g7
  44:	11 00 00 00 	sethi  %hi(0), %o0
  48:	11 3f ff ff 	sethi  %hi(0xfffffc00), %o0
  4c:	13 00 00 00 	sethi  %hi(0), %o1
  50:	13 3f ff ff 	sethi  %hi(0xfffffc00), %o1
  54:	15 00 00 00 	sethi  %hi(0), %o2
  58:	15 3f ff ff 	sethi  %hi(0xfffffc00), %o2
  5c:	17 00 00 00 	sethi  %hi(0), %o3
  60:	17 3f ff ff 	sethi  %hi(0xfffffc00), %o3
  64:	19 00 00 00 	sethi  %hi(0), %o4
  68:	19 3f ff ff 	sethi  %hi(0xfffffc00), %o4
  6c:	1b 00 00 00 	sethi  %hi(0), %o5
  70:	1b 3f ff ff 	sethi  %hi(0xfffffc00), %o5
  74:	1d 00 00 00 	sethi  %hi(0), %sp
  78:	1d 3f ff ff 	sethi  %hi(0xfffffc00), %sp
  7c:	1f 00 00 00 	sethi  %hi(0), %o7
  80:	1f 3f ff ff 	sethi  %hi(0xfffffc00), %o7
  84:	21 00 00 00 	sethi  %hi(0), %l0
  88:	21 3f ff ff 	sethi  %hi(0xfffffc00), %l0
  8c:	23 00 00 00 	sethi  %hi(0), %l1
  90:	23 3f ff ff 	sethi  %hi(0xfffffc00), %l1
  94:	25 00 00 00 	sethi  %hi(0), %l2
  98:	25 3f ff ff 	sethi  %hi(0xfffffc00), %l2
  9c:	27 00 00 00 	sethi  %hi(0), %l3
  a0:	27 3f ff ff 	sethi  %hi(0xfffffc00), %l3
  a4:	29 00 00 00 	sethi  %hi(0), %l4
  a8:	29 3f ff ff 	sethi  %hi(0xfffffc00), %l4
  ac:	2b 00 00 00 	sethi  %hi(0), %l5
  b0:	2b 3f ff ff 	sethi  %hi(0xfffffc00), %l5
  b4:	2d 00 00 00 	sethi  %hi(0), %l6
  b8:	2d 3f ff ff 	sethi  %hi(0xfffffc00), %l6
  bc:	2f 00 00 00 	sethi  %hi(0), %l7
  c0:	2f 3f ff ff 	sethi  %hi(0xfffffc00), %l7
  c4:	31 00 00 00 	sethi  %hi(0), %i0
  c8:	31 3f ff ff 	sethi  %hi(0xfffffc00), %i0
  cc:	33 00 00 00 	sethi  %hi(0), %i1
  d0:	33 3f ff ff 	sethi  %hi(0xfffffc00), %i1
  d4:	35 00 00 00 	sethi  %hi(0), %i2
  d8:	35 3f ff ff 	sethi  %hi(0xfffffc00), %i2
  dc:	37 00 00 00 	sethi  %hi(0), %i3
  e0:	37 3f ff ff 	sethi  %hi(0xfffffc00), %i3
  e4:	39 00 00 00 	sethi  %hi(0), %i4
  e8:	39 3f ff ff 	sethi  %hi(0xfffffc00), %i4
  ec:	3b 00 00 00 	sethi  %hi(0), %i5
  f0:	3b 3f ff ff 	sethi  %hi(0xfffffc00), %i5
  f4:	3d 00 00 00 	sethi  %hi(0), %fp
  f8:	3d 3f ff ff 	sethi  %hi(0xfffffc00), %fp
  fc:	3f 00 00 00 	sethi  %hi(0), %i7
 100:	3f 3f ff ff 	sethi  %hi(0xfffffc00), %i7
 104:	01 00 00 00 	nop 
