
/lindata/My-work/Professional/iitb/development/isa-v2-branch/ajit-toolchain/as-dis-test/asmgen/runs/Monday-March-15-2021-13-27-26/objs/taddcc.o:     file format elf32-sparc


Disassembly of section .text:

00000000 <main>:
       0:	01 00 00 00 	nop 
       4:	81 00 00 00 	taddcc  %g0, %g0, %g0
       8:	81 00 00 01 	taddcc  %g0, %g1, %g0
       c:	81 00 00 02 	taddcc  %g0, %g2, %g0
      10:	81 00 00 03 	taddcc  %g0, %g3, %g0
      14:	81 00 00 04 	taddcc  %g0, %g4, %g0
      18:	81 00 00 05 	taddcc  %g0, %g5, %g0
      1c:	81 00 00 06 	taddcc  %g0, %g6, %g0
      20:	81 00 00 07 	taddcc  %g0, %g7, %g0
      24:	81 00 00 08 	taddcc  %g0, %o0, %g0
      28:	81 00 00 09 	taddcc  %g0, %o1, %g0
      2c:	81 00 00 0a 	taddcc  %g0, %o2, %g0
      30:	81 00 00 0b 	taddcc  %g0, %o3, %g0
      34:	81 00 00 0c 	taddcc  %g0, %o4, %g0
      38:	81 00 00 0d 	taddcc  %g0, %o5, %g0
      3c:	81 00 00 0e 	taddcc  %g0, %sp, %g0
      40:	81 00 00 0f 	taddcc  %g0, %o7, %g0
      44:	81 00 00 10 	taddcc  %g0, %l0, %g0
      48:	81 00 00 11 	taddcc  %g0, %l1, %g0
      4c:	81 00 00 12 	taddcc  %g0, %l2, %g0
      50:	81 00 00 13 	taddcc  %g0, %l3, %g0
      54:	81 00 00 14 	taddcc  %g0, %l4, %g0
      58:	81 00 00 15 	taddcc  %g0, %l5, %g0
      5c:	81 00 00 16 	taddcc  %g0, %l6, %g0
      60:	81 00 00 17 	taddcc  %g0, %l7, %g0
      64:	81 00 00 18 	taddcc  %g0, %i0, %g0
      68:	81 00 00 19 	taddcc  %g0, %i1, %g0
      6c:	81 00 00 1a 	taddcc  %g0, %i2, %g0
      70:	81 00 00 1b 	taddcc  %g0, %i3, %g0
      74:	81 00 00 1c 	taddcc  %g0, %i4, %g0
      78:	81 00 00 1d 	taddcc  %g0, %i5, %g0
      7c:	81 00 00 1e 	taddcc  %g0, %fp, %g0
      80:	81 00 00 1f 	taddcc  %g0, %i7, %g0
      84:	81 00 40 00 	taddcc  %g1, %g0, %g0
      88:	81 00 40 01 	taddcc  %g1, %g1, %g0
      8c:	81 00 40 02 	taddcc  %g1, %g2, %g0
      90:	81 00 40 03 	taddcc  %g1, %g3, %g0
      94:	81 00 40 04 	taddcc  %g1, %g4, %g0
      98:	81 00 40 05 	taddcc  %g1, %g5, %g0
      9c:	81 00 40 06 	taddcc  %g1, %g6, %g0
      a0:	81 00 40 07 	taddcc  %g1, %g7, %g0
      a4:	81 00 40 08 	taddcc  %g1, %o0, %g0
      a8:	81 00 40 09 	taddcc  %g1, %o1, %g0
      ac:	81 00 40 0a 	taddcc  %g1, %o2, %g0
      b0:	81 00 40 0b 	taddcc  %g1, %o3, %g0
      b4:	81 00 40 0c 	taddcc  %g1, %o4, %g0
      b8:	81 00 40 0d 	taddcc  %g1, %o5, %g0
      bc:	81 00 40 0e 	taddcc  %g1, %sp, %g0
      c0:	81 00 40 0f 	taddcc  %g1, %o7, %g0
      c4:	81 00 40 10 	taddcc  %g1, %l0, %g0
      c8:	81 00 40 11 	taddcc  %g1, %l1, %g0
      cc:	81 00 40 12 	taddcc  %g1, %l2, %g0
      d0:	81 00 40 13 	taddcc  %g1, %l3, %g0
      d4:	81 00 40 14 	taddcc  %g1, %l4, %g0
      d8:	81 00 40 15 	taddcc  %g1, %l5, %g0
      dc:	81 00 40 16 	taddcc  %g1, %l6, %g0
      e0:	81 00 40 17 	taddcc  %g1, %l7, %g0
      e4:	81 00 40 18 	taddcc  %g1, %i0, %g0
      e8:	81 00 40 19 	taddcc  %g1, %i1, %g0
      ec:	81 00 40 1a 	taddcc  %g1, %i2, %g0
      f0:	81 00 40 1b 	taddcc  %g1, %i3, %g0
      f4:	81 00 40 1c 	taddcc  %g1, %i4, %g0
      f8:	81 00 40 1d 	taddcc  %g1, %i5, %g0
      fc:	81 00 40 1e 	taddcc  %g1, %fp, %g0
     100:	81 00 40 1f 	taddcc  %g1, %i7, %g0
     104:	81 00 80 00 	taddcc  %g2, %g0, %g0
     108:	81 00 80 01 	taddcc  %g2, %g1, %g0
     10c:	81 00 80 02 	taddcc  %g2, %g2, %g0
     110:	81 00 80 03 	taddcc  %g2, %g3, %g0
     114:	81 00 80 04 	taddcc  %g2, %g4, %g0
     118:	81 00 80 05 	taddcc  %g2, %g5, %g0
     11c:	81 00 80 06 	taddcc  %g2, %g6, %g0
     120:	81 00 80 07 	taddcc  %g2, %g7, %g0
     124:	81 00 80 08 	taddcc  %g2, %o0, %g0
     128:	81 00 80 09 	taddcc  %g2, %o1, %g0
     12c:	81 00 80 0a 	taddcc  %g2, %o2, %g0
     130:	81 00 80 0b 	taddcc  %g2, %o3, %g0
     134:	81 00 80 0c 	taddcc  %g2, %o4, %g0
     138:	81 00 80 0d 	taddcc  %g2, %o5, %g0
     13c:	81 00 80 0e 	taddcc  %g2, %sp, %g0
     140:	81 00 80 0f 	taddcc  %g2, %o7, %g0
     144:	81 00 80 10 	taddcc  %g2, %l0, %g0
     148:	81 00 80 11 	taddcc  %g2, %l1, %g0
     14c:	81 00 80 12 	taddcc  %g2, %l2, %g0
     150:	81 00 80 13 	taddcc  %g2, %l3, %g0
     154:	81 00 80 14 	taddcc  %g2, %l4, %g0
     158:	81 00 80 15 	taddcc  %g2, %l5, %g0
     15c:	81 00 80 16 	taddcc  %g2, %l6, %g0
     160:	81 00 80 17 	taddcc  %g2, %l7, %g0
     164:	81 00 80 18 	taddcc  %g2, %i0, %g0
     168:	81 00 80 19 	taddcc  %g2, %i1, %g0
     16c:	81 00 80 1a 	taddcc  %g2, %i2, %g0
     170:	81 00 80 1b 	taddcc  %g2, %i3, %g0
     174:	81 00 80 1c 	taddcc  %g2, %i4, %g0
     178:	81 00 80 1d 	taddcc  %g2, %i5, %g0
     17c:	81 00 80 1e 	taddcc  %g2, %fp, %g0
     180:	81 00 80 1f 	taddcc  %g2, %i7, %g0
     184:	81 00 c0 00 	taddcc  %g3, %g0, %g0
     188:	81 00 c0 01 	taddcc  %g3, %g1, %g0
     18c:	81 00 c0 02 	taddcc  %g3, %g2, %g0
     190:	81 00 c0 03 	taddcc  %g3, %g3, %g0
     194:	81 00 c0 04 	taddcc  %g3, %g4, %g0
     198:	81 00 c0 05 	taddcc  %g3, %g5, %g0
     19c:	81 00 c0 06 	taddcc  %g3, %g6, %g0
     1a0:	81 00 c0 07 	taddcc  %g3, %g7, %g0
     1a4:	81 00 c0 08 	taddcc  %g3, %o0, %g0
     1a8:	81 00 c0 09 	taddcc  %g3, %o1, %g0
     1ac:	81 00 c0 0a 	taddcc  %g3, %o2, %g0
     1b0:	81 00 c0 0b 	taddcc  %g3, %o3, %g0
     1b4:	81 00 c0 0c 	taddcc  %g3, %o4, %g0
     1b8:	81 00 c0 0d 	taddcc  %g3, %o5, %g0
     1bc:	81 00 c0 0e 	taddcc  %g3, %sp, %g0
     1c0:	81 00 c0 0f 	taddcc  %g3, %o7, %g0
     1c4:	81 00 c0 10 	taddcc  %g3, %l0, %g0
     1c8:	81 00 c0 11 	taddcc  %g3, %l1, %g0
     1cc:	81 00 c0 12 	taddcc  %g3, %l2, %g0
     1d0:	81 00 c0 13 	taddcc  %g3, %l3, %g0
     1d4:	81 00 c0 14 	taddcc  %g3, %l4, %g0
     1d8:	81 00 c0 15 	taddcc  %g3, %l5, %g0
     1dc:	81 00 c0 16 	taddcc  %g3, %l6, %g0
     1e0:	81 00 c0 17 	taddcc  %g3, %l7, %g0
     1e4:	81 00 c0 18 	taddcc  %g3, %i0, %g0
     1e8:	81 00 c0 19 	taddcc  %g3, %i1, %g0
     1ec:	81 00 c0 1a 	taddcc  %g3, %i2, %g0
     1f0:	81 00 c0 1b 	taddcc  %g3, %i3, %g0
     1f4:	81 00 c0 1c 	taddcc  %g3, %i4, %g0
     1f8:	81 00 c0 1d 	taddcc  %g3, %i5, %g0
     1fc:	81 00 c0 1e 	taddcc  %g3, %fp, %g0
     200:	81 00 c0 1f 	taddcc  %g3, %i7, %g0
     204:	81 01 00 00 	taddcc  %g4, %g0, %g0
     208:	81 01 00 01 	taddcc  %g4, %g1, %g0
     20c:	81 01 00 02 	taddcc  %g4, %g2, %g0
     210:	81 01 00 03 	taddcc  %g4, %g3, %g0
     214:	81 01 00 04 	taddcc  %g4, %g4, %g0
     218:	81 01 00 05 	taddcc  %g4, %g5, %g0
     21c:	81 01 00 06 	taddcc  %g4, %g6, %g0
     220:	81 01 00 07 	taddcc  %g4, %g7, %g0
     224:	81 01 00 08 	taddcc  %g4, %o0, %g0
     228:	81 01 00 09 	taddcc  %g4, %o1, %g0
     22c:	81 01 00 0a 	taddcc  %g4, %o2, %g0
     230:	81 01 00 0b 	taddcc  %g4, %o3, %g0
     234:	81 01 00 0c 	taddcc  %g4, %o4, %g0
     238:	81 01 00 0d 	taddcc  %g4, %o5, %g0
     23c:	81 01 00 0e 	taddcc  %g4, %sp, %g0
     240:	81 01 00 0f 	taddcc  %g4, %o7, %g0
     244:	81 01 00 10 	taddcc  %g4, %l0, %g0
     248:	81 01 00 11 	taddcc  %g4, %l1, %g0
     24c:	81 01 00 12 	taddcc  %g4, %l2, %g0
     250:	81 01 00 13 	taddcc  %g4, %l3, %g0
     254:	81 01 00 14 	taddcc  %g4, %l4, %g0
     258:	81 01 00 15 	taddcc  %g4, %l5, %g0
     25c:	81 01 00 16 	taddcc  %g4, %l6, %g0
     260:	81 01 00 17 	taddcc  %g4, %l7, %g0
     264:	81 01 00 18 	taddcc  %g4, %i0, %g0
     268:	81 01 00 19 	taddcc  %g4, %i1, %g0
     26c:	81 01 00 1a 	taddcc  %g4, %i2, %g0
     270:	81 01 00 1b 	taddcc  %g4, %i3, %g0
     274:	81 01 00 1c 	taddcc  %g4, %i4, %g0
     278:	81 01 00 1d 	taddcc  %g4, %i5, %g0
     27c:	81 01 00 1e 	taddcc  %g4, %fp, %g0
     280:	81 01 00 1f 	taddcc  %g4, %i7, %g0
     284:	81 01 40 00 	taddcc  %g5, %g0, %g0
     288:	81 01 40 01 	taddcc  %g5, %g1, %g0
     28c:	81 01 40 02 	taddcc  %g5, %g2, %g0
     290:	81 01 40 03 	taddcc  %g5, %g3, %g0
     294:	81 01 40 04 	taddcc  %g5, %g4, %g0
     298:	81 01 40 05 	taddcc  %g5, %g5, %g0
     29c:	81 01 40 06 	taddcc  %g5, %g6, %g0
     2a0:	81 01 40 07 	taddcc  %g5, %g7, %g0
     2a4:	81 01 40 08 	taddcc  %g5, %o0, %g0
     2a8:	81 01 40 09 	taddcc  %g5, %o1, %g0
     2ac:	81 01 40 0a 	taddcc  %g5, %o2, %g0
     2b0:	81 01 40 0b 	taddcc  %g5, %o3, %g0
     2b4:	81 01 40 0c 	taddcc  %g5, %o4, %g0
     2b8:	81 01 40 0d 	taddcc  %g5, %o5, %g0
     2bc:	81 01 40 0e 	taddcc  %g5, %sp, %g0
     2c0:	81 01 40 0f 	taddcc  %g5, %o7, %g0
     2c4:	81 01 40 10 	taddcc  %g5, %l0, %g0
     2c8:	81 01 40 11 	taddcc  %g5, %l1, %g0
     2cc:	81 01 40 12 	taddcc  %g5, %l2, %g0
     2d0:	81 01 40 13 	taddcc  %g5, %l3, %g0
     2d4:	81 01 40 14 	taddcc  %g5, %l4, %g0
     2d8:	81 01 40 15 	taddcc  %g5, %l5, %g0
     2dc:	81 01 40 16 	taddcc  %g5, %l6, %g0
     2e0:	81 01 40 17 	taddcc  %g5, %l7, %g0
     2e4:	81 01 40 18 	taddcc  %g5, %i0, %g0
     2e8:	81 01 40 19 	taddcc  %g5, %i1, %g0
     2ec:	81 01 40 1a 	taddcc  %g5, %i2, %g0
     2f0:	81 01 40 1b 	taddcc  %g5, %i3, %g0
     2f4:	81 01 40 1c 	taddcc  %g5, %i4, %g0
     2f8:	81 01 40 1d 	taddcc  %g5, %i5, %g0
     2fc:	81 01 40 1e 	taddcc  %g5, %fp, %g0
     300:	81 01 40 1f 	taddcc  %g5, %i7, %g0
     304:	81 01 80 00 	taddcc  %g6, %g0, %g0
     308:	81 01 80 01 	taddcc  %g6, %g1, %g0
     30c:	81 01 80 02 	taddcc  %g6, %g2, %g0
     310:	81 01 80 03 	taddcc  %g6, %g3, %g0
     314:	81 01 80 04 	taddcc  %g6, %g4, %g0
     318:	81 01 80 05 	taddcc  %g6, %g5, %g0
     31c:	81 01 80 06 	taddcc  %g6, %g6, %g0
     320:	81 01 80 07 	taddcc  %g6, %g7, %g0
     324:	81 01 80 08 	taddcc  %g6, %o0, %g0
     328:	81 01 80 09 	taddcc  %g6, %o1, %g0
     32c:	81 01 80 0a 	taddcc  %g6, %o2, %g0
     330:	81 01 80 0b 	taddcc  %g6, %o3, %g0
     334:	81 01 80 0c 	taddcc  %g6, %o4, %g0
     338:	81 01 80 0d 	taddcc  %g6, %o5, %g0
     33c:	81 01 80 0e 	taddcc  %g6, %sp, %g0
     340:	81 01 80 0f 	taddcc  %g6, %o7, %g0
     344:	81 01 80 10 	taddcc  %g6, %l0, %g0
     348:	81 01 80 11 	taddcc  %g6, %l1, %g0
     34c:	81 01 80 12 	taddcc  %g6, %l2, %g0
     350:	81 01 80 13 	taddcc  %g6, %l3, %g0
     354:	81 01 80 14 	taddcc  %g6, %l4, %g0
     358:	81 01 80 15 	taddcc  %g6, %l5, %g0
     35c:	81 01 80 16 	taddcc  %g6, %l6, %g0
     360:	81 01 80 17 	taddcc  %g6, %l7, %g0
     364:	81 01 80 18 	taddcc  %g6, %i0, %g0
     368:	81 01 80 19 	taddcc  %g6, %i1, %g0
     36c:	81 01 80 1a 	taddcc  %g6, %i2, %g0
     370:	81 01 80 1b 	taddcc  %g6, %i3, %g0
     374:	81 01 80 1c 	taddcc  %g6, %i4, %g0
     378:	81 01 80 1d 	taddcc  %g6, %i5, %g0
     37c:	81 01 80 1e 	taddcc  %g6, %fp, %g0
     380:	81 01 80 1f 	taddcc  %g6, %i7, %g0
     384:	81 01 c0 00 	taddcc  %g7, %g0, %g0
     388:	81 01 c0 01 	taddcc  %g7, %g1, %g0
     38c:	81 01 c0 02 	taddcc  %g7, %g2, %g0
     390:	81 01 c0 03 	taddcc  %g7, %g3, %g0
     394:	81 01 c0 04 	taddcc  %g7, %g4, %g0
     398:	81 01 c0 05 	taddcc  %g7, %g5, %g0
     39c:	81 01 c0 06 	taddcc  %g7, %g6, %g0
     3a0:	81 01 c0 07 	taddcc  %g7, %g7, %g0
     3a4:	81 01 c0 08 	taddcc  %g7, %o0, %g0
     3a8:	81 01 c0 09 	taddcc  %g7, %o1, %g0
     3ac:	81 01 c0 0a 	taddcc  %g7, %o2, %g0
     3b0:	81 01 c0 0b 	taddcc  %g7, %o3, %g0
     3b4:	81 01 c0 0c 	taddcc  %g7, %o4, %g0
     3b8:	81 01 c0 0d 	taddcc  %g7, %o5, %g0
     3bc:	81 01 c0 0e 	taddcc  %g7, %sp, %g0
     3c0:	81 01 c0 0f 	taddcc  %g7, %o7, %g0
     3c4:	81 01 c0 10 	taddcc  %g7, %l0, %g0
     3c8:	81 01 c0 11 	taddcc  %g7, %l1, %g0
     3cc:	81 01 c0 12 	taddcc  %g7, %l2, %g0
     3d0:	81 01 c0 13 	taddcc  %g7, %l3, %g0
     3d4:	81 01 c0 14 	taddcc  %g7, %l4, %g0
     3d8:	81 01 c0 15 	taddcc  %g7, %l5, %g0
     3dc:	81 01 c0 16 	taddcc  %g7, %l6, %g0
     3e0:	81 01 c0 17 	taddcc  %g7, %l7, %g0
     3e4:	81 01 c0 18 	taddcc  %g7, %i0, %g0
     3e8:	81 01 c0 19 	taddcc  %g7, %i1, %g0
     3ec:	81 01 c0 1a 	taddcc  %g7, %i2, %g0
     3f0:	81 01 c0 1b 	taddcc  %g7, %i3, %g0
     3f4:	81 01 c0 1c 	taddcc  %g7, %i4, %g0
     3f8:	81 01 c0 1d 	taddcc  %g7, %i5, %g0
     3fc:	81 01 c0 1e 	taddcc  %g7, %fp, %g0
     400:	81 01 c0 1f 	taddcc  %g7, %i7, %g0
     404:	81 02 00 00 	taddcc  %o0, %g0, %g0
     408:	81 02 00 01 	taddcc  %o0, %g1, %g0
     40c:	81 02 00 02 	taddcc  %o0, %g2, %g0
     410:	81 02 00 03 	taddcc  %o0, %g3, %g0
     414:	81 02 00 04 	taddcc  %o0, %g4, %g0
     418:	81 02 00 05 	taddcc  %o0, %g5, %g0
     41c:	81 02 00 06 	taddcc  %o0, %g6, %g0
     420:	81 02 00 07 	taddcc  %o0, %g7, %g0
     424:	81 02 00 08 	taddcc  %o0, %o0, %g0
     428:	81 02 00 09 	taddcc  %o0, %o1, %g0
     42c:	81 02 00 0a 	taddcc  %o0, %o2, %g0
     430:	81 02 00 0b 	taddcc  %o0, %o3, %g0
     434:	81 02 00 0c 	taddcc  %o0, %o4, %g0
     438:	81 02 00 0d 	taddcc  %o0, %o5, %g0
     43c:	81 02 00 0e 	taddcc  %o0, %sp, %g0
     440:	81 02 00 0f 	taddcc  %o0, %o7, %g0
     444:	81 02 00 10 	taddcc  %o0, %l0, %g0
     448:	81 02 00 11 	taddcc  %o0, %l1, %g0
     44c:	81 02 00 12 	taddcc  %o0, %l2, %g0
     450:	81 02 00 13 	taddcc  %o0, %l3, %g0
     454:	81 02 00 14 	taddcc  %o0, %l4, %g0
     458:	81 02 00 15 	taddcc  %o0, %l5, %g0
     45c:	81 02 00 16 	taddcc  %o0, %l6, %g0
     460:	81 02 00 17 	taddcc  %o0, %l7, %g0
     464:	81 02 00 18 	taddcc  %o0, %i0, %g0
     468:	81 02 00 19 	taddcc  %o0, %i1, %g0
     46c:	81 02 00 1a 	taddcc  %o0, %i2, %g0
     470:	81 02 00 1b 	taddcc  %o0, %i3, %g0
     474:	81 02 00 1c 	taddcc  %o0, %i4, %g0
     478:	81 02 00 1d 	taddcc  %o0, %i5, %g0
     47c:	81 02 00 1e 	taddcc  %o0, %fp, %g0
     480:	81 02 00 1f 	taddcc  %o0, %i7, %g0
     484:	81 02 40 00 	taddcc  %o1, %g0, %g0
     488:	81 02 40 01 	taddcc  %o1, %g1, %g0
     48c:	81 02 40 02 	taddcc  %o1, %g2, %g0
     490:	81 02 40 03 	taddcc  %o1, %g3, %g0
     494:	81 02 40 04 	taddcc  %o1, %g4, %g0
     498:	81 02 40 05 	taddcc  %o1, %g5, %g0
     49c:	81 02 40 06 	taddcc  %o1, %g6, %g0
     4a0:	81 02 40 07 	taddcc  %o1, %g7, %g0
     4a4:	81 02 40 08 	taddcc  %o1, %o0, %g0
     4a8:	81 02 40 09 	taddcc  %o1, %o1, %g0
     4ac:	81 02 40 0a 	taddcc  %o1, %o2, %g0
     4b0:	81 02 40 0b 	taddcc  %o1, %o3, %g0
     4b4:	81 02 40 0c 	taddcc  %o1, %o4, %g0
     4b8:	81 02 40 0d 	taddcc  %o1, %o5, %g0
     4bc:	81 02 40 0e 	taddcc  %o1, %sp, %g0
     4c0:	81 02 40 0f 	taddcc  %o1, %o7, %g0
     4c4:	81 02 40 10 	taddcc  %o1, %l0, %g0
     4c8:	81 02 40 11 	taddcc  %o1, %l1, %g0
     4cc:	81 02 40 12 	taddcc  %o1, %l2, %g0
     4d0:	81 02 40 13 	taddcc  %o1, %l3, %g0
     4d4:	81 02 40 14 	taddcc  %o1, %l4, %g0
     4d8:	81 02 40 15 	taddcc  %o1, %l5, %g0
     4dc:	81 02 40 16 	taddcc  %o1, %l6, %g0
     4e0:	81 02 40 17 	taddcc  %o1, %l7, %g0
     4e4:	81 02 40 18 	taddcc  %o1, %i0, %g0
     4e8:	81 02 40 19 	taddcc  %o1, %i1, %g0
     4ec:	81 02 40 1a 	taddcc  %o1, %i2, %g0
     4f0:	81 02 40 1b 	taddcc  %o1, %i3, %g0
     4f4:	81 02 40 1c 	taddcc  %o1, %i4, %g0
     4f8:	81 02 40 1d 	taddcc  %o1, %i5, %g0
     4fc:	81 02 40 1e 	taddcc  %o1, %fp, %g0
     500:	81 02 40 1f 	taddcc  %o1, %i7, %g0
     504:	81 02 80 00 	taddcc  %o2, %g0, %g0
     508:	81 02 80 01 	taddcc  %o2, %g1, %g0
     50c:	81 02 80 02 	taddcc  %o2, %g2, %g0
     510:	81 02 80 03 	taddcc  %o2, %g3, %g0
     514:	81 02 80 04 	taddcc  %o2, %g4, %g0
     518:	81 02 80 05 	taddcc  %o2, %g5, %g0
     51c:	81 02 80 06 	taddcc  %o2, %g6, %g0
     520:	81 02 80 07 	taddcc  %o2, %g7, %g0
     524:	81 02 80 08 	taddcc  %o2, %o0, %g0
     528:	81 02 80 09 	taddcc  %o2, %o1, %g0
     52c:	81 02 80 0a 	taddcc  %o2, %o2, %g0
     530:	81 02 80 0b 	taddcc  %o2, %o3, %g0
     534:	81 02 80 0c 	taddcc  %o2, %o4, %g0
     538:	81 02 80 0d 	taddcc  %o2, %o5, %g0
     53c:	81 02 80 0e 	taddcc  %o2, %sp, %g0
     540:	81 02 80 0f 	taddcc  %o2, %o7, %g0
     544:	81 02 80 10 	taddcc  %o2, %l0, %g0
     548:	81 02 80 11 	taddcc  %o2, %l1, %g0
     54c:	81 02 80 12 	taddcc  %o2, %l2, %g0
     550:	81 02 80 13 	taddcc  %o2, %l3, %g0
     554:	81 02 80 14 	taddcc  %o2, %l4, %g0
     558:	81 02 80 15 	taddcc  %o2, %l5, %g0
     55c:	81 02 80 16 	taddcc  %o2, %l6, %g0
     560:	81 02 80 17 	taddcc  %o2, %l7, %g0
     564:	81 02 80 18 	taddcc  %o2, %i0, %g0
     568:	81 02 80 19 	taddcc  %o2, %i1, %g0
     56c:	81 02 80 1a 	taddcc  %o2, %i2, %g0
     570:	81 02 80 1b 	taddcc  %o2, %i3, %g0
     574:	81 02 80 1c 	taddcc  %o2, %i4, %g0
     578:	81 02 80 1d 	taddcc  %o2, %i5, %g0
     57c:	81 02 80 1e 	taddcc  %o2, %fp, %g0
     580:	81 02 80 1f 	taddcc  %o2, %i7, %g0
     584:	81 02 c0 00 	taddcc  %o3, %g0, %g0
     588:	81 02 c0 01 	taddcc  %o3, %g1, %g0
     58c:	81 02 c0 02 	taddcc  %o3, %g2, %g0
     590:	81 02 c0 03 	taddcc  %o3, %g3, %g0
     594:	81 02 c0 04 	taddcc  %o3, %g4, %g0
     598:	81 02 c0 05 	taddcc  %o3, %g5, %g0
     59c:	81 02 c0 06 	taddcc  %o3, %g6, %g0
     5a0:	81 02 c0 07 	taddcc  %o3, %g7, %g0
     5a4:	81 02 c0 08 	taddcc  %o3, %o0, %g0
     5a8:	81 02 c0 09 	taddcc  %o3, %o1, %g0
     5ac:	81 02 c0 0a 	taddcc  %o3, %o2, %g0
     5b0:	81 02 c0 0b 	taddcc  %o3, %o3, %g0
     5b4:	81 02 c0 0c 	taddcc  %o3, %o4, %g0
     5b8:	81 02 c0 0d 	taddcc  %o3, %o5, %g0
     5bc:	81 02 c0 0e 	taddcc  %o3, %sp, %g0
     5c0:	81 02 c0 0f 	taddcc  %o3, %o7, %g0
     5c4:	81 02 c0 10 	taddcc  %o3, %l0, %g0
     5c8:	81 02 c0 11 	taddcc  %o3, %l1, %g0
     5cc:	81 02 c0 12 	taddcc  %o3, %l2, %g0
     5d0:	81 02 c0 13 	taddcc  %o3, %l3, %g0
     5d4:	81 02 c0 14 	taddcc  %o3, %l4, %g0
     5d8:	81 02 c0 15 	taddcc  %o3, %l5, %g0
     5dc:	81 02 c0 16 	taddcc  %o3, %l6, %g0
     5e0:	81 02 c0 17 	taddcc  %o3, %l7, %g0
     5e4:	81 02 c0 18 	taddcc  %o3, %i0, %g0
     5e8:	81 02 c0 19 	taddcc  %o3, %i1, %g0
     5ec:	81 02 c0 1a 	taddcc  %o3, %i2, %g0
     5f0:	81 02 c0 1b 	taddcc  %o3, %i3, %g0
     5f4:	81 02 c0 1c 	taddcc  %o3, %i4, %g0
     5f8:	81 02 c0 1d 	taddcc  %o3, %i5, %g0
     5fc:	81 02 c0 1e 	taddcc  %o3, %fp, %g0
     600:	81 02 c0 1f 	taddcc  %o3, %i7, %g0
     604:	81 03 00 00 	taddcc  %o4, %g0, %g0
     608:	81 03 00 01 	taddcc  %o4, %g1, %g0
     60c:	81 03 00 02 	taddcc  %o4, %g2, %g0
     610:	81 03 00 03 	taddcc  %o4, %g3, %g0
     614:	81 03 00 04 	taddcc  %o4, %g4, %g0
     618:	81 03 00 05 	taddcc  %o4, %g5, %g0
     61c:	81 03 00 06 	taddcc  %o4, %g6, %g0
     620:	81 03 00 07 	taddcc  %o4, %g7, %g0
     624:	81 03 00 08 	taddcc  %o4, %o0, %g0
     628:	81 03 00 09 	taddcc  %o4, %o1, %g0
     62c:	81 03 00 0a 	taddcc  %o4, %o2, %g0
     630:	81 03 00 0b 	taddcc  %o4, %o3, %g0
     634:	81 03 00 0c 	taddcc  %o4, %o4, %g0
     638:	81 03 00 0d 	taddcc  %o4, %o5, %g0
     63c:	81 03 00 0e 	taddcc  %o4, %sp, %g0
     640:	81 03 00 0f 	taddcc  %o4, %o7, %g0
     644:	81 03 00 10 	taddcc  %o4, %l0, %g0
     648:	81 03 00 11 	taddcc  %o4, %l1, %g0
     64c:	81 03 00 12 	taddcc  %o4, %l2, %g0
     650:	81 03 00 13 	taddcc  %o4, %l3, %g0
     654:	81 03 00 14 	taddcc  %o4, %l4, %g0
     658:	81 03 00 15 	taddcc  %o4, %l5, %g0
     65c:	81 03 00 16 	taddcc  %o4, %l6, %g0
     660:	81 03 00 17 	taddcc  %o4, %l7, %g0
     664:	81 03 00 18 	taddcc  %o4, %i0, %g0
     668:	81 03 00 19 	taddcc  %o4, %i1, %g0
     66c:	81 03 00 1a 	taddcc  %o4, %i2, %g0
     670:	81 03 00 1b 	taddcc  %o4, %i3, %g0
     674:	81 03 00 1c 	taddcc  %o4, %i4, %g0
     678:	81 03 00 1d 	taddcc  %o4, %i5, %g0
     67c:	81 03 00 1e 	taddcc  %o4, %fp, %g0
     680:	81 03 00 1f 	taddcc  %o4, %i7, %g0
     684:	81 03 40 00 	taddcc  %o5, %g0, %g0
     688:	81 03 40 01 	taddcc  %o5, %g1, %g0
     68c:	81 03 40 02 	taddcc  %o5, %g2, %g0
     690:	81 03 40 03 	taddcc  %o5, %g3, %g0
     694:	81 03 40 04 	taddcc  %o5, %g4, %g0
     698:	81 03 40 05 	taddcc  %o5, %g5, %g0
     69c:	81 03 40 06 	taddcc  %o5, %g6, %g0
     6a0:	81 03 40 07 	taddcc  %o5, %g7, %g0
     6a4:	81 03 40 08 	taddcc  %o5, %o0, %g0
     6a8:	81 03 40 09 	taddcc  %o5, %o1, %g0
     6ac:	81 03 40 0a 	taddcc  %o5, %o2, %g0
     6b0:	81 03 40 0b 	taddcc  %o5, %o3, %g0
     6b4:	81 03 40 0c 	taddcc  %o5, %o4, %g0
     6b8:	81 03 40 0d 	taddcc  %o5, %o5, %g0
     6bc:	81 03 40 0e 	taddcc  %o5, %sp, %g0
     6c0:	81 03 40 0f 	taddcc  %o5, %o7, %g0
     6c4:	81 03 40 10 	taddcc  %o5, %l0, %g0
     6c8:	81 03 40 11 	taddcc  %o5, %l1, %g0
     6cc:	81 03 40 12 	taddcc  %o5, %l2, %g0
     6d0:	81 03 40 13 	taddcc  %o5, %l3, %g0
     6d4:	81 03 40 14 	taddcc  %o5, %l4, %g0
     6d8:	81 03 40 15 	taddcc  %o5, %l5, %g0
     6dc:	81 03 40 16 	taddcc  %o5, %l6, %g0
     6e0:	81 03 40 17 	taddcc  %o5, %l7, %g0
     6e4:	81 03 40 18 	taddcc  %o5, %i0, %g0
     6e8:	81 03 40 19 	taddcc  %o5, %i1, %g0
     6ec:	81 03 40 1a 	taddcc  %o5, %i2, %g0
     6f0:	81 03 40 1b 	taddcc  %o5, %i3, %g0
     6f4:	81 03 40 1c 	taddcc  %o5, %i4, %g0
     6f8:	81 03 40 1d 	taddcc  %o5, %i5, %g0
     6fc:	81 03 40 1e 	taddcc  %o5, %fp, %g0
     700:	81 03 40 1f 	taddcc  %o5, %i7, %g0
     704:	81 03 80 00 	taddcc  %sp, %g0, %g0
     708:	81 03 80 01 	taddcc  %sp, %g1, %g0
     70c:	81 03 80 02 	taddcc  %sp, %g2, %g0
     710:	81 03 80 03 	taddcc  %sp, %g3, %g0
     714:	81 03 80 04 	taddcc  %sp, %g4, %g0
     718:	81 03 80 05 	taddcc  %sp, %g5, %g0
     71c:	81 03 80 06 	taddcc  %sp, %g6, %g0
     720:	81 03 80 07 	taddcc  %sp, %g7, %g0
     724:	81 03 80 08 	taddcc  %sp, %o0, %g0
     728:	81 03 80 09 	taddcc  %sp, %o1, %g0
     72c:	81 03 80 0a 	taddcc  %sp, %o2, %g0
     730:	81 03 80 0b 	taddcc  %sp, %o3, %g0
     734:	81 03 80 0c 	taddcc  %sp, %o4, %g0
     738:	81 03 80 0d 	taddcc  %sp, %o5, %g0
     73c:	81 03 80 0e 	taddcc  %sp, %sp, %g0
     740:	81 03 80 0f 	taddcc  %sp, %o7, %g0
     744:	81 03 80 10 	taddcc  %sp, %l0, %g0
     748:	81 03 80 11 	taddcc  %sp, %l1, %g0
     74c:	81 03 80 12 	taddcc  %sp, %l2, %g0
     750:	81 03 80 13 	taddcc  %sp, %l3, %g0
     754:	81 03 80 14 	taddcc  %sp, %l4, %g0
     758:	81 03 80 15 	taddcc  %sp, %l5, %g0
     75c:	81 03 80 16 	taddcc  %sp, %l6, %g0
     760:	81 03 80 17 	taddcc  %sp, %l7, %g0
     764:	81 03 80 18 	taddcc  %sp, %i0, %g0
     768:	81 03 80 19 	taddcc  %sp, %i1, %g0
     76c:	81 03 80 1a 	taddcc  %sp, %i2, %g0
     770:	81 03 80 1b 	taddcc  %sp, %i3, %g0
     774:	81 03 80 1c 	taddcc  %sp, %i4, %g0
     778:	81 03 80 1d 	taddcc  %sp, %i5, %g0
     77c:	81 03 80 1e 	taddcc  %sp, %fp, %g0
     780:	81 03 80 1f 	taddcc  %sp, %i7, %g0
     784:	81 03 c0 00 	taddcc  %o7, %g0, %g0
     788:	81 03 c0 01 	taddcc  %o7, %g1, %g0
     78c:	81 03 c0 02 	taddcc  %o7, %g2, %g0
     790:	81 03 c0 03 	taddcc  %o7, %g3, %g0
     794:	81 03 c0 04 	taddcc  %o7, %g4, %g0
     798:	81 03 c0 05 	taddcc  %o7, %g5, %g0
     79c:	81 03 c0 06 	taddcc  %o7, %g6, %g0
     7a0:	81 03 c0 07 	taddcc  %o7, %g7, %g0
     7a4:	81 03 c0 08 	taddcc  %o7, %o0, %g0
     7a8:	81 03 c0 09 	taddcc  %o7, %o1, %g0
     7ac:	81 03 c0 0a 	taddcc  %o7, %o2, %g0
     7b0:	81 03 c0 0b 	taddcc  %o7, %o3, %g0
     7b4:	81 03 c0 0c 	taddcc  %o7, %o4, %g0
     7b8:	81 03 c0 0d 	taddcc  %o7, %o5, %g0
     7bc:	81 03 c0 0e 	taddcc  %o7, %sp, %g0
     7c0:	81 03 c0 0f 	taddcc  %o7, %o7, %g0
     7c4:	81 03 c0 10 	taddcc  %o7, %l0, %g0
     7c8:	81 03 c0 11 	taddcc  %o7, %l1, %g0
     7cc:	81 03 c0 12 	taddcc  %o7, %l2, %g0
     7d0:	81 03 c0 13 	taddcc  %o7, %l3, %g0
     7d4:	81 03 c0 14 	taddcc  %o7, %l4, %g0
     7d8:	81 03 c0 15 	taddcc  %o7, %l5, %g0
     7dc:	81 03 c0 16 	taddcc  %o7, %l6, %g0
     7e0:	81 03 c0 17 	taddcc  %o7, %l7, %g0
     7e4:	81 03 c0 18 	taddcc  %o7, %i0, %g0
     7e8:	81 03 c0 19 	taddcc  %o7, %i1, %g0
     7ec:	81 03 c0 1a 	taddcc  %o7, %i2, %g0
     7f0:	81 03 c0 1b 	taddcc  %o7, %i3, %g0
     7f4:	81 03 c0 1c 	taddcc  %o7, %i4, %g0
     7f8:	81 03 c0 1d 	taddcc  %o7, %i5, %g0
     7fc:	81 03 c0 1e 	taddcc  %o7, %fp, %g0
     800:	81 03 c0 1f 	taddcc  %o7, %i7, %g0
     804:	81 04 00 00 	taddcc  %l0, %g0, %g0
     808:	81 04 00 01 	taddcc  %l0, %g1, %g0
     80c:	81 04 00 02 	taddcc  %l0, %g2, %g0
     810:	81 04 00 03 	taddcc  %l0, %g3, %g0
     814:	81 04 00 04 	taddcc  %l0, %g4, %g0
     818:	81 04 00 05 	taddcc  %l0, %g5, %g0
     81c:	81 04 00 06 	taddcc  %l0, %g6, %g0
     820:	81 04 00 07 	taddcc  %l0, %g7, %g0
     824:	81 04 00 08 	taddcc  %l0, %o0, %g0
     828:	81 04 00 09 	taddcc  %l0, %o1, %g0
     82c:	81 04 00 0a 	taddcc  %l0, %o2, %g0
     830:	81 04 00 0b 	taddcc  %l0, %o3, %g0
     834:	81 04 00 0c 	taddcc  %l0, %o4, %g0
     838:	81 04 00 0d 	taddcc  %l0, %o5, %g0
     83c:	81 04 00 0e 	taddcc  %l0, %sp, %g0
     840:	81 04 00 0f 	taddcc  %l0, %o7, %g0
     844:	81 04 00 10 	taddcc  %l0, %l0, %g0
     848:	81 04 00 11 	taddcc  %l0, %l1, %g0
     84c:	81 04 00 12 	taddcc  %l0, %l2, %g0
     850:	81 04 00 13 	taddcc  %l0, %l3, %g0
     854:	81 04 00 14 	taddcc  %l0, %l4, %g0
     858:	81 04 00 15 	taddcc  %l0, %l5, %g0
     85c:	81 04 00 16 	taddcc  %l0, %l6, %g0
     860:	81 04 00 17 	taddcc  %l0, %l7, %g0
     864:	81 04 00 18 	taddcc  %l0, %i0, %g0
     868:	81 04 00 19 	taddcc  %l0, %i1, %g0
     86c:	81 04 00 1a 	taddcc  %l0, %i2, %g0
     870:	81 04 00 1b 	taddcc  %l0, %i3, %g0
     874:	81 04 00 1c 	taddcc  %l0, %i4, %g0
     878:	81 04 00 1d 	taddcc  %l0, %i5, %g0
     87c:	81 04 00 1e 	taddcc  %l0, %fp, %g0
     880:	81 04 00 1f 	taddcc  %l0, %i7, %g0
     884:	81 04 40 00 	taddcc  %l1, %g0, %g0
     888:	81 04 40 01 	taddcc  %l1, %g1, %g0
     88c:	81 04 40 02 	taddcc  %l1, %g2, %g0
     890:	81 04 40 03 	taddcc  %l1, %g3, %g0
     894:	81 04 40 04 	taddcc  %l1, %g4, %g0
     898:	81 04 40 05 	taddcc  %l1, %g5, %g0
     89c:	81 04 40 06 	taddcc  %l1, %g6, %g0
     8a0:	81 04 40 07 	taddcc  %l1, %g7, %g0
     8a4:	81 04 40 08 	taddcc  %l1, %o0, %g0
     8a8:	81 04 40 09 	taddcc  %l1, %o1, %g0
     8ac:	81 04 40 0a 	taddcc  %l1, %o2, %g0
     8b0:	81 04 40 0b 	taddcc  %l1, %o3, %g0
     8b4:	81 04 40 0c 	taddcc  %l1, %o4, %g0
     8b8:	81 04 40 0d 	taddcc  %l1, %o5, %g0
     8bc:	81 04 40 0e 	taddcc  %l1, %sp, %g0
     8c0:	81 04 40 0f 	taddcc  %l1, %o7, %g0
     8c4:	81 04 40 10 	taddcc  %l1, %l0, %g0
     8c8:	81 04 40 11 	taddcc  %l1, %l1, %g0
     8cc:	81 04 40 12 	taddcc  %l1, %l2, %g0
     8d0:	81 04 40 13 	taddcc  %l1, %l3, %g0
     8d4:	81 04 40 14 	taddcc  %l1, %l4, %g0
     8d8:	81 04 40 15 	taddcc  %l1, %l5, %g0
     8dc:	81 04 40 16 	taddcc  %l1, %l6, %g0
     8e0:	81 04 40 17 	taddcc  %l1, %l7, %g0
     8e4:	81 04 40 18 	taddcc  %l1, %i0, %g0
     8e8:	81 04 40 19 	taddcc  %l1, %i1, %g0
     8ec:	81 04 40 1a 	taddcc  %l1, %i2, %g0
     8f0:	81 04 40 1b 	taddcc  %l1, %i3, %g0
     8f4:	81 04 40 1c 	taddcc  %l1, %i4, %g0
     8f8:	81 04 40 1d 	taddcc  %l1, %i5, %g0
     8fc:	81 04 40 1e 	taddcc  %l1, %fp, %g0
     900:	81 04 40 1f 	taddcc  %l1, %i7, %g0
     904:	81 04 80 00 	taddcc  %l2, %g0, %g0
     908:	81 04 80 01 	taddcc  %l2, %g1, %g0
     90c:	81 04 80 02 	taddcc  %l2, %g2, %g0
     910:	81 04 80 03 	taddcc  %l2, %g3, %g0
     914:	81 04 80 04 	taddcc  %l2, %g4, %g0
     918:	81 04 80 05 	taddcc  %l2, %g5, %g0
     91c:	81 04 80 06 	taddcc  %l2, %g6, %g0
     920:	81 04 80 07 	taddcc  %l2, %g7, %g0
     924:	81 04 80 08 	taddcc  %l2, %o0, %g0
     928:	81 04 80 09 	taddcc  %l2, %o1, %g0
     92c:	81 04 80 0a 	taddcc  %l2, %o2, %g0
     930:	81 04 80 0b 	taddcc  %l2, %o3, %g0
     934:	81 04 80 0c 	taddcc  %l2, %o4, %g0
     938:	81 04 80 0d 	taddcc  %l2, %o5, %g0
     93c:	81 04 80 0e 	taddcc  %l2, %sp, %g0
     940:	81 04 80 0f 	taddcc  %l2, %o7, %g0
     944:	81 04 80 10 	taddcc  %l2, %l0, %g0
     948:	81 04 80 11 	taddcc  %l2, %l1, %g0
     94c:	81 04 80 12 	taddcc  %l2, %l2, %g0
     950:	81 04 80 13 	taddcc  %l2, %l3, %g0
     954:	81 04 80 14 	taddcc  %l2, %l4, %g0
     958:	81 04 80 15 	taddcc  %l2, %l5, %g0
     95c:	81 04 80 16 	taddcc  %l2, %l6, %g0
     960:	81 04 80 17 	taddcc  %l2, %l7, %g0
     964:	81 04 80 18 	taddcc  %l2, %i0, %g0
     968:	81 04 80 19 	taddcc  %l2, %i1, %g0
     96c:	81 04 80 1a 	taddcc  %l2, %i2, %g0
     970:	81 04 80 1b 	taddcc  %l2, %i3, %g0
     974:	81 04 80 1c 	taddcc  %l2, %i4, %g0
     978:	81 04 80 1d 	taddcc  %l2, %i5, %g0
     97c:	81 04 80 1e 	taddcc  %l2, %fp, %g0
     980:	81 04 80 1f 	taddcc  %l2, %i7, %g0
     984:	81 04 c0 00 	taddcc  %l3, %g0, %g0
     988:	81 04 c0 01 	taddcc  %l3, %g1, %g0
     98c:	81 04 c0 02 	taddcc  %l3, %g2, %g0
     990:	81 04 c0 03 	taddcc  %l3, %g3, %g0
     994:	81 04 c0 04 	taddcc  %l3, %g4, %g0
     998:	81 04 c0 05 	taddcc  %l3, %g5, %g0
     99c:	81 04 c0 06 	taddcc  %l3, %g6, %g0
     9a0:	81 04 c0 07 	taddcc  %l3, %g7, %g0
     9a4:	81 04 c0 08 	taddcc  %l3, %o0, %g0
     9a8:	81 04 c0 09 	taddcc  %l3, %o1, %g0
     9ac:	81 04 c0 0a 	taddcc  %l3, %o2, %g0
     9b0:	81 04 c0 0b 	taddcc  %l3, %o3, %g0
     9b4:	81 04 c0 0c 	taddcc  %l3, %o4, %g0
     9b8:	81 04 c0 0d 	taddcc  %l3, %o5, %g0
     9bc:	81 04 c0 0e 	taddcc  %l3, %sp, %g0
     9c0:	81 04 c0 0f 	taddcc  %l3, %o7, %g0
     9c4:	81 04 c0 10 	taddcc  %l3, %l0, %g0
     9c8:	81 04 c0 11 	taddcc  %l3, %l1, %g0
     9cc:	81 04 c0 12 	taddcc  %l3, %l2, %g0
     9d0:	81 04 c0 13 	taddcc  %l3, %l3, %g0
     9d4:	81 04 c0 14 	taddcc  %l3, %l4, %g0
     9d8:	81 04 c0 15 	taddcc  %l3, %l5, %g0
     9dc:	81 04 c0 16 	taddcc  %l3, %l6, %g0
     9e0:	81 04 c0 17 	taddcc  %l3, %l7, %g0
     9e4:	81 04 c0 18 	taddcc  %l3, %i0, %g0
     9e8:	81 04 c0 19 	taddcc  %l3, %i1, %g0
     9ec:	81 04 c0 1a 	taddcc  %l3, %i2, %g0
     9f0:	81 04 c0 1b 	taddcc  %l3, %i3, %g0
     9f4:	81 04 c0 1c 	taddcc  %l3, %i4, %g0
     9f8:	81 04 c0 1d 	taddcc  %l3, %i5, %g0
     9fc:	81 04 c0 1e 	taddcc  %l3, %fp, %g0
     a00:	81 04 c0 1f 	taddcc  %l3, %i7, %g0
     a04:	81 05 00 00 	taddcc  %l4, %g0, %g0
     a08:	81 05 00 01 	taddcc  %l4, %g1, %g0
     a0c:	81 05 00 02 	taddcc  %l4, %g2, %g0
     a10:	81 05 00 03 	taddcc  %l4, %g3, %g0
     a14:	81 05 00 04 	taddcc  %l4, %g4, %g0
     a18:	81 05 00 05 	taddcc  %l4, %g5, %g0
     a1c:	81 05 00 06 	taddcc  %l4, %g6, %g0
     a20:	81 05 00 07 	taddcc  %l4, %g7, %g0
     a24:	81 05 00 08 	taddcc  %l4, %o0, %g0
     a28:	81 05 00 09 	taddcc  %l4, %o1, %g0
     a2c:	81 05 00 0a 	taddcc  %l4, %o2, %g0
     a30:	81 05 00 0b 	taddcc  %l4, %o3, %g0
     a34:	81 05 00 0c 	taddcc  %l4, %o4, %g0
     a38:	81 05 00 0d 	taddcc  %l4, %o5, %g0
     a3c:	81 05 00 0e 	taddcc  %l4, %sp, %g0
     a40:	81 05 00 0f 	taddcc  %l4, %o7, %g0
     a44:	81 05 00 10 	taddcc  %l4, %l0, %g0
     a48:	81 05 00 11 	taddcc  %l4, %l1, %g0
     a4c:	81 05 00 12 	taddcc  %l4, %l2, %g0
     a50:	81 05 00 13 	taddcc  %l4, %l3, %g0
     a54:	81 05 00 14 	taddcc  %l4, %l4, %g0
     a58:	81 05 00 15 	taddcc  %l4, %l5, %g0
     a5c:	81 05 00 16 	taddcc  %l4, %l6, %g0
     a60:	81 05 00 17 	taddcc  %l4, %l7, %g0
     a64:	81 05 00 18 	taddcc  %l4, %i0, %g0
     a68:	81 05 00 19 	taddcc  %l4, %i1, %g0
     a6c:	81 05 00 1a 	taddcc  %l4, %i2, %g0
     a70:	81 05 00 1b 	taddcc  %l4, %i3, %g0
     a74:	81 05 00 1c 	taddcc  %l4, %i4, %g0
     a78:	81 05 00 1d 	taddcc  %l4, %i5, %g0
     a7c:	81 05 00 1e 	taddcc  %l4, %fp, %g0
     a80:	81 05 00 1f 	taddcc  %l4, %i7, %g0
     a84:	81 05 40 00 	taddcc  %l5, %g0, %g0
     a88:	81 05 40 01 	taddcc  %l5, %g1, %g0
     a8c:	81 05 40 02 	taddcc  %l5, %g2, %g0
     a90:	81 05 40 03 	taddcc  %l5, %g3, %g0
     a94:	81 05 40 04 	taddcc  %l5, %g4, %g0
     a98:	81 05 40 05 	taddcc  %l5, %g5, %g0
     a9c:	81 05 40 06 	taddcc  %l5, %g6, %g0
     aa0:	81 05 40 07 	taddcc  %l5, %g7, %g0
     aa4:	81 05 40 08 	taddcc  %l5, %o0, %g0
     aa8:	81 05 40 09 	taddcc  %l5, %o1, %g0
     aac:	81 05 40 0a 	taddcc  %l5, %o2, %g0
     ab0:	81 05 40 0b 	taddcc  %l5, %o3, %g0
     ab4:	81 05 40 0c 	taddcc  %l5, %o4, %g0
     ab8:	81 05 40 0d 	taddcc  %l5, %o5, %g0
     abc:	81 05 40 0e 	taddcc  %l5, %sp, %g0
     ac0:	81 05 40 0f 	taddcc  %l5, %o7, %g0
     ac4:	81 05 40 10 	taddcc  %l5, %l0, %g0
     ac8:	81 05 40 11 	taddcc  %l5, %l1, %g0
     acc:	81 05 40 12 	taddcc  %l5, %l2, %g0
     ad0:	81 05 40 13 	taddcc  %l5, %l3, %g0
     ad4:	81 05 40 14 	taddcc  %l5, %l4, %g0
     ad8:	81 05 40 15 	taddcc  %l5, %l5, %g0
     adc:	81 05 40 16 	taddcc  %l5, %l6, %g0
     ae0:	81 05 40 17 	taddcc  %l5, %l7, %g0
     ae4:	81 05 40 18 	taddcc  %l5, %i0, %g0
     ae8:	81 05 40 19 	taddcc  %l5, %i1, %g0
     aec:	81 05 40 1a 	taddcc  %l5, %i2, %g0
     af0:	81 05 40 1b 	taddcc  %l5, %i3, %g0
     af4:	81 05 40 1c 	taddcc  %l5, %i4, %g0
     af8:	81 05 40 1d 	taddcc  %l5, %i5, %g0
     afc:	81 05 40 1e 	taddcc  %l5, %fp, %g0
     b00:	81 05 40 1f 	taddcc  %l5, %i7, %g0
     b04:	81 05 80 00 	taddcc  %l6, %g0, %g0
     b08:	81 05 80 01 	taddcc  %l6, %g1, %g0
     b0c:	81 05 80 02 	taddcc  %l6, %g2, %g0
     b10:	81 05 80 03 	taddcc  %l6, %g3, %g0
     b14:	81 05 80 04 	taddcc  %l6, %g4, %g0
     b18:	81 05 80 05 	taddcc  %l6, %g5, %g0
     b1c:	81 05 80 06 	taddcc  %l6, %g6, %g0
     b20:	81 05 80 07 	taddcc  %l6, %g7, %g0
     b24:	81 05 80 08 	taddcc  %l6, %o0, %g0
     b28:	81 05 80 09 	taddcc  %l6, %o1, %g0
     b2c:	81 05 80 0a 	taddcc  %l6, %o2, %g0
     b30:	81 05 80 0b 	taddcc  %l6, %o3, %g0
     b34:	81 05 80 0c 	taddcc  %l6, %o4, %g0
     b38:	81 05 80 0d 	taddcc  %l6, %o5, %g0
     b3c:	81 05 80 0e 	taddcc  %l6, %sp, %g0
     b40:	81 05 80 0f 	taddcc  %l6, %o7, %g0
     b44:	81 05 80 10 	taddcc  %l6, %l0, %g0
     b48:	81 05 80 11 	taddcc  %l6, %l1, %g0
     b4c:	81 05 80 12 	taddcc  %l6, %l2, %g0
     b50:	81 05 80 13 	taddcc  %l6, %l3, %g0
     b54:	81 05 80 14 	taddcc  %l6, %l4, %g0
     b58:	81 05 80 15 	taddcc  %l6, %l5, %g0
     b5c:	81 05 80 16 	taddcc  %l6, %l6, %g0
     b60:	81 05 80 17 	taddcc  %l6, %l7, %g0
     b64:	81 05 80 18 	taddcc  %l6, %i0, %g0
     b68:	81 05 80 19 	taddcc  %l6, %i1, %g0
     b6c:	81 05 80 1a 	taddcc  %l6, %i2, %g0
     b70:	81 05 80 1b 	taddcc  %l6, %i3, %g0
     b74:	81 05 80 1c 	taddcc  %l6, %i4, %g0
     b78:	81 05 80 1d 	taddcc  %l6, %i5, %g0
     b7c:	81 05 80 1e 	taddcc  %l6, %fp, %g0
     b80:	81 05 80 1f 	taddcc  %l6, %i7, %g0
     b84:	81 05 c0 00 	taddcc  %l7, %g0, %g0
     b88:	81 05 c0 01 	taddcc  %l7, %g1, %g0
     b8c:	81 05 c0 02 	taddcc  %l7, %g2, %g0
     b90:	81 05 c0 03 	taddcc  %l7, %g3, %g0
     b94:	81 05 c0 04 	taddcc  %l7, %g4, %g0
     b98:	81 05 c0 05 	taddcc  %l7, %g5, %g0
     b9c:	81 05 c0 06 	taddcc  %l7, %g6, %g0
     ba0:	81 05 c0 07 	taddcc  %l7, %g7, %g0
     ba4:	81 05 c0 08 	taddcc  %l7, %o0, %g0
     ba8:	81 05 c0 09 	taddcc  %l7, %o1, %g0
     bac:	81 05 c0 0a 	taddcc  %l7, %o2, %g0
     bb0:	81 05 c0 0b 	taddcc  %l7, %o3, %g0
     bb4:	81 05 c0 0c 	taddcc  %l7, %o4, %g0
     bb8:	81 05 c0 0d 	taddcc  %l7, %o5, %g0
     bbc:	81 05 c0 0e 	taddcc  %l7, %sp, %g0
     bc0:	81 05 c0 0f 	taddcc  %l7, %o7, %g0
     bc4:	81 05 c0 10 	taddcc  %l7, %l0, %g0
     bc8:	81 05 c0 11 	taddcc  %l7, %l1, %g0
     bcc:	81 05 c0 12 	taddcc  %l7, %l2, %g0
     bd0:	81 05 c0 13 	taddcc  %l7, %l3, %g0
     bd4:	81 05 c0 14 	taddcc  %l7, %l4, %g0
     bd8:	81 05 c0 15 	taddcc  %l7, %l5, %g0
     bdc:	81 05 c0 16 	taddcc  %l7, %l6, %g0
     be0:	81 05 c0 17 	taddcc  %l7, %l7, %g0
     be4:	81 05 c0 18 	taddcc  %l7, %i0, %g0
     be8:	81 05 c0 19 	taddcc  %l7, %i1, %g0
     bec:	81 05 c0 1a 	taddcc  %l7, %i2, %g0
     bf0:	81 05 c0 1b 	taddcc  %l7, %i3, %g0
     bf4:	81 05 c0 1c 	taddcc  %l7, %i4, %g0
     bf8:	81 05 c0 1d 	taddcc  %l7, %i5, %g0
     bfc:	81 05 c0 1e 	taddcc  %l7, %fp, %g0
     c00:	81 05 c0 1f 	taddcc  %l7, %i7, %g0
     c04:	81 06 00 00 	taddcc  %i0, %g0, %g0
     c08:	81 06 00 01 	taddcc  %i0, %g1, %g0
     c0c:	81 06 00 02 	taddcc  %i0, %g2, %g0
     c10:	81 06 00 03 	taddcc  %i0, %g3, %g0
     c14:	81 06 00 04 	taddcc  %i0, %g4, %g0
     c18:	81 06 00 05 	taddcc  %i0, %g5, %g0
     c1c:	81 06 00 06 	taddcc  %i0, %g6, %g0
     c20:	81 06 00 07 	taddcc  %i0, %g7, %g0
     c24:	81 06 00 08 	taddcc  %i0, %o0, %g0
     c28:	81 06 00 09 	taddcc  %i0, %o1, %g0
     c2c:	81 06 00 0a 	taddcc  %i0, %o2, %g0
     c30:	81 06 00 0b 	taddcc  %i0, %o3, %g0
     c34:	81 06 00 0c 	taddcc  %i0, %o4, %g0
     c38:	81 06 00 0d 	taddcc  %i0, %o5, %g0
     c3c:	81 06 00 0e 	taddcc  %i0, %sp, %g0
     c40:	81 06 00 0f 	taddcc  %i0, %o7, %g0
     c44:	81 06 00 10 	taddcc  %i0, %l0, %g0
     c48:	81 06 00 11 	taddcc  %i0, %l1, %g0
     c4c:	81 06 00 12 	taddcc  %i0, %l2, %g0
     c50:	81 06 00 13 	taddcc  %i0, %l3, %g0
     c54:	81 06 00 14 	taddcc  %i0, %l4, %g0
     c58:	81 06 00 15 	taddcc  %i0, %l5, %g0
     c5c:	81 06 00 16 	taddcc  %i0, %l6, %g0
     c60:	81 06 00 17 	taddcc  %i0, %l7, %g0
     c64:	81 06 00 18 	taddcc  %i0, %i0, %g0
     c68:	81 06 00 19 	taddcc  %i0, %i1, %g0
     c6c:	81 06 00 1a 	taddcc  %i0, %i2, %g0
     c70:	81 06 00 1b 	taddcc  %i0, %i3, %g0
     c74:	81 06 00 1c 	taddcc  %i0, %i4, %g0
     c78:	81 06 00 1d 	taddcc  %i0, %i5, %g0
     c7c:	81 06 00 1e 	taddcc  %i0, %fp, %g0
     c80:	81 06 00 1f 	taddcc  %i0, %i7, %g0
     c84:	81 06 40 00 	taddcc  %i1, %g0, %g0
     c88:	81 06 40 01 	taddcc  %i1, %g1, %g0
     c8c:	81 06 40 02 	taddcc  %i1, %g2, %g0
     c90:	81 06 40 03 	taddcc  %i1, %g3, %g0
     c94:	81 06 40 04 	taddcc  %i1, %g4, %g0
     c98:	81 06 40 05 	taddcc  %i1, %g5, %g0
     c9c:	81 06 40 06 	taddcc  %i1, %g6, %g0
     ca0:	81 06 40 07 	taddcc  %i1, %g7, %g0
     ca4:	81 06 40 08 	taddcc  %i1, %o0, %g0
     ca8:	81 06 40 09 	taddcc  %i1, %o1, %g0
     cac:	81 06 40 0a 	taddcc  %i1, %o2, %g0
     cb0:	81 06 40 0b 	taddcc  %i1, %o3, %g0
     cb4:	81 06 40 0c 	taddcc  %i1, %o4, %g0
     cb8:	81 06 40 0d 	taddcc  %i1, %o5, %g0
     cbc:	81 06 40 0e 	taddcc  %i1, %sp, %g0
     cc0:	81 06 40 0f 	taddcc  %i1, %o7, %g0
     cc4:	81 06 40 10 	taddcc  %i1, %l0, %g0
     cc8:	81 06 40 11 	taddcc  %i1, %l1, %g0
     ccc:	81 06 40 12 	taddcc  %i1, %l2, %g0
     cd0:	81 06 40 13 	taddcc  %i1, %l3, %g0
     cd4:	81 06 40 14 	taddcc  %i1, %l4, %g0
     cd8:	81 06 40 15 	taddcc  %i1, %l5, %g0
     cdc:	81 06 40 16 	taddcc  %i1, %l6, %g0
     ce0:	81 06 40 17 	taddcc  %i1, %l7, %g0
     ce4:	81 06 40 18 	taddcc  %i1, %i0, %g0
     ce8:	81 06 40 19 	taddcc  %i1, %i1, %g0
     cec:	81 06 40 1a 	taddcc  %i1, %i2, %g0
     cf0:	81 06 40 1b 	taddcc  %i1, %i3, %g0
     cf4:	81 06 40 1c 	taddcc  %i1, %i4, %g0
     cf8:	81 06 40 1d 	taddcc  %i1, %i5, %g0
     cfc:	81 06 40 1e 	taddcc  %i1, %fp, %g0
     d00:	81 06 40 1f 	taddcc  %i1, %i7, %g0
     d04:	81 06 80 00 	taddcc  %i2, %g0, %g0
     d08:	81 06 80 01 	taddcc  %i2, %g1, %g0
     d0c:	81 06 80 02 	taddcc  %i2, %g2, %g0
     d10:	81 06 80 03 	taddcc  %i2, %g3, %g0
     d14:	81 06 80 04 	taddcc  %i2, %g4, %g0
     d18:	81 06 80 05 	taddcc  %i2, %g5, %g0
     d1c:	81 06 80 06 	taddcc  %i2, %g6, %g0
     d20:	81 06 80 07 	taddcc  %i2, %g7, %g0
     d24:	81 06 80 08 	taddcc  %i2, %o0, %g0
     d28:	81 06 80 09 	taddcc  %i2, %o1, %g0
     d2c:	81 06 80 0a 	taddcc  %i2, %o2, %g0
     d30:	81 06 80 0b 	taddcc  %i2, %o3, %g0
     d34:	81 06 80 0c 	taddcc  %i2, %o4, %g0
     d38:	81 06 80 0d 	taddcc  %i2, %o5, %g0
     d3c:	81 06 80 0e 	taddcc  %i2, %sp, %g0
     d40:	81 06 80 0f 	taddcc  %i2, %o7, %g0
     d44:	81 06 80 10 	taddcc  %i2, %l0, %g0
     d48:	81 06 80 11 	taddcc  %i2, %l1, %g0
     d4c:	81 06 80 12 	taddcc  %i2, %l2, %g0
     d50:	81 06 80 13 	taddcc  %i2, %l3, %g0
     d54:	81 06 80 14 	taddcc  %i2, %l4, %g0
     d58:	81 06 80 15 	taddcc  %i2, %l5, %g0
     d5c:	81 06 80 16 	taddcc  %i2, %l6, %g0
     d60:	81 06 80 17 	taddcc  %i2, %l7, %g0
     d64:	81 06 80 18 	taddcc  %i2, %i0, %g0
     d68:	81 06 80 19 	taddcc  %i2, %i1, %g0
     d6c:	81 06 80 1a 	taddcc  %i2, %i2, %g0
     d70:	81 06 80 1b 	taddcc  %i2, %i3, %g0
     d74:	81 06 80 1c 	taddcc  %i2, %i4, %g0
     d78:	81 06 80 1d 	taddcc  %i2, %i5, %g0
     d7c:	81 06 80 1e 	taddcc  %i2, %fp, %g0
     d80:	81 06 80 1f 	taddcc  %i2, %i7, %g0
     d84:	81 06 c0 00 	taddcc  %i3, %g0, %g0
     d88:	81 06 c0 01 	taddcc  %i3, %g1, %g0
     d8c:	81 06 c0 02 	taddcc  %i3, %g2, %g0
     d90:	81 06 c0 03 	taddcc  %i3, %g3, %g0
     d94:	81 06 c0 04 	taddcc  %i3, %g4, %g0
     d98:	81 06 c0 05 	taddcc  %i3, %g5, %g0
     d9c:	81 06 c0 06 	taddcc  %i3, %g6, %g0
     da0:	81 06 c0 07 	taddcc  %i3, %g7, %g0
     da4:	81 06 c0 08 	taddcc  %i3, %o0, %g0
     da8:	81 06 c0 09 	taddcc  %i3, %o1, %g0
     dac:	81 06 c0 0a 	taddcc  %i3, %o2, %g0
     db0:	81 06 c0 0b 	taddcc  %i3, %o3, %g0
     db4:	81 06 c0 0c 	taddcc  %i3, %o4, %g0
     db8:	81 06 c0 0d 	taddcc  %i3, %o5, %g0
     dbc:	81 06 c0 0e 	taddcc  %i3, %sp, %g0
     dc0:	81 06 c0 0f 	taddcc  %i3, %o7, %g0
     dc4:	81 06 c0 10 	taddcc  %i3, %l0, %g0
     dc8:	81 06 c0 11 	taddcc  %i3, %l1, %g0
     dcc:	81 06 c0 12 	taddcc  %i3, %l2, %g0
     dd0:	81 06 c0 13 	taddcc  %i3, %l3, %g0
     dd4:	81 06 c0 14 	taddcc  %i3, %l4, %g0
     dd8:	81 06 c0 15 	taddcc  %i3, %l5, %g0
     ddc:	81 06 c0 16 	taddcc  %i3, %l6, %g0
     de0:	81 06 c0 17 	taddcc  %i3, %l7, %g0
     de4:	81 06 c0 18 	taddcc  %i3, %i0, %g0
     de8:	81 06 c0 19 	taddcc  %i3, %i1, %g0
     dec:	81 06 c0 1a 	taddcc  %i3, %i2, %g0
     df0:	81 06 c0 1b 	taddcc  %i3, %i3, %g0
     df4:	81 06 c0 1c 	taddcc  %i3, %i4, %g0
     df8:	81 06 c0 1d 	taddcc  %i3, %i5, %g0
     dfc:	81 06 c0 1e 	taddcc  %i3, %fp, %g0
     e00:	81 06 c0 1f 	taddcc  %i3, %i7, %g0
     e04:	81 07 00 00 	taddcc  %i4, %g0, %g0
     e08:	81 07 00 01 	taddcc  %i4, %g1, %g0
     e0c:	81 07 00 02 	taddcc  %i4, %g2, %g0
     e10:	81 07 00 03 	taddcc  %i4, %g3, %g0
     e14:	81 07 00 04 	taddcc  %i4, %g4, %g0
     e18:	81 07 00 05 	taddcc  %i4, %g5, %g0
     e1c:	81 07 00 06 	taddcc  %i4, %g6, %g0
     e20:	81 07 00 07 	taddcc  %i4, %g7, %g0
     e24:	81 07 00 08 	taddcc  %i4, %o0, %g0
     e28:	81 07 00 09 	taddcc  %i4, %o1, %g0
     e2c:	81 07 00 0a 	taddcc  %i4, %o2, %g0
     e30:	81 07 00 0b 	taddcc  %i4, %o3, %g0
     e34:	81 07 00 0c 	taddcc  %i4, %o4, %g0
     e38:	81 07 00 0d 	taddcc  %i4, %o5, %g0
     e3c:	81 07 00 0e 	taddcc  %i4, %sp, %g0
     e40:	81 07 00 0f 	taddcc  %i4, %o7, %g0
     e44:	81 07 00 10 	taddcc  %i4, %l0, %g0
     e48:	81 07 00 11 	taddcc  %i4, %l1, %g0
     e4c:	81 07 00 12 	taddcc  %i4, %l2, %g0
     e50:	81 07 00 13 	taddcc  %i4, %l3, %g0
     e54:	81 07 00 14 	taddcc  %i4, %l4, %g0
     e58:	81 07 00 15 	taddcc  %i4, %l5, %g0
     e5c:	81 07 00 16 	taddcc  %i4, %l6, %g0
     e60:	81 07 00 17 	taddcc  %i4, %l7, %g0
     e64:	81 07 00 18 	taddcc  %i4, %i0, %g0
     e68:	81 07 00 19 	taddcc  %i4, %i1, %g0
     e6c:	81 07 00 1a 	taddcc  %i4, %i2, %g0
     e70:	81 07 00 1b 	taddcc  %i4, %i3, %g0
     e74:	81 07 00 1c 	taddcc  %i4, %i4, %g0
     e78:	81 07 00 1d 	taddcc  %i4, %i5, %g0
     e7c:	81 07 00 1e 	taddcc  %i4, %fp, %g0
     e80:	81 07 00 1f 	taddcc  %i4, %i7, %g0
     e84:	81 07 40 00 	taddcc  %i5, %g0, %g0
     e88:	81 07 40 01 	taddcc  %i5, %g1, %g0
     e8c:	81 07 40 02 	taddcc  %i5, %g2, %g0
     e90:	81 07 40 03 	taddcc  %i5, %g3, %g0
     e94:	81 07 40 04 	taddcc  %i5, %g4, %g0
     e98:	81 07 40 05 	taddcc  %i5, %g5, %g0
     e9c:	81 07 40 06 	taddcc  %i5, %g6, %g0
     ea0:	81 07 40 07 	taddcc  %i5, %g7, %g0
     ea4:	81 07 40 08 	taddcc  %i5, %o0, %g0
     ea8:	81 07 40 09 	taddcc  %i5, %o1, %g0
     eac:	81 07 40 0a 	taddcc  %i5, %o2, %g0
     eb0:	81 07 40 0b 	taddcc  %i5, %o3, %g0
     eb4:	81 07 40 0c 	taddcc  %i5, %o4, %g0
     eb8:	81 07 40 0d 	taddcc  %i5, %o5, %g0
     ebc:	81 07 40 0e 	taddcc  %i5, %sp, %g0
     ec0:	81 07 40 0f 	taddcc  %i5, %o7, %g0
     ec4:	81 07 40 10 	taddcc  %i5, %l0, %g0
     ec8:	81 07 40 11 	taddcc  %i5, %l1, %g0
     ecc:	81 07 40 12 	taddcc  %i5, %l2, %g0
     ed0:	81 07 40 13 	taddcc  %i5, %l3, %g0
     ed4:	81 07 40 14 	taddcc  %i5, %l4, %g0
     ed8:	81 07 40 15 	taddcc  %i5, %l5, %g0
     edc:	81 07 40 16 	taddcc  %i5, %l6, %g0
     ee0:	81 07 40 17 	taddcc  %i5, %l7, %g0
     ee4:	81 07 40 18 	taddcc  %i5, %i0, %g0
     ee8:	81 07 40 19 	taddcc  %i5, %i1, %g0
     eec:	81 07 40 1a 	taddcc  %i5, %i2, %g0
     ef0:	81 07 40 1b 	taddcc  %i5, %i3, %g0
     ef4:	81 07 40 1c 	taddcc  %i5, %i4, %g0
     ef8:	81 07 40 1d 	taddcc  %i5, %i5, %g0
     efc:	81 07 40 1e 	taddcc  %i5, %fp, %g0
     f00:	81 07 40 1f 	taddcc  %i5, %i7, %g0
     f04:	81 07 80 00 	taddcc  %fp, %g0, %g0
     f08:	81 07 80 01 	taddcc  %fp, %g1, %g0
     f0c:	81 07 80 02 	taddcc  %fp, %g2, %g0
     f10:	81 07 80 03 	taddcc  %fp, %g3, %g0
     f14:	81 07 80 04 	taddcc  %fp, %g4, %g0
     f18:	81 07 80 05 	taddcc  %fp, %g5, %g0
     f1c:	81 07 80 06 	taddcc  %fp, %g6, %g0
     f20:	81 07 80 07 	taddcc  %fp, %g7, %g0
     f24:	81 07 80 08 	taddcc  %fp, %o0, %g0
     f28:	81 07 80 09 	taddcc  %fp, %o1, %g0
     f2c:	81 07 80 0a 	taddcc  %fp, %o2, %g0
     f30:	81 07 80 0b 	taddcc  %fp, %o3, %g0
     f34:	81 07 80 0c 	taddcc  %fp, %o4, %g0
     f38:	81 07 80 0d 	taddcc  %fp, %o5, %g0
     f3c:	81 07 80 0e 	taddcc  %fp, %sp, %g0
     f40:	81 07 80 0f 	taddcc  %fp, %o7, %g0
     f44:	81 07 80 10 	taddcc  %fp, %l0, %g0
     f48:	81 07 80 11 	taddcc  %fp, %l1, %g0
     f4c:	81 07 80 12 	taddcc  %fp, %l2, %g0
     f50:	81 07 80 13 	taddcc  %fp, %l3, %g0
     f54:	81 07 80 14 	taddcc  %fp, %l4, %g0
     f58:	81 07 80 15 	taddcc  %fp, %l5, %g0
     f5c:	81 07 80 16 	taddcc  %fp, %l6, %g0
     f60:	81 07 80 17 	taddcc  %fp, %l7, %g0
     f64:	81 07 80 18 	taddcc  %fp, %i0, %g0
     f68:	81 07 80 19 	taddcc  %fp, %i1, %g0
     f6c:	81 07 80 1a 	taddcc  %fp, %i2, %g0
     f70:	81 07 80 1b 	taddcc  %fp, %i3, %g0
     f74:	81 07 80 1c 	taddcc  %fp, %i4, %g0
     f78:	81 07 80 1d 	taddcc  %fp, %i5, %g0
     f7c:	81 07 80 1e 	taddcc  %fp, %fp, %g0
     f80:	81 07 80 1f 	taddcc  %fp, %i7, %g0
     f84:	81 07 c0 00 	taddcc  %i7, %g0, %g0
     f88:	81 07 c0 01 	taddcc  %i7, %g1, %g0
     f8c:	81 07 c0 02 	taddcc  %i7, %g2, %g0
     f90:	81 07 c0 03 	taddcc  %i7, %g3, %g0
     f94:	81 07 c0 04 	taddcc  %i7, %g4, %g0
     f98:	81 07 c0 05 	taddcc  %i7, %g5, %g0
     f9c:	81 07 c0 06 	taddcc  %i7, %g6, %g0
     fa0:	81 07 c0 07 	taddcc  %i7, %g7, %g0
     fa4:	81 07 c0 08 	taddcc  %i7, %o0, %g0
     fa8:	81 07 c0 09 	taddcc  %i7, %o1, %g0
     fac:	81 07 c0 0a 	taddcc  %i7, %o2, %g0
     fb0:	81 07 c0 0b 	taddcc  %i7, %o3, %g0
     fb4:	81 07 c0 0c 	taddcc  %i7, %o4, %g0
     fb8:	81 07 c0 0d 	taddcc  %i7, %o5, %g0
     fbc:	81 07 c0 0e 	taddcc  %i7, %sp, %g0
     fc0:	81 07 c0 0f 	taddcc  %i7, %o7, %g0
     fc4:	81 07 c0 10 	taddcc  %i7, %l0, %g0
     fc8:	81 07 c0 11 	taddcc  %i7, %l1, %g0
     fcc:	81 07 c0 12 	taddcc  %i7, %l2, %g0
     fd0:	81 07 c0 13 	taddcc  %i7, %l3, %g0
     fd4:	81 07 c0 14 	taddcc  %i7, %l4, %g0
     fd8:	81 07 c0 15 	taddcc  %i7, %l5, %g0
     fdc:	81 07 c0 16 	taddcc  %i7, %l6, %g0
     fe0:	81 07 c0 17 	taddcc  %i7, %l7, %g0
     fe4:	81 07 c0 18 	taddcc  %i7, %i0, %g0
     fe8:	81 07 c0 19 	taddcc  %i7, %i1, %g0
     fec:	81 07 c0 1a 	taddcc  %i7, %i2, %g0
     ff0:	81 07 c0 1b 	taddcc  %i7, %i3, %g0
     ff4:	81 07 c0 1c 	taddcc  %i7, %i4, %g0
     ff8:	81 07 c0 1d 	taddcc  %i7, %i5, %g0
     ffc:	81 07 c0 1e 	taddcc  %i7, %fp, %g0
    1000:	81 07 c0 1f 	taddcc  %i7, %i7, %g0
    1004:	83 00 00 00 	taddcc  %g0, %g0, %g1
    1008:	83 00 00 01 	taddcc  %g0, %g1, %g1
    100c:	83 00 00 02 	taddcc  %g0, %g2, %g1
    1010:	83 00 00 03 	taddcc  %g0, %g3, %g1
    1014:	83 00 00 04 	taddcc  %g0, %g4, %g1
    1018:	83 00 00 05 	taddcc  %g0, %g5, %g1
    101c:	83 00 00 06 	taddcc  %g0, %g6, %g1
    1020:	83 00 00 07 	taddcc  %g0, %g7, %g1
    1024:	83 00 00 08 	taddcc  %g0, %o0, %g1
    1028:	83 00 00 09 	taddcc  %g0, %o1, %g1
    102c:	83 00 00 0a 	taddcc  %g0, %o2, %g1
    1030:	83 00 00 0b 	taddcc  %g0, %o3, %g1
    1034:	83 00 00 0c 	taddcc  %g0, %o4, %g1
    1038:	83 00 00 0d 	taddcc  %g0, %o5, %g1
    103c:	83 00 00 0e 	taddcc  %g0, %sp, %g1
    1040:	83 00 00 0f 	taddcc  %g0, %o7, %g1
    1044:	83 00 00 10 	taddcc  %g0, %l0, %g1
    1048:	83 00 00 11 	taddcc  %g0, %l1, %g1
    104c:	83 00 00 12 	taddcc  %g0, %l2, %g1
    1050:	83 00 00 13 	taddcc  %g0, %l3, %g1
    1054:	83 00 00 14 	taddcc  %g0, %l4, %g1
    1058:	83 00 00 15 	taddcc  %g0, %l5, %g1
    105c:	83 00 00 16 	taddcc  %g0, %l6, %g1
    1060:	83 00 00 17 	taddcc  %g0, %l7, %g1
    1064:	83 00 00 18 	taddcc  %g0, %i0, %g1
    1068:	83 00 00 19 	taddcc  %g0, %i1, %g1
    106c:	83 00 00 1a 	taddcc  %g0, %i2, %g1
    1070:	83 00 00 1b 	taddcc  %g0, %i3, %g1
    1074:	83 00 00 1c 	taddcc  %g0, %i4, %g1
    1078:	83 00 00 1d 	taddcc  %g0, %i5, %g1
    107c:	83 00 00 1e 	taddcc  %g0, %fp, %g1
    1080:	83 00 00 1f 	taddcc  %g0, %i7, %g1
    1084:	83 00 40 00 	taddcc  %g1, %g0, %g1
    1088:	83 00 40 01 	taddcc  %g1, %g1, %g1
    108c:	83 00 40 02 	taddcc  %g1, %g2, %g1
    1090:	83 00 40 03 	taddcc  %g1, %g3, %g1
    1094:	83 00 40 04 	taddcc  %g1, %g4, %g1
    1098:	83 00 40 05 	taddcc  %g1, %g5, %g1
    109c:	83 00 40 06 	taddcc  %g1, %g6, %g1
    10a0:	83 00 40 07 	taddcc  %g1, %g7, %g1
    10a4:	83 00 40 08 	taddcc  %g1, %o0, %g1
    10a8:	83 00 40 09 	taddcc  %g1, %o1, %g1
    10ac:	83 00 40 0a 	taddcc  %g1, %o2, %g1
    10b0:	83 00 40 0b 	taddcc  %g1, %o3, %g1
    10b4:	83 00 40 0c 	taddcc  %g1, %o4, %g1
    10b8:	83 00 40 0d 	taddcc  %g1, %o5, %g1
    10bc:	83 00 40 0e 	taddcc  %g1, %sp, %g1
    10c0:	83 00 40 0f 	taddcc  %g1, %o7, %g1
    10c4:	83 00 40 10 	taddcc  %g1, %l0, %g1
    10c8:	83 00 40 11 	taddcc  %g1, %l1, %g1
    10cc:	83 00 40 12 	taddcc  %g1, %l2, %g1
    10d0:	83 00 40 13 	taddcc  %g1, %l3, %g1
    10d4:	83 00 40 14 	taddcc  %g1, %l4, %g1
    10d8:	83 00 40 15 	taddcc  %g1, %l5, %g1
    10dc:	83 00 40 16 	taddcc  %g1, %l6, %g1
    10e0:	83 00 40 17 	taddcc  %g1, %l7, %g1
    10e4:	83 00 40 18 	taddcc  %g1, %i0, %g1
    10e8:	83 00 40 19 	taddcc  %g1, %i1, %g1
    10ec:	83 00 40 1a 	taddcc  %g1, %i2, %g1
    10f0:	83 00 40 1b 	taddcc  %g1, %i3, %g1
    10f4:	83 00 40 1c 	taddcc  %g1, %i4, %g1
    10f8:	83 00 40 1d 	taddcc  %g1, %i5, %g1
    10fc:	83 00 40 1e 	taddcc  %g1, %fp, %g1
    1100:	83 00 40 1f 	taddcc  %g1, %i7, %g1
    1104:	83 00 80 00 	taddcc  %g2, %g0, %g1
    1108:	83 00 80 01 	taddcc  %g2, %g1, %g1
    110c:	83 00 80 02 	taddcc  %g2, %g2, %g1
    1110:	83 00 80 03 	taddcc  %g2, %g3, %g1
    1114:	83 00 80 04 	taddcc  %g2, %g4, %g1
    1118:	83 00 80 05 	taddcc  %g2, %g5, %g1
    111c:	83 00 80 06 	taddcc  %g2, %g6, %g1
    1120:	83 00 80 07 	taddcc  %g2, %g7, %g1
    1124:	83 00 80 08 	taddcc  %g2, %o0, %g1
    1128:	83 00 80 09 	taddcc  %g2, %o1, %g1
    112c:	83 00 80 0a 	taddcc  %g2, %o2, %g1
    1130:	83 00 80 0b 	taddcc  %g2, %o3, %g1
    1134:	83 00 80 0c 	taddcc  %g2, %o4, %g1
    1138:	83 00 80 0d 	taddcc  %g2, %o5, %g1
    113c:	83 00 80 0e 	taddcc  %g2, %sp, %g1
    1140:	83 00 80 0f 	taddcc  %g2, %o7, %g1
    1144:	83 00 80 10 	taddcc  %g2, %l0, %g1
    1148:	83 00 80 11 	taddcc  %g2, %l1, %g1
    114c:	83 00 80 12 	taddcc  %g2, %l2, %g1
    1150:	83 00 80 13 	taddcc  %g2, %l3, %g1
    1154:	83 00 80 14 	taddcc  %g2, %l4, %g1
    1158:	83 00 80 15 	taddcc  %g2, %l5, %g1
    115c:	83 00 80 16 	taddcc  %g2, %l6, %g1
    1160:	83 00 80 17 	taddcc  %g2, %l7, %g1
    1164:	83 00 80 18 	taddcc  %g2, %i0, %g1
    1168:	83 00 80 19 	taddcc  %g2, %i1, %g1
    116c:	83 00 80 1a 	taddcc  %g2, %i2, %g1
    1170:	83 00 80 1b 	taddcc  %g2, %i3, %g1
    1174:	83 00 80 1c 	taddcc  %g2, %i4, %g1
    1178:	83 00 80 1d 	taddcc  %g2, %i5, %g1
    117c:	83 00 80 1e 	taddcc  %g2, %fp, %g1
    1180:	83 00 80 1f 	taddcc  %g2, %i7, %g1
    1184:	83 00 c0 00 	taddcc  %g3, %g0, %g1
    1188:	83 00 c0 01 	taddcc  %g3, %g1, %g1
    118c:	83 00 c0 02 	taddcc  %g3, %g2, %g1
    1190:	83 00 c0 03 	taddcc  %g3, %g3, %g1
    1194:	83 00 c0 04 	taddcc  %g3, %g4, %g1
    1198:	83 00 c0 05 	taddcc  %g3, %g5, %g1
    119c:	83 00 c0 06 	taddcc  %g3, %g6, %g1
    11a0:	83 00 c0 07 	taddcc  %g3, %g7, %g1
    11a4:	83 00 c0 08 	taddcc  %g3, %o0, %g1
    11a8:	83 00 c0 09 	taddcc  %g3, %o1, %g1
    11ac:	83 00 c0 0a 	taddcc  %g3, %o2, %g1
    11b0:	83 00 c0 0b 	taddcc  %g3, %o3, %g1
    11b4:	83 00 c0 0c 	taddcc  %g3, %o4, %g1
    11b8:	83 00 c0 0d 	taddcc  %g3, %o5, %g1
    11bc:	83 00 c0 0e 	taddcc  %g3, %sp, %g1
    11c0:	83 00 c0 0f 	taddcc  %g3, %o7, %g1
    11c4:	83 00 c0 10 	taddcc  %g3, %l0, %g1
    11c8:	83 00 c0 11 	taddcc  %g3, %l1, %g1
    11cc:	83 00 c0 12 	taddcc  %g3, %l2, %g1
    11d0:	83 00 c0 13 	taddcc  %g3, %l3, %g1
    11d4:	83 00 c0 14 	taddcc  %g3, %l4, %g1
    11d8:	83 00 c0 15 	taddcc  %g3, %l5, %g1
    11dc:	83 00 c0 16 	taddcc  %g3, %l6, %g1
    11e0:	83 00 c0 17 	taddcc  %g3, %l7, %g1
    11e4:	83 00 c0 18 	taddcc  %g3, %i0, %g1
    11e8:	83 00 c0 19 	taddcc  %g3, %i1, %g1
    11ec:	83 00 c0 1a 	taddcc  %g3, %i2, %g1
    11f0:	83 00 c0 1b 	taddcc  %g3, %i3, %g1
    11f4:	83 00 c0 1c 	taddcc  %g3, %i4, %g1
    11f8:	83 00 c0 1d 	taddcc  %g3, %i5, %g1
    11fc:	83 00 c0 1e 	taddcc  %g3, %fp, %g1
    1200:	83 00 c0 1f 	taddcc  %g3, %i7, %g1
    1204:	83 01 00 00 	taddcc  %g4, %g0, %g1
    1208:	83 01 00 01 	taddcc  %g4, %g1, %g1
    120c:	83 01 00 02 	taddcc  %g4, %g2, %g1
    1210:	83 01 00 03 	taddcc  %g4, %g3, %g1
    1214:	83 01 00 04 	taddcc  %g4, %g4, %g1
    1218:	83 01 00 05 	taddcc  %g4, %g5, %g1
    121c:	83 01 00 06 	taddcc  %g4, %g6, %g1
    1220:	83 01 00 07 	taddcc  %g4, %g7, %g1
    1224:	83 01 00 08 	taddcc  %g4, %o0, %g1
    1228:	83 01 00 09 	taddcc  %g4, %o1, %g1
    122c:	83 01 00 0a 	taddcc  %g4, %o2, %g1
    1230:	83 01 00 0b 	taddcc  %g4, %o3, %g1
    1234:	83 01 00 0c 	taddcc  %g4, %o4, %g1
    1238:	83 01 00 0d 	taddcc  %g4, %o5, %g1
    123c:	83 01 00 0e 	taddcc  %g4, %sp, %g1
    1240:	83 01 00 0f 	taddcc  %g4, %o7, %g1
    1244:	83 01 00 10 	taddcc  %g4, %l0, %g1
    1248:	83 01 00 11 	taddcc  %g4, %l1, %g1
    124c:	83 01 00 12 	taddcc  %g4, %l2, %g1
    1250:	83 01 00 13 	taddcc  %g4, %l3, %g1
    1254:	83 01 00 14 	taddcc  %g4, %l4, %g1
    1258:	83 01 00 15 	taddcc  %g4, %l5, %g1
    125c:	83 01 00 16 	taddcc  %g4, %l6, %g1
    1260:	83 01 00 17 	taddcc  %g4, %l7, %g1
    1264:	83 01 00 18 	taddcc  %g4, %i0, %g1
    1268:	83 01 00 19 	taddcc  %g4, %i1, %g1
    126c:	83 01 00 1a 	taddcc  %g4, %i2, %g1
    1270:	83 01 00 1b 	taddcc  %g4, %i3, %g1
    1274:	83 01 00 1c 	taddcc  %g4, %i4, %g1
    1278:	83 01 00 1d 	taddcc  %g4, %i5, %g1
    127c:	83 01 00 1e 	taddcc  %g4, %fp, %g1
    1280:	83 01 00 1f 	taddcc  %g4, %i7, %g1
    1284:	83 01 40 00 	taddcc  %g5, %g0, %g1
    1288:	83 01 40 01 	taddcc  %g5, %g1, %g1
    128c:	83 01 40 02 	taddcc  %g5, %g2, %g1
    1290:	83 01 40 03 	taddcc  %g5, %g3, %g1
    1294:	83 01 40 04 	taddcc  %g5, %g4, %g1
    1298:	83 01 40 05 	taddcc  %g5, %g5, %g1
    129c:	83 01 40 06 	taddcc  %g5, %g6, %g1
    12a0:	83 01 40 07 	taddcc  %g5, %g7, %g1
    12a4:	83 01 40 08 	taddcc  %g5, %o0, %g1
    12a8:	83 01 40 09 	taddcc  %g5, %o1, %g1
    12ac:	83 01 40 0a 	taddcc  %g5, %o2, %g1
    12b0:	83 01 40 0b 	taddcc  %g5, %o3, %g1
    12b4:	83 01 40 0c 	taddcc  %g5, %o4, %g1
    12b8:	83 01 40 0d 	taddcc  %g5, %o5, %g1
    12bc:	83 01 40 0e 	taddcc  %g5, %sp, %g1
    12c0:	83 01 40 0f 	taddcc  %g5, %o7, %g1
    12c4:	83 01 40 10 	taddcc  %g5, %l0, %g1
    12c8:	83 01 40 11 	taddcc  %g5, %l1, %g1
    12cc:	83 01 40 12 	taddcc  %g5, %l2, %g1
    12d0:	83 01 40 13 	taddcc  %g5, %l3, %g1
    12d4:	83 01 40 14 	taddcc  %g5, %l4, %g1
    12d8:	83 01 40 15 	taddcc  %g5, %l5, %g1
    12dc:	83 01 40 16 	taddcc  %g5, %l6, %g1
    12e0:	83 01 40 17 	taddcc  %g5, %l7, %g1
    12e4:	83 01 40 18 	taddcc  %g5, %i0, %g1
    12e8:	83 01 40 19 	taddcc  %g5, %i1, %g1
    12ec:	83 01 40 1a 	taddcc  %g5, %i2, %g1
    12f0:	83 01 40 1b 	taddcc  %g5, %i3, %g1
    12f4:	83 01 40 1c 	taddcc  %g5, %i4, %g1
    12f8:	83 01 40 1d 	taddcc  %g5, %i5, %g1
    12fc:	83 01 40 1e 	taddcc  %g5, %fp, %g1
    1300:	83 01 40 1f 	taddcc  %g5, %i7, %g1
    1304:	83 01 80 00 	taddcc  %g6, %g0, %g1
    1308:	83 01 80 01 	taddcc  %g6, %g1, %g1
    130c:	83 01 80 02 	taddcc  %g6, %g2, %g1
    1310:	83 01 80 03 	taddcc  %g6, %g3, %g1
    1314:	83 01 80 04 	taddcc  %g6, %g4, %g1
    1318:	83 01 80 05 	taddcc  %g6, %g5, %g1
    131c:	83 01 80 06 	taddcc  %g6, %g6, %g1
    1320:	83 01 80 07 	taddcc  %g6, %g7, %g1
    1324:	83 01 80 08 	taddcc  %g6, %o0, %g1
    1328:	83 01 80 09 	taddcc  %g6, %o1, %g1
    132c:	83 01 80 0a 	taddcc  %g6, %o2, %g1
    1330:	83 01 80 0b 	taddcc  %g6, %o3, %g1
    1334:	83 01 80 0c 	taddcc  %g6, %o4, %g1
    1338:	83 01 80 0d 	taddcc  %g6, %o5, %g1
    133c:	83 01 80 0e 	taddcc  %g6, %sp, %g1
    1340:	83 01 80 0f 	taddcc  %g6, %o7, %g1
    1344:	83 01 80 10 	taddcc  %g6, %l0, %g1
    1348:	83 01 80 11 	taddcc  %g6, %l1, %g1
    134c:	83 01 80 12 	taddcc  %g6, %l2, %g1
    1350:	83 01 80 13 	taddcc  %g6, %l3, %g1
    1354:	83 01 80 14 	taddcc  %g6, %l4, %g1
    1358:	83 01 80 15 	taddcc  %g6, %l5, %g1
    135c:	83 01 80 16 	taddcc  %g6, %l6, %g1
    1360:	83 01 80 17 	taddcc  %g6, %l7, %g1
    1364:	83 01 80 18 	taddcc  %g6, %i0, %g1
    1368:	83 01 80 19 	taddcc  %g6, %i1, %g1
    136c:	83 01 80 1a 	taddcc  %g6, %i2, %g1
    1370:	83 01 80 1b 	taddcc  %g6, %i3, %g1
    1374:	83 01 80 1c 	taddcc  %g6, %i4, %g1
    1378:	83 01 80 1d 	taddcc  %g6, %i5, %g1
    137c:	83 01 80 1e 	taddcc  %g6, %fp, %g1
    1380:	83 01 80 1f 	taddcc  %g6, %i7, %g1
    1384:	83 01 c0 00 	taddcc  %g7, %g0, %g1
    1388:	83 01 c0 01 	taddcc  %g7, %g1, %g1
    138c:	83 01 c0 02 	taddcc  %g7, %g2, %g1
    1390:	83 01 c0 03 	taddcc  %g7, %g3, %g1
    1394:	83 01 c0 04 	taddcc  %g7, %g4, %g1
    1398:	83 01 c0 05 	taddcc  %g7, %g5, %g1
    139c:	83 01 c0 06 	taddcc  %g7, %g6, %g1
    13a0:	83 01 c0 07 	taddcc  %g7, %g7, %g1
    13a4:	83 01 c0 08 	taddcc  %g7, %o0, %g1
    13a8:	83 01 c0 09 	taddcc  %g7, %o1, %g1
    13ac:	83 01 c0 0a 	taddcc  %g7, %o2, %g1
    13b0:	83 01 c0 0b 	taddcc  %g7, %o3, %g1
    13b4:	83 01 c0 0c 	taddcc  %g7, %o4, %g1
    13b8:	83 01 c0 0d 	taddcc  %g7, %o5, %g1
    13bc:	83 01 c0 0e 	taddcc  %g7, %sp, %g1
    13c0:	83 01 c0 0f 	taddcc  %g7, %o7, %g1
    13c4:	83 01 c0 10 	taddcc  %g7, %l0, %g1
    13c8:	83 01 c0 11 	taddcc  %g7, %l1, %g1
    13cc:	83 01 c0 12 	taddcc  %g7, %l2, %g1
    13d0:	83 01 c0 13 	taddcc  %g7, %l3, %g1
    13d4:	83 01 c0 14 	taddcc  %g7, %l4, %g1
    13d8:	83 01 c0 15 	taddcc  %g7, %l5, %g1
    13dc:	83 01 c0 16 	taddcc  %g7, %l6, %g1
    13e0:	83 01 c0 17 	taddcc  %g7, %l7, %g1
    13e4:	83 01 c0 18 	taddcc  %g7, %i0, %g1
    13e8:	83 01 c0 19 	taddcc  %g7, %i1, %g1
    13ec:	83 01 c0 1a 	taddcc  %g7, %i2, %g1
    13f0:	83 01 c0 1b 	taddcc  %g7, %i3, %g1
    13f4:	83 01 c0 1c 	taddcc  %g7, %i4, %g1
    13f8:	83 01 c0 1d 	taddcc  %g7, %i5, %g1
    13fc:	83 01 c0 1e 	taddcc  %g7, %fp, %g1
    1400:	83 01 c0 1f 	taddcc  %g7, %i7, %g1
    1404:	83 02 00 00 	taddcc  %o0, %g0, %g1
    1408:	83 02 00 01 	taddcc  %o0, %g1, %g1
    140c:	83 02 00 02 	taddcc  %o0, %g2, %g1
    1410:	83 02 00 03 	taddcc  %o0, %g3, %g1
    1414:	83 02 00 04 	taddcc  %o0, %g4, %g1
    1418:	83 02 00 05 	taddcc  %o0, %g5, %g1
    141c:	83 02 00 06 	taddcc  %o0, %g6, %g1
    1420:	83 02 00 07 	taddcc  %o0, %g7, %g1
    1424:	83 02 00 08 	taddcc  %o0, %o0, %g1
    1428:	83 02 00 09 	taddcc  %o0, %o1, %g1
    142c:	83 02 00 0a 	taddcc  %o0, %o2, %g1
    1430:	83 02 00 0b 	taddcc  %o0, %o3, %g1
    1434:	83 02 00 0c 	taddcc  %o0, %o4, %g1
    1438:	83 02 00 0d 	taddcc  %o0, %o5, %g1
    143c:	83 02 00 0e 	taddcc  %o0, %sp, %g1
    1440:	83 02 00 0f 	taddcc  %o0, %o7, %g1
    1444:	83 02 00 10 	taddcc  %o0, %l0, %g1
    1448:	83 02 00 11 	taddcc  %o0, %l1, %g1
    144c:	83 02 00 12 	taddcc  %o0, %l2, %g1
    1450:	83 02 00 13 	taddcc  %o0, %l3, %g1
    1454:	83 02 00 14 	taddcc  %o0, %l4, %g1
    1458:	83 02 00 15 	taddcc  %o0, %l5, %g1
    145c:	83 02 00 16 	taddcc  %o0, %l6, %g1
    1460:	83 02 00 17 	taddcc  %o0, %l7, %g1
    1464:	83 02 00 18 	taddcc  %o0, %i0, %g1
    1468:	83 02 00 19 	taddcc  %o0, %i1, %g1
    146c:	83 02 00 1a 	taddcc  %o0, %i2, %g1
    1470:	83 02 00 1b 	taddcc  %o0, %i3, %g1
    1474:	83 02 00 1c 	taddcc  %o0, %i4, %g1
    1478:	83 02 00 1d 	taddcc  %o0, %i5, %g1
    147c:	83 02 00 1e 	taddcc  %o0, %fp, %g1
    1480:	83 02 00 1f 	taddcc  %o0, %i7, %g1
    1484:	83 02 40 00 	taddcc  %o1, %g0, %g1
    1488:	83 02 40 01 	taddcc  %o1, %g1, %g1
    148c:	83 02 40 02 	taddcc  %o1, %g2, %g1
    1490:	83 02 40 03 	taddcc  %o1, %g3, %g1
    1494:	83 02 40 04 	taddcc  %o1, %g4, %g1
    1498:	83 02 40 05 	taddcc  %o1, %g5, %g1
    149c:	83 02 40 06 	taddcc  %o1, %g6, %g1
    14a0:	83 02 40 07 	taddcc  %o1, %g7, %g1
    14a4:	83 02 40 08 	taddcc  %o1, %o0, %g1
    14a8:	83 02 40 09 	taddcc  %o1, %o1, %g1
    14ac:	83 02 40 0a 	taddcc  %o1, %o2, %g1
    14b0:	83 02 40 0b 	taddcc  %o1, %o3, %g1
    14b4:	83 02 40 0c 	taddcc  %o1, %o4, %g1
    14b8:	83 02 40 0d 	taddcc  %o1, %o5, %g1
    14bc:	83 02 40 0e 	taddcc  %o1, %sp, %g1
    14c0:	83 02 40 0f 	taddcc  %o1, %o7, %g1
    14c4:	83 02 40 10 	taddcc  %o1, %l0, %g1
    14c8:	83 02 40 11 	taddcc  %o1, %l1, %g1
    14cc:	83 02 40 12 	taddcc  %o1, %l2, %g1
    14d0:	83 02 40 13 	taddcc  %o1, %l3, %g1
    14d4:	83 02 40 14 	taddcc  %o1, %l4, %g1
    14d8:	83 02 40 15 	taddcc  %o1, %l5, %g1
    14dc:	83 02 40 16 	taddcc  %o1, %l6, %g1
    14e0:	83 02 40 17 	taddcc  %o1, %l7, %g1
    14e4:	83 02 40 18 	taddcc  %o1, %i0, %g1
    14e8:	83 02 40 19 	taddcc  %o1, %i1, %g1
    14ec:	83 02 40 1a 	taddcc  %o1, %i2, %g1
    14f0:	83 02 40 1b 	taddcc  %o1, %i3, %g1
    14f4:	83 02 40 1c 	taddcc  %o1, %i4, %g1
    14f8:	83 02 40 1d 	taddcc  %o1, %i5, %g1
    14fc:	83 02 40 1e 	taddcc  %o1, %fp, %g1
    1500:	83 02 40 1f 	taddcc  %o1, %i7, %g1
    1504:	83 02 80 00 	taddcc  %o2, %g0, %g1
    1508:	83 02 80 01 	taddcc  %o2, %g1, %g1
    150c:	83 02 80 02 	taddcc  %o2, %g2, %g1
    1510:	83 02 80 03 	taddcc  %o2, %g3, %g1
    1514:	83 02 80 04 	taddcc  %o2, %g4, %g1
    1518:	83 02 80 05 	taddcc  %o2, %g5, %g1
    151c:	83 02 80 06 	taddcc  %o2, %g6, %g1
    1520:	83 02 80 07 	taddcc  %o2, %g7, %g1
    1524:	83 02 80 08 	taddcc  %o2, %o0, %g1
    1528:	83 02 80 09 	taddcc  %o2, %o1, %g1
    152c:	83 02 80 0a 	taddcc  %o2, %o2, %g1
    1530:	83 02 80 0b 	taddcc  %o2, %o3, %g1
    1534:	83 02 80 0c 	taddcc  %o2, %o4, %g1
    1538:	83 02 80 0d 	taddcc  %o2, %o5, %g1
    153c:	83 02 80 0e 	taddcc  %o2, %sp, %g1
    1540:	83 02 80 0f 	taddcc  %o2, %o7, %g1
    1544:	83 02 80 10 	taddcc  %o2, %l0, %g1
    1548:	83 02 80 11 	taddcc  %o2, %l1, %g1
    154c:	83 02 80 12 	taddcc  %o2, %l2, %g1
    1550:	83 02 80 13 	taddcc  %o2, %l3, %g1
    1554:	83 02 80 14 	taddcc  %o2, %l4, %g1
    1558:	83 02 80 15 	taddcc  %o2, %l5, %g1
    155c:	83 02 80 16 	taddcc  %o2, %l6, %g1
    1560:	83 02 80 17 	taddcc  %o2, %l7, %g1
    1564:	83 02 80 18 	taddcc  %o2, %i0, %g1
    1568:	83 02 80 19 	taddcc  %o2, %i1, %g1
    156c:	83 02 80 1a 	taddcc  %o2, %i2, %g1
    1570:	83 02 80 1b 	taddcc  %o2, %i3, %g1
    1574:	83 02 80 1c 	taddcc  %o2, %i4, %g1
    1578:	83 02 80 1d 	taddcc  %o2, %i5, %g1
    157c:	83 02 80 1e 	taddcc  %o2, %fp, %g1
    1580:	83 02 80 1f 	taddcc  %o2, %i7, %g1
    1584:	83 02 c0 00 	taddcc  %o3, %g0, %g1
    1588:	83 02 c0 01 	taddcc  %o3, %g1, %g1
    158c:	83 02 c0 02 	taddcc  %o3, %g2, %g1
    1590:	83 02 c0 03 	taddcc  %o3, %g3, %g1
    1594:	83 02 c0 04 	taddcc  %o3, %g4, %g1
    1598:	83 02 c0 05 	taddcc  %o3, %g5, %g1
    159c:	83 02 c0 06 	taddcc  %o3, %g6, %g1
    15a0:	83 02 c0 07 	taddcc  %o3, %g7, %g1
    15a4:	83 02 c0 08 	taddcc  %o3, %o0, %g1
    15a8:	83 02 c0 09 	taddcc  %o3, %o1, %g1
    15ac:	83 02 c0 0a 	taddcc  %o3, %o2, %g1
    15b0:	83 02 c0 0b 	taddcc  %o3, %o3, %g1
    15b4:	83 02 c0 0c 	taddcc  %o3, %o4, %g1
    15b8:	83 02 c0 0d 	taddcc  %o3, %o5, %g1
    15bc:	83 02 c0 0e 	taddcc  %o3, %sp, %g1
    15c0:	83 02 c0 0f 	taddcc  %o3, %o7, %g1
    15c4:	83 02 c0 10 	taddcc  %o3, %l0, %g1
    15c8:	83 02 c0 11 	taddcc  %o3, %l1, %g1
    15cc:	83 02 c0 12 	taddcc  %o3, %l2, %g1
    15d0:	83 02 c0 13 	taddcc  %o3, %l3, %g1
    15d4:	83 02 c0 14 	taddcc  %o3, %l4, %g1
    15d8:	83 02 c0 15 	taddcc  %o3, %l5, %g1
    15dc:	83 02 c0 16 	taddcc  %o3, %l6, %g1
    15e0:	83 02 c0 17 	taddcc  %o3, %l7, %g1
    15e4:	83 02 c0 18 	taddcc  %o3, %i0, %g1
    15e8:	83 02 c0 19 	taddcc  %o3, %i1, %g1
    15ec:	83 02 c0 1a 	taddcc  %o3, %i2, %g1
    15f0:	83 02 c0 1b 	taddcc  %o3, %i3, %g1
    15f4:	83 02 c0 1c 	taddcc  %o3, %i4, %g1
    15f8:	83 02 c0 1d 	taddcc  %o3, %i5, %g1
    15fc:	83 02 c0 1e 	taddcc  %o3, %fp, %g1
    1600:	83 02 c0 1f 	taddcc  %o3, %i7, %g1
    1604:	83 03 00 00 	taddcc  %o4, %g0, %g1
    1608:	83 03 00 01 	taddcc  %o4, %g1, %g1
    160c:	83 03 00 02 	taddcc  %o4, %g2, %g1
    1610:	83 03 00 03 	taddcc  %o4, %g3, %g1
    1614:	83 03 00 04 	taddcc  %o4, %g4, %g1
    1618:	83 03 00 05 	taddcc  %o4, %g5, %g1
    161c:	83 03 00 06 	taddcc  %o4, %g6, %g1
    1620:	83 03 00 07 	taddcc  %o4, %g7, %g1
    1624:	83 03 00 08 	taddcc  %o4, %o0, %g1
    1628:	83 03 00 09 	taddcc  %o4, %o1, %g1
    162c:	83 03 00 0a 	taddcc  %o4, %o2, %g1
    1630:	83 03 00 0b 	taddcc  %o4, %o3, %g1
    1634:	83 03 00 0c 	taddcc  %o4, %o4, %g1
    1638:	83 03 00 0d 	taddcc  %o4, %o5, %g1
    163c:	83 03 00 0e 	taddcc  %o4, %sp, %g1
    1640:	83 03 00 0f 	taddcc  %o4, %o7, %g1
    1644:	83 03 00 10 	taddcc  %o4, %l0, %g1
    1648:	83 03 00 11 	taddcc  %o4, %l1, %g1
    164c:	83 03 00 12 	taddcc  %o4, %l2, %g1
    1650:	83 03 00 13 	taddcc  %o4, %l3, %g1
    1654:	83 03 00 14 	taddcc  %o4, %l4, %g1
    1658:	83 03 00 15 	taddcc  %o4, %l5, %g1
    165c:	83 03 00 16 	taddcc  %o4, %l6, %g1
    1660:	83 03 00 17 	taddcc  %o4, %l7, %g1
    1664:	83 03 00 18 	taddcc  %o4, %i0, %g1
    1668:	83 03 00 19 	taddcc  %o4, %i1, %g1
    166c:	83 03 00 1a 	taddcc  %o4, %i2, %g1
    1670:	83 03 00 1b 	taddcc  %o4, %i3, %g1
    1674:	83 03 00 1c 	taddcc  %o4, %i4, %g1
    1678:	83 03 00 1d 	taddcc  %o4, %i5, %g1
    167c:	83 03 00 1e 	taddcc  %o4, %fp, %g1
    1680:	83 03 00 1f 	taddcc  %o4, %i7, %g1
    1684:	83 03 40 00 	taddcc  %o5, %g0, %g1
    1688:	83 03 40 01 	taddcc  %o5, %g1, %g1
    168c:	83 03 40 02 	taddcc  %o5, %g2, %g1
    1690:	83 03 40 03 	taddcc  %o5, %g3, %g1
    1694:	83 03 40 04 	taddcc  %o5, %g4, %g1
    1698:	83 03 40 05 	taddcc  %o5, %g5, %g1
    169c:	83 03 40 06 	taddcc  %o5, %g6, %g1
    16a0:	83 03 40 07 	taddcc  %o5, %g7, %g1
    16a4:	83 03 40 08 	taddcc  %o5, %o0, %g1
    16a8:	83 03 40 09 	taddcc  %o5, %o1, %g1
    16ac:	83 03 40 0a 	taddcc  %o5, %o2, %g1
    16b0:	83 03 40 0b 	taddcc  %o5, %o3, %g1
    16b4:	83 03 40 0c 	taddcc  %o5, %o4, %g1
    16b8:	83 03 40 0d 	taddcc  %o5, %o5, %g1
    16bc:	83 03 40 0e 	taddcc  %o5, %sp, %g1
    16c0:	83 03 40 0f 	taddcc  %o5, %o7, %g1
    16c4:	83 03 40 10 	taddcc  %o5, %l0, %g1
    16c8:	83 03 40 11 	taddcc  %o5, %l1, %g1
    16cc:	83 03 40 12 	taddcc  %o5, %l2, %g1
    16d0:	83 03 40 13 	taddcc  %o5, %l3, %g1
    16d4:	83 03 40 14 	taddcc  %o5, %l4, %g1
    16d8:	83 03 40 15 	taddcc  %o5, %l5, %g1
    16dc:	83 03 40 16 	taddcc  %o5, %l6, %g1
    16e0:	83 03 40 17 	taddcc  %o5, %l7, %g1
    16e4:	83 03 40 18 	taddcc  %o5, %i0, %g1
    16e8:	83 03 40 19 	taddcc  %o5, %i1, %g1
    16ec:	83 03 40 1a 	taddcc  %o5, %i2, %g1
    16f0:	83 03 40 1b 	taddcc  %o5, %i3, %g1
    16f4:	83 03 40 1c 	taddcc  %o5, %i4, %g1
    16f8:	83 03 40 1d 	taddcc  %o5, %i5, %g1
    16fc:	83 03 40 1e 	taddcc  %o5, %fp, %g1
    1700:	83 03 40 1f 	taddcc  %o5, %i7, %g1
    1704:	83 03 80 00 	taddcc  %sp, %g0, %g1
    1708:	83 03 80 01 	taddcc  %sp, %g1, %g1
    170c:	83 03 80 02 	taddcc  %sp, %g2, %g1
    1710:	83 03 80 03 	taddcc  %sp, %g3, %g1
    1714:	83 03 80 04 	taddcc  %sp, %g4, %g1
    1718:	83 03 80 05 	taddcc  %sp, %g5, %g1
    171c:	83 03 80 06 	taddcc  %sp, %g6, %g1
    1720:	83 03 80 07 	taddcc  %sp, %g7, %g1
    1724:	83 03 80 08 	taddcc  %sp, %o0, %g1
    1728:	83 03 80 09 	taddcc  %sp, %o1, %g1
    172c:	83 03 80 0a 	taddcc  %sp, %o2, %g1
    1730:	83 03 80 0b 	taddcc  %sp, %o3, %g1
    1734:	83 03 80 0c 	taddcc  %sp, %o4, %g1
    1738:	83 03 80 0d 	taddcc  %sp, %o5, %g1
    173c:	83 03 80 0e 	taddcc  %sp, %sp, %g1
    1740:	83 03 80 0f 	taddcc  %sp, %o7, %g1
    1744:	83 03 80 10 	taddcc  %sp, %l0, %g1
    1748:	83 03 80 11 	taddcc  %sp, %l1, %g1
    174c:	83 03 80 12 	taddcc  %sp, %l2, %g1
    1750:	83 03 80 13 	taddcc  %sp, %l3, %g1
    1754:	83 03 80 14 	taddcc  %sp, %l4, %g1
    1758:	83 03 80 15 	taddcc  %sp, %l5, %g1
    175c:	83 03 80 16 	taddcc  %sp, %l6, %g1
    1760:	83 03 80 17 	taddcc  %sp, %l7, %g1
    1764:	83 03 80 18 	taddcc  %sp, %i0, %g1
    1768:	83 03 80 19 	taddcc  %sp, %i1, %g1
    176c:	83 03 80 1a 	taddcc  %sp, %i2, %g1
    1770:	83 03 80 1b 	taddcc  %sp, %i3, %g1
    1774:	83 03 80 1c 	taddcc  %sp, %i4, %g1
    1778:	83 03 80 1d 	taddcc  %sp, %i5, %g1
    177c:	83 03 80 1e 	taddcc  %sp, %fp, %g1
    1780:	83 03 80 1f 	taddcc  %sp, %i7, %g1
    1784:	83 03 c0 00 	taddcc  %o7, %g0, %g1
    1788:	83 03 c0 01 	taddcc  %o7, %g1, %g1
    178c:	83 03 c0 02 	taddcc  %o7, %g2, %g1
    1790:	83 03 c0 03 	taddcc  %o7, %g3, %g1
    1794:	83 03 c0 04 	taddcc  %o7, %g4, %g1
    1798:	83 03 c0 05 	taddcc  %o7, %g5, %g1
    179c:	83 03 c0 06 	taddcc  %o7, %g6, %g1
    17a0:	83 03 c0 07 	taddcc  %o7, %g7, %g1
    17a4:	83 03 c0 08 	taddcc  %o7, %o0, %g1
    17a8:	83 03 c0 09 	taddcc  %o7, %o1, %g1
    17ac:	83 03 c0 0a 	taddcc  %o7, %o2, %g1
    17b0:	83 03 c0 0b 	taddcc  %o7, %o3, %g1
    17b4:	83 03 c0 0c 	taddcc  %o7, %o4, %g1
    17b8:	83 03 c0 0d 	taddcc  %o7, %o5, %g1
    17bc:	83 03 c0 0e 	taddcc  %o7, %sp, %g1
    17c0:	83 03 c0 0f 	taddcc  %o7, %o7, %g1
    17c4:	83 03 c0 10 	taddcc  %o7, %l0, %g1
    17c8:	83 03 c0 11 	taddcc  %o7, %l1, %g1
    17cc:	83 03 c0 12 	taddcc  %o7, %l2, %g1
    17d0:	83 03 c0 13 	taddcc  %o7, %l3, %g1
    17d4:	83 03 c0 14 	taddcc  %o7, %l4, %g1
    17d8:	83 03 c0 15 	taddcc  %o7, %l5, %g1
    17dc:	83 03 c0 16 	taddcc  %o7, %l6, %g1
    17e0:	83 03 c0 17 	taddcc  %o7, %l7, %g1
    17e4:	83 03 c0 18 	taddcc  %o7, %i0, %g1
    17e8:	83 03 c0 19 	taddcc  %o7, %i1, %g1
    17ec:	83 03 c0 1a 	taddcc  %o7, %i2, %g1
    17f0:	83 03 c0 1b 	taddcc  %o7, %i3, %g1
    17f4:	83 03 c0 1c 	taddcc  %o7, %i4, %g1
    17f8:	83 03 c0 1d 	taddcc  %o7, %i5, %g1
    17fc:	83 03 c0 1e 	taddcc  %o7, %fp, %g1
    1800:	83 03 c0 1f 	taddcc  %o7, %i7, %g1
    1804:	83 04 00 00 	taddcc  %l0, %g0, %g1
    1808:	83 04 00 01 	taddcc  %l0, %g1, %g1
    180c:	83 04 00 02 	taddcc  %l0, %g2, %g1
    1810:	83 04 00 03 	taddcc  %l0, %g3, %g1
    1814:	83 04 00 04 	taddcc  %l0, %g4, %g1
    1818:	83 04 00 05 	taddcc  %l0, %g5, %g1
    181c:	83 04 00 06 	taddcc  %l0, %g6, %g1
    1820:	83 04 00 07 	taddcc  %l0, %g7, %g1
    1824:	83 04 00 08 	taddcc  %l0, %o0, %g1
    1828:	83 04 00 09 	taddcc  %l0, %o1, %g1
    182c:	83 04 00 0a 	taddcc  %l0, %o2, %g1
    1830:	83 04 00 0b 	taddcc  %l0, %o3, %g1
    1834:	83 04 00 0c 	taddcc  %l0, %o4, %g1
    1838:	83 04 00 0d 	taddcc  %l0, %o5, %g1
    183c:	83 04 00 0e 	taddcc  %l0, %sp, %g1
    1840:	83 04 00 0f 	taddcc  %l0, %o7, %g1
    1844:	83 04 00 10 	taddcc  %l0, %l0, %g1
    1848:	83 04 00 11 	taddcc  %l0, %l1, %g1
    184c:	83 04 00 12 	taddcc  %l0, %l2, %g1
    1850:	83 04 00 13 	taddcc  %l0, %l3, %g1
    1854:	83 04 00 14 	taddcc  %l0, %l4, %g1
    1858:	83 04 00 15 	taddcc  %l0, %l5, %g1
    185c:	83 04 00 16 	taddcc  %l0, %l6, %g1
    1860:	83 04 00 17 	taddcc  %l0, %l7, %g1
    1864:	83 04 00 18 	taddcc  %l0, %i0, %g1
    1868:	83 04 00 19 	taddcc  %l0, %i1, %g1
    186c:	83 04 00 1a 	taddcc  %l0, %i2, %g1
    1870:	83 04 00 1b 	taddcc  %l0, %i3, %g1
    1874:	83 04 00 1c 	taddcc  %l0, %i4, %g1
    1878:	83 04 00 1d 	taddcc  %l0, %i5, %g1
    187c:	83 04 00 1e 	taddcc  %l0, %fp, %g1
    1880:	83 04 00 1f 	taddcc  %l0, %i7, %g1
    1884:	83 04 40 00 	taddcc  %l1, %g0, %g1
    1888:	83 04 40 01 	taddcc  %l1, %g1, %g1
    188c:	83 04 40 02 	taddcc  %l1, %g2, %g1
    1890:	83 04 40 03 	taddcc  %l1, %g3, %g1
    1894:	83 04 40 04 	taddcc  %l1, %g4, %g1
    1898:	83 04 40 05 	taddcc  %l1, %g5, %g1
    189c:	83 04 40 06 	taddcc  %l1, %g6, %g1
    18a0:	83 04 40 07 	taddcc  %l1, %g7, %g1
    18a4:	83 04 40 08 	taddcc  %l1, %o0, %g1
    18a8:	83 04 40 09 	taddcc  %l1, %o1, %g1
    18ac:	83 04 40 0a 	taddcc  %l1, %o2, %g1
    18b0:	83 04 40 0b 	taddcc  %l1, %o3, %g1
    18b4:	83 04 40 0c 	taddcc  %l1, %o4, %g1
    18b8:	83 04 40 0d 	taddcc  %l1, %o5, %g1
    18bc:	83 04 40 0e 	taddcc  %l1, %sp, %g1
    18c0:	83 04 40 0f 	taddcc  %l1, %o7, %g1
    18c4:	83 04 40 10 	taddcc  %l1, %l0, %g1
    18c8:	83 04 40 11 	taddcc  %l1, %l1, %g1
    18cc:	83 04 40 12 	taddcc  %l1, %l2, %g1
    18d0:	83 04 40 13 	taddcc  %l1, %l3, %g1
    18d4:	83 04 40 14 	taddcc  %l1, %l4, %g1
    18d8:	83 04 40 15 	taddcc  %l1, %l5, %g1
    18dc:	83 04 40 16 	taddcc  %l1, %l6, %g1
    18e0:	83 04 40 17 	taddcc  %l1, %l7, %g1
    18e4:	83 04 40 18 	taddcc  %l1, %i0, %g1
    18e8:	83 04 40 19 	taddcc  %l1, %i1, %g1
    18ec:	83 04 40 1a 	taddcc  %l1, %i2, %g1
    18f0:	83 04 40 1b 	taddcc  %l1, %i3, %g1
    18f4:	83 04 40 1c 	taddcc  %l1, %i4, %g1
    18f8:	83 04 40 1d 	taddcc  %l1, %i5, %g1
    18fc:	83 04 40 1e 	taddcc  %l1, %fp, %g1
    1900:	83 04 40 1f 	taddcc  %l1, %i7, %g1
    1904:	83 04 80 00 	taddcc  %l2, %g0, %g1
    1908:	83 04 80 01 	taddcc  %l2, %g1, %g1
    190c:	83 04 80 02 	taddcc  %l2, %g2, %g1
    1910:	83 04 80 03 	taddcc  %l2, %g3, %g1
    1914:	83 04 80 04 	taddcc  %l2, %g4, %g1
    1918:	83 04 80 05 	taddcc  %l2, %g5, %g1
    191c:	83 04 80 06 	taddcc  %l2, %g6, %g1
    1920:	83 04 80 07 	taddcc  %l2, %g7, %g1
    1924:	83 04 80 08 	taddcc  %l2, %o0, %g1
    1928:	83 04 80 09 	taddcc  %l2, %o1, %g1
    192c:	83 04 80 0a 	taddcc  %l2, %o2, %g1
    1930:	83 04 80 0b 	taddcc  %l2, %o3, %g1
    1934:	83 04 80 0c 	taddcc  %l2, %o4, %g1
    1938:	83 04 80 0d 	taddcc  %l2, %o5, %g1
    193c:	83 04 80 0e 	taddcc  %l2, %sp, %g1
    1940:	83 04 80 0f 	taddcc  %l2, %o7, %g1
    1944:	83 04 80 10 	taddcc  %l2, %l0, %g1
    1948:	83 04 80 11 	taddcc  %l2, %l1, %g1
    194c:	83 04 80 12 	taddcc  %l2, %l2, %g1
    1950:	83 04 80 13 	taddcc  %l2, %l3, %g1
    1954:	83 04 80 14 	taddcc  %l2, %l4, %g1
    1958:	83 04 80 15 	taddcc  %l2, %l5, %g1
    195c:	83 04 80 16 	taddcc  %l2, %l6, %g1
    1960:	83 04 80 17 	taddcc  %l2, %l7, %g1
    1964:	83 04 80 18 	taddcc  %l2, %i0, %g1
    1968:	83 04 80 19 	taddcc  %l2, %i1, %g1
    196c:	83 04 80 1a 	taddcc  %l2, %i2, %g1
    1970:	83 04 80 1b 	taddcc  %l2, %i3, %g1
    1974:	83 04 80 1c 	taddcc  %l2, %i4, %g1
    1978:	83 04 80 1d 	taddcc  %l2, %i5, %g1
    197c:	83 04 80 1e 	taddcc  %l2, %fp, %g1
    1980:	83 04 80 1f 	taddcc  %l2, %i7, %g1
    1984:	83 04 c0 00 	taddcc  %l3, %g0, %g1
    1988:	83 04 c0 01 	taddcc  %l3, %g1, %g1
    198c:	83 04 c0 02 	taddcc  %l3, %g2, %g1
    1990:	83 04 c0 03 	taddcc  %l3, %g3, %g1
    1994:	83 04 c0 04 	taddcc  %l3, %g4, %g1
    1998:	83 04 c0 05 	taddcc  %l3, %g5, %g1
    199c:	83 04 c0 06 	taddcc  %l3, %g6, %g1
    19a0:	83 04 c0 07 	taddcc  %l3, %g7, %g1
    19a4:	83 04 c0 08 	taddcc  %l3, %o0, %g1
    19a8:	83 04 c0 09 	taddcc  %l3, %o1, %g1
    19ac:	83 04 c0 0a 	taddcc  %l3, %o2, %g1
    19b0:	83 04 c0 0b 	taddcc  %l3, %o3, %g1
    19b4:	83 04 c0 0c 	taddcc  %l3, %o4, %g1
    19b8:	83 04 c0 0d 	taddcc  %l3, %o5, %g1
    19bc:	83 04 c0 0e 	taddcc  %l3, %sp, %g1
    19c0:	83 04 c0 0f 	taddcc  %l3, %o7, %g1
    19c4:	83 04 c0 10 	taddcc  %l3, %l0, %g1
    19c8:	83 04 c0 11 	taddcc  %l3, %l1, %g1
    19cc:	83 04 c0 12 	taddcc  %l3, %l2, %g1
    19d0:	83 04 c0 13 	taddcc  %l3, %l3, %g1
    19d4:	83 04 c0 14 	taddcc  %l3, %l4, %g1
    19d8:	83 04 c0 15 	taddcc  %l3, %l5, %g1
    19dc:	83 04 c0 16 	taddcc  %l3, %l6, %g1
    19e0:	83 04 c0 17 	taddcc  %l3, %l7, %g1
    19e4:	83 04 c0 18 	taddcc  %l3, %i0, %g1
    19e8:	83 04 c0 19 	taddcc  %l3, %i1, %g1
    19ec:	83 04 c0 1a 	taddcc  %l3, %i2, %g1
    19f0:	83 04 c0 1b 	taddcc  %l3, %i3, %g1
    19f4:	83 04 c0 1c 	taddcc  %l3, %i4, %g1
    19f8:	83 04 c0 1d 	taddcc  %l3, %i5, %g1
    19fc:	83 04 c0 1e 	taddcc  %l3, %fp, %g1
    1a00:	83 04 c0 1f 	taddcc  %l3, %i7, %g1
    1a04:	83 05 00 00 	taddcc  %l4, %g0, %g1
    1a08:	83 05 00 01 	taddcc  %l4, %g1, %g1
    1a0c:	83 05 00 02 	taddcc  %l4, %g2, %g1
    1a10:	83 05 00 03 	taddcc  %l4, %g3, %g1
    1a14:	83 05 00 04 	taddcc  %l4, %g4, %g1
    1a18:	83 05 00 05 	taddcc  %l4, %g5, %g1
    1a1c:	83 05 00 06 	taddcc  %l4, %g6, %g1
    1a20:	83 05 00 07 	taddcc  %l4, %g7, %g1
    1a24:	83 05 00 08 	taddcc  %l4, %o0, %g1
    1a28:	83 05 00 09 	taddcc  %l4, %o1, %g1
    1a2c:	83 05 00 0a 	taddcc  %l4, %o2, %g1
    1a30:	83 05 00 0b 	taddcc  %l4, %o3, %g1
    1a34:	83 05 00 0c 	taddcc  %l4, %o4, %g1
    1a38:	83 05 00 0d 	taddcc  %l4, %o5, %g1
    1a3c:	83 05 00 0e 	taddcc  %l4, %sp, %g1
    1a40:	83 05 00 0f 	taddcc  %l4, %o7, %g1
    1a44:	83 05 00 10 	taddcc  %l4, %l0, %g1
    1a48:	83 05 00 11 	taddcc  %l4, %l1, %g1
    1a4c:	83 05 00 12 	taddcc  %l4, %l2, %g1
    1a50:	83 05 00 13 	taddcc  %l4, %l3, %g1
    1a54:	83 05 00 14 	taddcc  %l4, %l4, %g1
    1a58:	83 05 00 15 	taddcc  %l4, %l5, %g1
    1a5c:	83 05 00 16 	taddcc  %l4, %l6, %g1
    1a60:	83 05 00 17 	taddcc  %l4, %l7, %g1
    1a64:	83 05 00 18 	taddcc  %l4, %i0, %g1
    1a68:	83 05 00 19 	taddcc  %l4, %i1, %g1
    1a6c:	83 05 00 1a 	taddcc  %l4, %i2, %g1
    1a70:	83 05 00 1b 	taddcc  %l4, %i3, %g1
    1a74:	83 05 00 1c 	taddcc  %l4, %i4, %g1
    1a78:	83 05 00 1d 	taddcc  %l4, %i5, %g1
    1a7c:	83 05 00 1e 	taddcc  %l4, %fp, %g1
    1a80:	83 05 00 1f 	taddcc  %l4, %i7, %g1
    1a84:	83 05 40 00 	taddcc  %l5, %g0, %g1
    1a88:	83 05 40 01 	taddcc  %l5, %g1, %g1
    1a8c:	83 05 40 02 	taddcc  %l5, %g2, %g1
    1a90:	83 05 40 03 	taddcc  %l5, %g3, %g1
    1a94:	83 05 40 04 	taddcc  %l5, %g4, %g1
    1a98:	83 05 40 05 	taddcc  %l5, %g5, %g1
    1a9c:	83 05 40 06 	taddcc  %l5, %g6, %g1
    1aa0:	83 05 40 07 	taddcc  %l5, %g7, %g1
    1aa4:	83 05 40 08 	taddcc  %l5, %o0, %g1
    1aa8:	83 05 40 09 	taddcc  %l5, %o1, %g1
    1aac:	83 05 40 0a 	taddcc  %l5, %o2, %g1
    1ab0:	83 05 40 0b 	taddcc  %l5, %o3, %g1
    1ab4:	83 05 40 0c 	taddcc  %l5, %o4, %g1
    1ab8:	83 05 40 0d 	taddcc  %l5, %o5, %g1
    1abc:	83 05 40 0e 	taddcc  %l5, %sp, %g1
    1ac0:	83 05 40 0f 	taddcc  %l5, %o7, %g1
    1ac4:	83 05 40 10 	taddcc  %l5, %l0, %g1
    1ac8:	83 05 40 11 	taddcc  %l5, %l1, %g1
    1acc:	83 05 40 12 	taddcc  %l5, %l2, %g1
    1ad0:	83 05 40 13 	taddcc  %l5, %l3, %g1
    1ad4:	83 05 40 14 	taddcc  %l5, %l4, %g1
    1ad8:	83 05 40 15 	taddcc  %l5, %l5, %g1
    1adc:	83 05 40 16 	taddcc  %l5, %l6, %g1
    1ae0:	83 05 40 17 	taddcc  %l5, %l7, %g1
    1ae4:	83 05 40 18 	taddcc  %l5, %i0, %g1
    1ae8:	83 05 40 19 	taddcc  %l5, %i1, %g1
    1aec:	83 05 40 1a 	taddcc  %l5, %i2, %g1
    1af0:	83 05 40 1b 	taddcc  %l5, %i3, %g1
    1af4:	83 05 40 1c 	taddcc  %l5, %i4, %g1
    1af8:	83 05 40 1d 	taddcc  %l5, %i5, %g1
    1afc:	83 05 40 1e 	taddcc  %l5, %fp, %g1
    1b00:	83 05 40 1f 	taddcc  %l5, %i7, %g1
    1b04:	83 05 80 00 	taddcc  %l6, %g0, %g1
    1b08:	83 05 80 01 	taddcc  %l6, %g1, %g1
    1b0c:	83 05 80 02 	taddcc  %l6, %g2, %g1
    1b10:	83 05 80 03 	taddcc  %l6, %g3, %g1
    1b14:	83 05 80 04 	taddcc  %l6, %g4, %g1
    1b18:	83 05 80 05 	taddcc  %l6, %g5, %g1
    1b1c:	83 05 80 06 	taddcc  %l6, %g6, %g1
    1b20:	83 05 80 07 	taddcc  %l6, %g7, %g1
    1b24:	83 05 80 08 	taddcc  %l6, %o0, %g1
    1b28:	83 05 80 09 	taddcc  %l6, %o1, %g1
    1b2c:	83 05 80 0a 	taddcc  %l6, %o2, %g1
    1b30:	83 05 80 0b 	taddcc  %l6, %o3, %g1
    1b34:	83 05 80 0c 	taddcc  %l6, %o4, %g1
    1b38:	83 05 80 0d 	taddcc  %l6, %o5, %g1
    1b3c:	83 05 80 0e 	taddcc  %l6, %sp, %g1
    1b40:	83 05 80 0f 	taddcc  %l6, %o7, %g1
    1b44:	83 05 80 10 	taddcc  %l6, %l0, %g1
    1b48:	83 05 80 11 	taddcc  %l6, %l1, %g1
    1b4c:	83 05 80 12 	taddcc  %l6, %l2, %g1
    1b50:	83 05 80 13 	taddcc  %l6, %l3, %g1
    1b54:	83 05 80 14 	taddcc  %l6, %l4, %g1
    1b58:	83 05 80 15 	taddcc  %l6, %l5, %g1
    1b5c:	83 05 80 16 	taddcc  %l6, %l6, %g1
    1b60:	83 05 80 17 	taddcc  %l6, %l7, %g1
    1b64:	83 05 80 18 	taddcc  %l6, %i0, %g1
    1b68:	83 05 80 19 	taddcc  %l6, %i1, %g1
    1b6c:	83 05 80 1a 	taddcc  %l6, %i2, %g1
    1b70:	83 05 80 1b 	taddcc  %l6, %i3, %g1
    1b74:	83 05 80 1c 	taddcc  %l6, %i4, %g1
    1b78:	83 05 80 1d 	taddcc  %l6, %i5, %g1
    1b7c:	83 05 80 1e 	taddcc  %l6, %fp, %g1
    1b80:	83 05 80 1f 	taddcc  %l6, %i7, %g1
    1b84:	83 05 c0 00 	taddcc  %l7, %g0, %g1
    1b88:	83 05 c0 01 	taddcc  %l7, %g1, %g1
    1b8c:	83 05 c0 02 	taddcc  %l7, %g2, %g1
    1b90:	83 05 c0 03 	taddcc  %l7, %g3, %g1
    1b94:	83 05 c0 04 	taddcc  %l7, %g4, %g1
    1b98:	83 05 c0 05 	taddcc  %l7, %g5, %g1
    1b9c:	83 05 c0 06 	taddcc  %l7, %g6, %g1
    1ba0:	83 05 c0 07 	taddcc  %l7, %g7, %g1
    1ba4:	83 05 c0 08 	taddcc  %l7, %o0, %g1
    1ba8:	83 05 c0 09 	taddcc  %l7, %o1, %g1
    1bac:	83 05 c0 0a 	taddcc  %l7, %o2, %g1
    1bb0:	83 05 c0 0b 	taddcc  %l7, %o3, %g1
    1bb4:	83 05 c0 0c 	taddcc  %l7, %o4, %g1
    1bb8:	83 05 c0 0d 	taddcc  %l7, %o5, %g1
    1bbc:	83 05 c0 0e 	taddcc  %l7, %sp, %g1
    1bc0:	83 05 c0 0f 	taddcc  %l7, %o7, %g1
    1bc4:	83 05 c0 10 	taddcc  %l7, %l0, %g1
    1bc8:	83 05 c0 11 	taddcc  %l7, %l1, %g1
    1bcc:	83 05 c0 12 	taddcc  %l7, %l2, %g1
    1bd0:	83 05 c0 13 	taddcc  %l7, %l3, %g1
    1bd4:	83 05 c0 14 	taddcc  %l7, %l4, %g1
    1bd8:	83 05 c0 15 	taddcc  %l7, %l5, %g1
    1bdc:	83 05 c0 16 	taddcc  %l7, %l6, %g1
    1be0:	83 05 c0 17 	taddcc  %l7, %l7, %g1
    1be4:	83 05 c0 18 	taddcc  %l7, %i0, %g1
    1be8:	83 05 c0 19 	taddcc  %l7, %i1, %g1
    1bec:	83 05 c0 1a 	taddcc  %l7, %i2, %g1
    1bf0:	83 05 c0 1b 	taddcc  %l7, %i3, %g1
    1bf4:	83 05 c0 1c 	taddcc  %l7, %i4, %g1
    1bf8:	83 05 c0 1d 	taddcc  %l7, %i5, %g1
    1bfc:	83 05 c0 1e 	taddcc  %l7, %fp, %g1
    1c00:	83 05 c0 1f 	taddcc  %l7, %i7, %g1
    1c04:	83 06 00 00 	taddcc  %i0, %g0, %g1
    1c08:	83 06 00 01 	taddcc  %i0, %g1, %g1
    1c0c:	83 06 00 02 	taddcc  %i0, %g2, %g1
    1c10:	83 06 00 03 	taddcc  %i0, %g3, %g1
    1c14:	83 06 00 04 	taddcc  %i0, %g4, %g1
    1c18:	83 06 00 05 	taddcc  %i0, %g5, %g1
    1c1c:	83 06 00 06 	taddcc  %i0, %g6, %g1
    1c20:	83 06 00 07 	taddcc  %i0, %g7, %g1
    1c24:	83 06 00 08 	taddcc  %i0, %o0, %g1
    1c28:	83 06 00 09 	taddcc  %i0, %o1, %g1
    1c2c:	83 06 00 0a 	taddcc  %i0, %o2, %g1
    1c30:	83 06 00 0b 	taddcc  %i0, %o3, %g1
    1c34:	83 06 00 0c 	taddcc  %i0, %o4, %g1
    1c38:	83 06 00 0d 	taddcc  %i0, %o5, %g1
    1c3c:	83 06 00 0e 	taddcc  %i0, %sp, %g1
    1c40:	83 06 00 0f 	taddcc  %i0, %o7, %g1
    1c44:	83 06 00 10 	taddcc  %i0, %l0, %g1
    1c48:	83 06 00 11 	taddcc  %i0, %l1, %g1
    1c4c:	83 06 00 12 	taddcc  %i0, %l2, %g1
    1c50:	83 06 00 13 	taddcc  %i0, %l3, %g1
    1c54:	83 06 00 14 	taddcc  %i0, %l4, %g1
    1c58:	83 06 00 15 	taddcc  %i0, %l5, %g1
    1c5c:	83 06 00 16 	taddcc  %i0, %l6, %g1
    1c60:	83 06 00 17 	taddcc  %i0, %l7, %g1
    1c64:	83 06 00 18 	taddcc  %i0, %i0, %g1
    1c68:	83 06 00 19 	taddcc  %i0, %i1, %g1
    1c6c:	83 06 00 1a 	taddcc  %i0, %i2, %g1
    1c70:	83 06 00 1b 	taddcc  %i0, %i3, %g1
    1c74:	83 06 00 1c 	taddcc  %i0, %i4, %g1
    1c78:	83 06 00 1d 	taddcc  %i0, %i5, %g1
    1c7c:	83 06 00 1e 	taddcc  %i0, %fp, %g1
    1c80:	83 06 00 1f 	taddcc  %i0, %i7, %g1
    1c84:	83 06 40 00 	taddcc  %i1, %g0, %g1
    1c88:	83 06 40 01 	taddcc  %i1, %g1, %g1
    1c8c:	83 06 40 02 	taddcc  %i1, %g2, %g1
    1c90:	83 06 40 03 	taddcc  %i1, %g3, %g1
    1c94:	83 06 40 04 	taddcc  %i1, %g4, %g1
    1c98:	83 06 40 05 	taddcc  %i1, %g5, %g1
    1c9c:	83 06 40 06 	taddcc  %i1, %g6, %g1
    1ca0:	83 06 40 07 	taddcc  %i1, %g7, %g1
    1ca4:	83 06 40 08 	taddcc  %i1, %o0, %g1
    1ca8:	83 06 40 09 	taddcc  %i1, %o1, %g1
    1cac:	83 06 40 0a 	taddcc  %i1, %o2, %g1
    1cb0:	83 06 40 0b 	taddcc  %i1, %o3, %g1
    1cb4:	83 06 40 0c 	taddcc  %i1, %o4, %g1
    1cb8:	83 06 40 0d 	taddcc  %i1, %o5, %g1
    1cbc:	83 06 40 0e 	taddcc  %i1, %sp, %g1
    1cc0:	83 06 40 0f 	taddcc  %i1, %o7, %g1
    1cc4:	83 06 40 10 	taddcc  %i1, %l0, %g1
    1cc8:	83 06 40 11 	taddcc  %i1, %l1, %g1
    1ccc:	83 06 40 12 	taddcc  %i1, %l2, %g1
    1cd0:	83 06 40 13 	taddcc  %i1, %l3, %g1
    1cd4:	83 06 40 14 	taddcc  %i1, %l4, %g1
    1cd8:	83 06 40 15 	taddcc  %i1, %l5, %g1
    1cdc:	83 06 40 16 	taddcc  %i1, %l6, %g1
    1ce0:	83 06 40 17 	taddcc  %i1, %l7, %g1
    1ce4:	83 06 40 18 	taddcc  %i1, %i0, %g1
    1ce8:	83 06 40 19 	taddcc  %i1, %i1, %g1
    1cec:	83 06 40 1a 	taddcc  %i1, %i2, %g1
    1cf0:	83 06 40 1b 	taddcc  %i1, %i3, %g1
    1cf4:	83 06 40 1c 	taddcc  %i1, %i4, %g1
    1cf8:	83 06 40 1d 	taddcc  %i1, %i5, %g1
    1cfc:	83 06 40 1e 	taddcc  %i1, %fp, %g1
    1d00:	83 06 40 1f 	taddcc  %i1, %i7, %g1
    1d04:	83 06 80 00 	taddcc  %i2, %g0, %g1
    1d08:	83 06 80 01 	taddcc  %i2, %g1, %g1
    1d0c:	83 06 80 02 	taddcc  %i2, %g2, %g1
    1d10:	83 06 80 03 	taddcc  %i2, %g3, %g1
    1d14:	83 06 80 04 	taddcc  %i2, %g4, %g1
    1d18:	83 06 80 05 	taddcc  %i2, %g5, %g1
    1d1c:	83 06 80 06 	taddcc  %i2, %g6, %g1
    1d20:	83 06 80 07 	taddcc  %i2, %g7, %g1
    1d24:	83 06 80 08 	taddcc  %i2, %o0, %g1
    1d28:	83 06 80 09 	taddcc  %i2, %o1, %g1
    1d2c:	83 06 80 0a 	taddcc  %i2, %o2, %g1
    1d30:	83 06 80 0b 	taddcc  %i2, %o3, %g1
    1d34:	83 06 80 0c 	taddcc  %i2, %o4, %g1
    1d38:	83 06 80 0d 	taddcc  %i2, %o5, %g1
    1d3c:	83 06 80 0e 	taddcc  %i2, %sp, %g1
    1d40:	83 06 80 0f 	taddcc  %i2, %o7, %g1
    1d44:	83 06 80 10 	taddcc  %i2, %l0, %g1
    1d48:	83 06 80 11 	taddcc  %i2, %l1, %g1
    1d4c:	83 06 80 12 	taddcc  %i2, %l2, %g1
    1d50:	83 06 80 13 	taddcc  %i2, %l3, %g1
    1d54:	83 06 80 14 	taddcc  %i2, %l4, %g1
    1d58:	83 06 80 15 	taddcc  %i2, %l5, %g1
    1d5c:	83 06 80 16 	taddcc  %i2, %l6, %g1
    1d60:	83 06 80 17 	taddcc  %i2, %l7, %g1
    1d64:	83 06 80 18 	taddcc  %i2, %i0, %g1
    1d68:	83 06 80 19 	taddcc  %i2, %i1, %g1
    1d6c:	83 06 80 1a 	taddcc  %i2, %i2, %g1
    1d70:	83 06 80 1b 	taddcc  %i2, %i3, %g1
    1d74:	83 06 80 1c 	taddcc  %i2, %i4, %g1
    1d78:	83 06 80 1d 	taddcc  %i2, %i5, %g1
    1d7c:	83 06 80 1e 	taddcc  %i2, %fp, %g1
    1d80:	83 06 80 1f 	taddcc  %i2, %i7, %g1
    1d84:	83 06 c0 00 	taddcc  %i3, %g0, %g1
    1d88:	83 06 c0 01 	taddcc  %i3, %g1, %g1
    1d8c:	83 06 c0 02 	taddcc  %i3, %g2, %g1
    1d90:	83 06 c0 03 	taddcc  %i3, %g3, %g1
    1d94:	83 06 c0 04 	taddcc  %i3, %g4, %g1
    1d98:	83 06 c0 05 	taddcc  %i3, %g5, %g1
    1d9c:	83 06 c0 06 	taddcc  %i3, %g6, %g1
    1da0:	83 06 c0 07 	taddcc  %i3, %g7, %g1
    1da4:	83 06 c0 08 	taddcc  %i3, %o0, %g1
    1da8:	83 06 c0 09 	taddcc  %i3, %o1, %g1
    1dac:	83 06 c0 0a 	taddcc  %i3, %o2, %g1
    1db0:	83 06 c0 0b 	taddcc  %i3, %o3, %g1
    1db4:	83 06 c0 0c 	taddcc  %i3, %o4, %g1
    1db8:	83 06 c0 0d 	taddcc  %i3, %o5, %g1
    1dbc:	83 06 c0 0e 	taddcc  %i3, %sp, %g1
    1dc0:	83 06 c0 0f 	taddcc  %i3, %o7, %g1
    1dc4:	83 06 c0 10 	taddcc  %i3, %l0, %g1
    1dc8:	83 06 c0 11 	taddcc  %i3, %l1, %g1
    1dcc:	83 06 c0 12 	taddcc  %i3, %l2, %g1
    1dd0:	83 06 c0 13 	taddcc  %i3, %l3, %g1
    1dd4:	83 06 c0 14 	taddcc  %i3, %l4, %g1
    1dd8:	83 06 c0 15 	taddcc  %i3, %l5, %g1
    1ddc:	83 06 c0 16 	taddcc  %i3, %l6, %g1
    1de0:	83 06 c0 17 	taddcc  %i3, %l7, %g1
    1de4:	83 06 c0 18 	taddcc  %i3, %i0, %g1
    1de8:	83 06 c0 19 	taddcc  %i3, %i1, %g1
    1dec:	83 06 c0 1a 	taddcc  %i3, %i2, %g1
    1df0:	83 06 c0 1b 	taddcc  %i3, %i3, %g1
    1df4:	83 06 c0 1c 	taddcc  %i3, %i4, %g1
    1df8:	83 06 c0 1d 	taddcc  %i3, %i5, %g1
    1dfc:	83 06 c0 1e 	taddcc  %i3, %fp, %g1
    1e00:	83 06 c0 1f 	taddcc  %i3, %i7, %g1
    1e04:	83 07 00 00 	taddcc  %i4, %g0, %g1
    1e08:	83 07 00 01 	taddcc  %i4, %g1, %g1
    1e0c:	83 07 00 02 	taddcc  %i4, %g2, %g1
    1e10:	83 07 00 03 	taddcc  %i4, %g3, %g1
    1e14:	83 07 00 04 	taddcc  %i4, %g4, %g1
    1e18:	83 07 00 05 	taddcc  %i4, %g5, %g1
    1e1c:	83 07 00 06 	taddcc  %i4, %g6, %g1
    1e20:	83 07 00 07 	taddcc  %i4, %g7, %g1
    1e24:	83 07 00 08 	taddcc  %i4, %o0, %g1
    1e28:	83 07 00 09 	taddcc  %i4, %o1, %g1
    1e2c:	83 07 00 0a 	taddcc  %i4, %o2, %g1
    1e30:	83 07 00 0b 	taddcc  %i4, %o3, %g1
    1e34:	83 07 00 0c 	taddcc  %i4, %o4, %g1
    1e38:	83 07 00 0d 	taddcc  %i4, %o5, %g1
    1e3c:	83 07 00 0e 	taddcc  %i4, %sp, %g1
    1e40:	83 07 00 0f 	taddcc  %i4, %o7, %g1
    1e44:	83 07 00 10 	taddcc  %i4, %l0, %g1
    1e48:	83 07 00 11 	taddcc  %i4, %l1, %g1
    1e4c:	83 07 00 12 	taddcc  %i4, %l2, %g1
    1e50:	83 07 00 13 	taddcc  %i4, %l3, %g1
    1e54:	83 07 00 14 	taddcc  %i4, %l4, %g1
    1e58:	83 07 00 15 	taddcc  %i4, %l5, %g1
    1e5c:	83 07 00 16 	taddcc  %i4, %l6, %g1
    1e60:	83 07 00 17 	taddcc  %i4, %l7, %g1
    1e64:	83 07 00 18 	taddcc  %i4, %i0, %g1
    1e68:	83 07 00 19 	taddcc  %i4, %i1, %g1
    1e6c:	83 07 00 1a 	taddcc  %i4, %i2, %g1
    1e70:	83 07 00 1b 	taddcc  %i4, %i3, %g1
    1e74:	83 07 00 1c 	taddcc  %i4, %i4, %g1
    1e78:	83 07 00 1d 	taddcc  %i4, %i5, %g1
    1e7c:	83 07 00 1e 	taddcc  %i4, %fp, %g1
    1e80:	83 07 00 1f 	taddcc  %i4, %i7, %g1
    1e84:	83 07 40 00 	taddcc  %i5, %g0, %g1
    1e88:	83 07 40 01 	taddcc  %i5, %g1, %g1
    1e8c:	83 07 40 02 	taddcc  %i5, %g2, %g1
    1e90:	83 07 40 03 	taddcc  %i5, %g3, %g1
    1e94:	83 07 40 04 	taddcc  %i5, %g4, %g1
    1e98:	83 07 40 05 	taddcc  %i5, %g5, %g1
    1e9c:	83 07 40 06 	taddcc  %i5, %g6, %g1
    1ea0:	83 07 40 07 	taddcc  %i5, %g7, %g1
    1ea4:	83 07 40 08 	taddcc  %i5, %o0, %g1
    1ea8:	83 07 40 09 	taddcc  %i5, %o1, %g1
    1eac:	83 07 40 0a 	taddcc  %i5, %o2, %g1
    1eb0:	83 07 40 0b 	taddcc  %i5, %o3, %g1
    1eb4:	83 07 40 0c 	taddcc  %i5, %o4, %g1
    1eb8:	83 07 40 0d 	taddcc  %i5, %o5, %g1
    1ebc:	83 07 40 0e 	taddcc  %i5, %sp, %g1
    1ec0:	83 07 40 0f 	taddcc  %i5, %o7, %g1
    1ec4:	83 07 40 10 	taddcc  %i5, %l0, %g1
    1ec8:	83 07 40 11 	taddcc  %i5, %l1, %g1
    1ecc:	83 07 40 12 	taddcc  %i5, %l2, %g1
    1ed0:	83 07 40 13 	taddcc  %i5, %l3, %g1
    1ed4:	83 07 40 14 	taddcc  %i5, %l4, %g1
    1ed8:	83 07 40 15 	taddcc  %i5, %l5, %g1
    1edc:	83 07 40 16 	taddcc  %i5, %l6, %g1
    1ee0:	83 07 40 17 	taddcc  %i5, %l7, %g1
    1ee4:	83 07 40 18 	taddcc  %i5, %i0, %g1
    1ee8:	83 07 40 19 	taddcc  %i5, %i1, %g1
    1eec:	83 07 40 1a 	taddcc  %i5, %i2, %g1
    1ef0:	83 07 40 1b 	taddcc  %i5, %i3, %g1
    1ef4:	83 07 40 1c 	taddcc  %i5, %i4, %g1
    1ef8:	83 07 40 1d 	taddcc  %i5, %i5, %g1
    1efc:	83 07 40 1e 	taddcc  %i5, %fp, %g1
    1f00:	83 07 40 1f 	taddcc  %i5, %i7, %g1
    1f04:	83 07 80 00 	taddcc  %fp, %g0, %g1
    1f08:	83 07 80 01 	taddcc  %fp, %g1, %g1
    1f0c:	83 07 80 02 	taddcc  %fp, %g2, %g1
    1f10:	83 07 80 03 	taddcc  %fp, %g3, %g1
    1f14:	83 07 80 04 	taddcc  %fp, %g4, %g1
    1f18:	83 07 80 05 	taddcc  %fp, %g5, %g1
    1f1c:	83 07 80 06 	taddcc  %fp, %g6, %g1
    1f20:	83 07 80 07 	taddcc  %fp, %g7, %g1
    1f24:	83 07 80 08 	taddcc  %fp, %o0, %g1
    1f28:	83 07 80 09 	taddcc  %fp, %o1, %g1
    1f2c:	83 07 80 0a 	taddcc  %fp, %o2, %g1
    1f30:	83 07 80 0b 	taddcc  %fp, %o3, %g1
    1f34:	83 07 80 0c 	taddcc  %fp, %o4, %g1
    1f38:	83 07 80 0d 	taddcc  %fp, %o5, %g1
    1f3c:	83 07 80 0e 	taddcc  %fp, %sp, %g1
    1f40:	83 07 80 0f 	taddcc  %fp, %o7, %g1
    1f44:	83 07 80 10 	taddcc  %fp, %l0, %g1
    1f48:	83 07 80 11 	taddcc  %fp, %l1, %g1
    1f4c:	83 07 80 12 	taddcc  %fp, %l2, %g1
    1f50:	83 07 80 13 	taddcc  %fp, %l3, %g1
    1f54:	83 07 80 14 	taddcc  %fp, %l4, %g1
    1f58:	83 07 80 15 	taddcc  %fp, %l5, %g1
    1f5c:	83 07 80 16 	taddcc  %fp, %l6, %g1
    1f60:	83 07 80 17 	taddcc  %fp, %l7, %g1
    1f64:	83 07 80 18 	taddcc  %fp, %i0, %g1
    1f68:	83 07 80 19 	taddcc  %fp, %i1, %g1
    1f6c:	83 07 80 1a 	taddcc  %fp, %i2, %g1
    1f70:	83 07 80 1b 	taddcc  %fp, %i3, %g1
    1f74:	83 07 80 1c 	taddcc  %fp, %i4, %g1
    1f78:	83 07 80 1d 	taddcc  %fp, %i5, %g1
    1f7c:	83 07 80 1e 	taddcc  %fp, %fp, %g1
    1f80:	83 07 80 1f 	taddcc  %fp, %i7, %g1
    1f84:	83 07 c0 00 	taddcc  %i7, %g0, %g1
    1f88:	83 07 c0 01 	taddcc  %i7, %g1, %g1
    1f8c:	83 07 c0 02 	taddcc  %i7, %g2, %g1
    1f90:	83 07 c0 03 	taddcc  %i7, %g3, %g1
    1f94:	83 07 c0 04 	taddcc  %i7, %g4, %g1
    1f98:	83 07 c0 05 	taddcc  %i7, %g5, %g1
    1f9c:	83 07 c0 06 	taddcc  %i7, %g6, %g1
    1fa0:	83 07 c0 07 	taddcc  %i7, %g7, %g1
    1fa4:	83 07 c0 08 	taddcc  %i7, %o0, %g1
    1fa8:	83 07 c0 09 	taddcc  %i7, %o1, %g1
    1fac:	83 07 c0 0a 	taddcc  %i7, %o2, %g1
    1fb0:	83 07 c0 0b 	taddcc  %i7, %o3, %g1
    1fb4:	83 07 c0 0c 	taddcc  %i7, %o4, %g1
    1fb8:	83 07 c0 0d 	taddcc  %i7, %o5, %g1
    1fbc:	83 07 c0 0e 	taddcc  %i7, %sp, %g1
    1fc0:	83 07 c0 0f 	taddcc  %i7, %o7, %g1
    1fc4:	83 07 c0 10 	taddcc  %i7, %l0, %g1
    1fc8:	83 07 c0 11 	taddcc  %i7, %l1, %g1
    1fcc:	83 07 c0 12 	taddcc  %i7, %l2, %g1
    1fd0:	83 07 c0 13 	taddcc  %i7, %l3, %g1
    1fd4:	83 07 c0 14 	taddcc  %i7, %l4, %g1
    1fd8:	83 07 c0 15 	taddcc  %i7, %l5, %g1
    1fdc:	83 07 c0 16 	taddcc  %i7, %l6, %g1
    1fe0:	83 07 c0 17 	taddcc  %i7, %l7, %g1
    1fe4:	83 07 c0 18 	taddcc  %i7, %i0, %g1
    1fe8:	83 07 c0 19 	taddcc  %i7, %i1, %g1
    1fec:	83 07 c0 1a 	taddcc  %i7, %i2, %g1
    1ff0:	83 07 c0 1b 	taddcc  %i7, %i3, %g1
    1ff4:	83 07 c0 1c 	taddcc  %i7, %i4, %g1
    1ff8:	83 07 c0 1d 	taddcc  %i7, %i5, %g1
    1ffc:	83 07 c0 1e 	taddcc  %i7, %fp, %g1
    2000:	83 07 c0 1f 	taddcc  %i7, %i7, %g1
    2004:	85 00 00 00 	taddcc  %g0, %g0, %g2
    2008:	85 00 00 01 	taddcc  %g0, %g1, %g2
    200c:	85 00 00 02 	taddcc  %g0, %g2, %g2
    2010:	85 00 00 03 	taddcc  %g0, %g3, %g2
    2014:	85 00 00 04 	taddcc  %g0, %g4, %g2
    2018:	85 00 00 05 	taddcc  %g0, %g5, %g2
    201c:	85 00 00 06 	taddcc  %g0, %g6, %g2
    2020:	85 00 00 07 	taddcc  %g0, %g7, %g2
    2024:	85 00 00 08 	taddcc  %g0, %o0, %g2
    2028:	85 00 00 09 	taddcc  %g0, %o1, %g2
    202c:	85 00 00 0a 	taddcc  %g0, %o2, %g2
    2030:	85 00 00 0b 	taddcc  %g0, %o3, %g2
    2034:	85 00 00 0c 	taddcc  %g0, %o4, %g2
    2038:	85 00 00 0d 	taddcc  %g0, %o5, %g2
    203c:	85 00 00 0e 	taddcc  %g0, %sp, %g2
    2040:	85 00 00 0f 	taddcc  %g0, %o7, %g2
    2044:	85 00 00 10 	taddcc  %g0, %l0, %g2
    2048:	85 00 00 11 	taddcc  %g0, %l1, %g2
    204c:	85 00 00 12 	taddcc  %g0, %l2, %g2
    2050:	85 00 00 13 	taddcc  %g0, %l3, %g2
    2054:	85 00 00 14 	taddcc  %g0, %l4, %g2
    2058:	85 00 00 15 	taddcc  %g0, %l5, %g2
    205c:	85 00 00 16 	taddcc  %g0, %l6, %g2
    2060:	85 00 00 17 	taddcc  %g0, %l7, %g2
    2064:	85 00 00 18 	taddcc  %g0, %i0, %g2
    2068:	85 00 00 19 	taddcc  %g0, %i1, %g2
    206c:	85 00 00 1a 	taddcc  %g0, %i2, %g2
    2070:	85 00 00 1b 	taddcc  %g0, %i3, %g2
    2074:	85 00 00 1c 	taddcc  %g0, %i4, %g2
    2078:	85 00 00 1d 	taddcc  %g0, %i5, %g2
    207c:	85 00 00 1e 	taddcc  %g0, %fp, %g2
    2080:	85 00 00 1f 	taddcc  %g0, %i7, %g2
    2084:	85 00 40 00 	taddcc  %g1, %g0, %g2
    2088:	85 00 40 01 	taddcc  %g1, %g1, %g2
    208c:	85 00 40 02 	taddcc  %g1, %g2, %g2
    2090:	85 00 40 03 	taddcc  %g1, %g3, %g2
    2094:	85 00 40 04 	taddcc  %g1, %g4, %g2
    2098:	85 00 40 05 	taddcc  %g1, %g5, %g2
    209c:	85 00 40 06 	taddcc  %g1, %g6, %g2
    20a0:	85 00 40 07 	taddcc  %g1, %g7, %g2
    20a4:	85 00 40 08 	taddcc  %g1, %o0, %g2
    20a8:	85 00 40 09 	taddcc  %g1, %o1, %g2
    20ac:	85 00 40 0a 	taddcc  %g1, %o2, %g2
    20b0:	85 00 40 0b 	taddcc  %g1, %o3, %g2
    20b4:	85 00 40 0c 	taddcc  %g1, %o4, %g2
    20b8:	85 00 40 0d 	taddcc  %g1, %o5, %g2
    20bc:	85 00 40 0e 	taddcc  %g1, %sp, %g2
    20c0:	85 00 40 0f 	taddcc  %g1, %o7, %g2
    20c4:	85 00 40 10 	taddcc  %g1, %l0, %g2
    20c8:	85 00 40 11 	taddcc  %g1, %l1, %g2
    20cc:	85 00 40 12 	taddcc  %g1, %l2, %g2
    20d0:	85 00 40 13 	taddcc  %g1, %l3, %g2
    20d4:	85 00 40 14 	taddcc  %g1, %l4, %g2
    20d8:	85 00 40 15 	taddcc  %g1, %l5, %g2
    20dc:	85 00 40 16 	taddcc  %g1, %l6, %g2
    20e0:	85 00 40 17 	taddcc  %g1, %l7, %g2
    20e4:	85 00 40 18 	taddcc  %g1, %i0, %g2
    20e8:	85 00 40 19 	taddcc  %g1, %i1, %g2
    20ec:	85 00 40 1a 	taddcc  %g1, %i2, %g2
    20f0:	85 00 40 1b 	taddcc  %g1, %i3, %g2
    20f4:	85 00 40 1c 	taddcc  %g1, %i4, %g2
    20f8:	85 00 40 1d 	taddcc  %g1, %i5, %g2
    20fc:	85 00 40 1e 	taddcc  %g1, %fp, %g2
    2100:	85 00 40 1f 	taddcc  %g1, %i7, %g2
    2104:	85 00 80 00 	taddcc  %g2, %g0, %g2
    2108:	85 00 80 01 	taddcc  %g2, %g1, %g2
    210c:	85 00 80 02 	taddcc  %g2, %g2, %g2
    2110:	85 00 80 03 	taddcc  %g2, %g3, %g2
    2114:	85 00 80 04 	taddcc  %g2, %g4, %g2
    2118:	85 00 80 05 	taddcc  %g2, %g5, %g2
    211c:	85 00 80 06 	taddcc  %g2, %g6, %g2
    2120:	85 00 80 07 	taddcc  %g2, %g7, %g2
    2124:	85 00 80 08 	taddcc  %g2, %o0, %g2
    2128:	85 00 80 09 	taddcc  %g2, %o1, %g2
    212c:	85 00 80 0a 	taddcc  %g2, %o2, %g2
    2130:	85 00 80 0b 	taddcc  %g2, %o3, %g2
    2134:	85 00 80 0c 	taddcc  %g2, %o4, %g2
    2138:	85 00 80 0d 	taddcc  %g2, %o5, %g2
    213c:	85 00 80 0e 	taddcc  %g2, %sp, %g2
    2140:	85 00 80 0f 	taddcc  %g2, %o7, %g2
    2144:	85 00 80 10 	taddcc  %g2, %l0, %g2
    2148:	85 00 80 11 	taddcc  %g2, %l1, %g2
    214c:	85 00 80 12 	taddcc  %g2, %l2, %g2
    2150:	85 00 80 13 	taddcc  %g2, %l3, %g2
    2154:	85 00 80 14 	taddcc  %g2, %l4, %g2
    2158:	85 00 80 15 	taddcc  %g2, %l5, %g2
    215c:	85 00 80 16 	taddcc  %g2, %l6, %g2
    2160:	85 00 80 17 	taddcc  %g2, %l7, %g2
    2164:	85 00 80 18 	taddcc  %g2, %i0, %g2
    2168:	85 00 80 19 	taddcc  %g2, %i1, %g2
    216c:	85 00 80 1a 	taddcc  %g2, %i2, %g2
    2170:	85 00 80 1b 	taddcc  %g2, %i3, %g2
    2174:	85 00 80 1c 	taddcc  %g2, %i4, %g2
    2178:	85 00 80 1d 	taddcc  %g2, %i5, %g2
    217c:	85 00 80 1e 	taddcc  %g2, %fp, %g2
    2180:	85 00 80 1f 	taddcc  %g2, %i7, %g2
    2184:	85 00 c0 00 	taddcc  %g3, %g0, %g2
    2188:	85 00 c0 01 	taddcc  %g3, %g1, %g2
    218c:	85 00 c0 02 	taddcc  %g3, %g2, %g2
    2190:	85 00 c0 03 	taddcc  %g3, %g3, %g2
    2194:	85 00 c0 04 	taddcc  %g3, %g4, %g2
    2198:	85 00 c0 05 	taddcc  %g3, %g5, %g2
    219c:	85 00 c0 06 	taddcc  %g3, %g6, %g2
    21a0:	85 00 c0 07 	taddcc  %g3, %g7, %g2
    21a4:	85 00 c0 08 	taddcc  %g3, %o0, %g2
    21a8:	85 00 c0 09 	taddcc  %g3, %o1, %g2
    21ac:	85 00 c0 0a 	taddcc  %g3, %o2, %g2
    21b0:	85 00 c0 0b 	taddcc  %g3, %o3, %g2
    21b4:	85 00 c0 0c 	taddcc  %g3, %o4, %g2
    21b8:	85 00 c0 0d 	taddcc  %g3, %o5, %g2
    21bc:	85 00 c0 0e 	taddcc  %g3, %sp, %g2
    21c0:	85 00 c0 0f 	taddcc  %g3, %o7, %g2
    21c4:	85 00 c0 10 	taddcc  %g3, %l0, %g2
    21c8:	85 00 c0 11 	taddcc  %g3, %l1, %g2
    21cc:	85 00 c0 12 	taddcc  %g3, %l2, %g2
    21d0:	85 00 c0 13 	taddcc  %g3, %l3, %g2
    21d4:	85 00 c0 14 	taddcc  %g3, %l4, %g2
    21d8:	85 00 c0 15 	taddcc  %g3, %l5, %g2
    21dc:	85 00 c0 16 	taddcc  %g3, %l6, %g2
    21e0:	85 00 c0 17 	taddcc  %g3, %l7, %g2
    21e4:	85 00 c0 18 	taddcc  %g3, %i0, %g2
    21e8:	85 00 c0 19 	taddcc  %g3, %i1, %g2
    21ec:	85 00 c0 1a 	taddcc  %g3, %i2, %g2
    21f0:	85 00 c0 1b 	taddcc  %g3, %i3, %g2
    21f4:	85 00 c0 1c 	taddcc  %g3, %i4, %g2
    21f8:	85 00 c0 1d 	taddcc  %g3, %i5, %g2
    21fc:	85 00 c0 1e 	taddcc  %g3, %fp, %g2
    2200:	85 00 c0 1f 	taddcc  %g3, %i7, %g2
    2204:	85 01 00 00 	taddcc  %g4, %g0, %g2
    2208:	85 01 00 01 	taddcc  %g4, %g1, %g2
    220c:	85 01 00 02 	taddcc  %g4, %g2, %g2
    2210:	85 01 00 03 	taddcc  %g4, %g3, %g2
    2214:	85 01 00 04 	taddcc  %g4, %g4, %g2
    2218:	85 01 00 05 	taddcc  %g4, %g5, %g2
    221c:	85 01 00 06 	taddcc  %g4, %g6, %g2
    2220:	85 01 00 07 	taddcc  %g4, %g7, %g2
    2224:	85 01 00 08 	taddcc  %g4, %o0, %g2
    2228:	85 01 00 09 	taddcc  %g4, %o1, %g2
    222c:	85 01 00 0a 	taddcc  %g4, %o2, %g2
    2230:	85 01 00 0b 	taddcc  %g4, %o3, %g2
    2234:	85 01 00 0c 	taddcc  %g4, %o4, %g2
    2238:	85 01 00 0d 	taddcc  %g4, %o5, %g2
    223c:	85 01 00 0e 	taddcc  %g4, %sp, %g2
    2240:	85 01 00 0f 	taddcc  %g4, %o7, %g2
    2244:	85 01 00 10 	taddcc  %g4, %l0, %g2
    2248:	85 01 00 11 	taddcc  %g4, %l1, %g2
    224c:	85 01 00 12 	taddcc  %g4, %l2, %g2
    2250:	85 01 00 13 	taddcc  %g4, %l3, %g2
    2254:	85 01 00 14 	taddcc  %g4, %l4, %g2
    2258:	85 01 00 15 	taddcc  %g4, %l5, %g2
    225c:	85 01 00 16 	taddcc  %g4, %l6, %g2
    2260:	85 01 00 17 	taddcc  %g4, %l7, %g2
    2264:	85 01 00 18 	taddcc  %g4, %i0, %g2
    2268:	85 01 00 19 	taddcc  %g4, %i1, %g2
    226c:	85 01 00 1a 	taddcc  %g4, %i2, %g2
    2270:	85 01 00 1b 	taddcc  %g4, %i3, %g2
    2274:	85 01 00 1c 	taddcc  %g4, %i4, %g2
    2278:	85 01 00 1d 	taddcc  %g4, %i5, %g2
    227c:	85 01 00 1e 	taddcc  %g4, %fp, %g2
    2280:	85 01 00 1f 	taddcc  %g4, %i7, %g2
    2284:	85 01 40 00 	taddcc  %g5, %g0, %g2
    2288:	85 01 40 01 	taddcc  %g5, %g1, %g2
    228c:	85 01 40 02 	taddcc  %g5, %g2, %g2
    2290:	85 01 40 03 	taddcc  %g5, %g3, %g2
    2294:	85 01 40 04 	taddcc  %g5, %g4, %g2
    2298:	85 01 40 05 	taddcc  %g5, %g5, %g2
    229c:	85 01 40 06 	taddcc  %g5, %g6, %g2
    22a0:	85 01 40 07 	taddcc  %g5, %g7, %g2
    22a4:	85 01 40 08 	taddcc  %g5, %o0, %g2
    22a8:	85 01 40 09 	taddcc  %g5, %o1, %g2
    22ac:	85 01 40 0a 	taddcc  %g5, %o2, %g2
    22b0:	85 01 40 0b 	taddcc  %g5, %o3, %g2
    22b4:	85 01 40 0c 	taddcc  %g5, %o4, %g2
    22b8:	85 01 40 0d 	taddcc  %g5, %o5, %g2
    22bc:	85 01 40 0e 	taddcc  %g5, %sp, %g2
    22c0:	85 01 40 0f 	taddcc  %g5, %o7, %g2
    22c4:	85 01 40 10 	taddcc  %g5, %l0, %g2
    22c8:	85 01 40 11 	taddcc  %g5, %l1, %g2
    22cc:	85 01 40 12 	taddcc  %g5, %l2, %g2
    22d0:	85 01 40 13 	taddcc  %g5, %l3, %g2
    22d4:	85 01 40 14 	taddcc  %g5, %l4, %g2
    22d8:	85 01 40 15 	taddcc  %g5, %l5, %g2
    22dc:	85 01 40 16 	taddcc  %g5, %l6, %g2
    22e0:	85 01 40 17 	taddcc  %g5, %l7, %g2
    22e4:	85 01 40 18 	taddcc  %g5, %i0, %g2
    22e8:	85 01 40 19 	taddcc  %g5, %i1, %g2
    22ec:	85 01 40 1a 	taddcc  %g5, %i2, %g2
    22f0:	85 01 40 1b 	taddcc  %g5, %i3, %g2
    22f4:	85 01 40 1c 	taddcc  %g5, %i4, %g2
    22f8:	85 01 40 1d 	taddcc  %g5, %i5, %g2
    22fc:	85 01 40 1e 	taddcc  %g5, %fp, %g2
    2300:	85 01 40 1f 	taddcc  %g5, %i7, %g2
    2304:	85 01 80 00 	taddcc  %g6, %g0, %g2
    2308:	85 01 80 01 	taddcc  %g6, %g1, %g2
    230c:	85 01 80 02 	taddcc  %g6, %g2, %g2
    2310:	85 01 80 03 	taddcc  %g6, %g3, %g2
    2314:	85 01 80 04 	taddcc  %g6, %g4, %g2
    2318:	85 01 80 05 	taddcc  %g6, %g5, %g2
    231c:	85 01 80 06 	taddcc  %g6, %g6, %g2
    2320:	85 01 80 07 	taddcc  %g6, %g7, %g2
    2324:	85 01 80 08 	taddcc  %g6, %o0, %g2
    2328:	85 01 80 09 	taddcc  %g6, %o1, %g2
    232c:	85 01 80 0a 	taddcc  %g6, %o2, %g2
    2330:	85 01 80 0b 	taddcc  %g6, %o3, %g2
    2334:	85 01 80 0c 	taddcc  %g6, %o4, %g2
    2338:	85 01 80 0d 	taddcc  %g6, %o5, %g2
    233c:	85 01 80 0e 	taddcc  %g6, %sp, %g2
    2340:	85 01 80 0f 	taddcc  %g6, %o7, %g2
    2344:	85 01 80 10 	taddcc  %g6, %l0, %g2
    2348:	85 01 80 11 	taddcc  %g6, %l1, %g2
    234c:	85 01 80 12 	taddcc  %g6, %l2, %g2
    2350:	85 01 80 13 	taddcc  %g6, %l3, %g2
    2354:	85 01 80 14 	taddcc  %g6, %l4, %g2
    2358:	85 01 80 15 	taddcc  %g6, %l5, %g2
    235c:	85 01 80 16 	taddcc  %g6, %l6, %g2
    2360:	85 01 80 17 	taddcc  %g6, %l7, %g2
    2364:	85 01 80 18 	taddcc  %g6, %i0, %g2
    2368:	85 01 80 19 	taddcc  %g6, %i1, %g2
    236c:	85 01 80 1a 	taddcc  %g6, %i2, %g2
    2370:	85 01 80 1b 	taddcc  %g6, %i3, %g2
    2374:	85 01 80 1c 	taddcc  %g6, %i4, %g2
    2378:	85 01 80 1d 	taddcc  %g6, %i5, %g2
    237c:	85 01 80 1e 	taddcc  %g6, %fp, %g2
    2380:	85 01 80 1f 	taddcc  %g6, %i7, %g2
    2384:	85 01 c0 00 	taddcc  %g7, %g0, %g2
    2388:	85 01 c0 01 	taddcc  %g7, %g1, %g2
    238c:	85 01 c0 02 	taddcc  %g7, %g2, %g2
    2390:	85 01 c0 03 	taddcc  %g7, %g3, %g2
    2394:	85 01 c0 04 	taddcc  %g7, %g4, %g2
    2398:	85 01 c0 05 	taddcc  %g7, %g5, %g2
    239c:	85 01 c0 06 	taddcc  %g7, %g6, %g2
    23a0:	85 01 c0 07 	taddcc  %g7, %g7, %g2
    23a4:	85 01 c0 08 	taddcc  %g7, %o0, %g2
    23a8:	85 01 c0 09 	taddcc  %g7, %o1, %g2
    23ac:	85 01 c0 0a 	taddcc  %g7, %o2, %g2
    23b0:	85 01 c0 0b 	taddcc  %g7, %o3, %g2
    23b4:	85 01 c0 0c 	taddcc  %g7, %o4, %g2
    23b8:	85 01 c0 0d 	taddcc  %g7, %o5, %g2
    23bc:	85 01 c0 0e 	taddcc  %g7, %sp, %g2
    23c0:	85 01 c0 0f 	taddcc  %g7, %o7, %g2
    23c4:	85 01 c0 10 	taddcc  %g7, %l0, %g2
    23c8:	85 01 c0 11 	taddcc  %g7, %l1, %g2
    23cc:	85 01 c0 12 	taddcc  %g7, %l2, %g2
    23d0:	85 01 c0 13 	taddcc  %g7, %l3, %g2
    23d4:	85 01 c0 14 	taddcc  %g7, %l4, %g2
    23d8:	85 01 c0 15 	taddcc  %g7, %l5, %g2
    23dc:	85 01 c0 16 	taddcc  %g7, %l6, %g2
    23e0:	85 01 c0 17 	taddcc  %g7, %l7, %g2
    23e4:	85 01 c0 18 	taddcc  %g7, %i0, %g2
    23e8:	85 01 c0 19 	taddcc  %g7, %i1, %g2
    23ec:	85 01 c0 1a 	taddcc  %g7, %i2, %g2
    23f0:	85 01 c0 1b 	taddcc  %g7, %i3, %g2
    23f4:	85 01 c0 1c 	taddcc  %g7, %i4, %g2
    23f8:	85 01 c0 1d 	taddcc  %g7, %i5, %g2
    23fc:	85 01 c0 1e 	taddcc  %g7, %fp, %g2
    2400:	85 01 c0 1f 	taddcc  %g7, %i7, %g2
    2404:	85 02 00 00 	taddcc  %o0, %g0, %g2
    2408:	85 02 00 01 	taddcc  %o0, %g1, %g2
    240c:	85 02 00 02 	taddcc  %o0, %g2, %g2
    2410:	85 02 00 03 	taddcc  %o0, %g3, %g2
    2414:	85 02 00 04 	taddcc  %o0, %g4, %g2
    2418:	85 02 00 05 	taddcc  %o0, %g5, %g2
    241c:	85 02 00 06 	taddcc  %o0, %g6, %g2
    2420:	85 02 00 07 	taddcc  %o0, %g7, %g2
    2424:	85 02 00 08 	taddcc  %o0, %o0, %g2
    2428:	85 02 00 09 	taddcc  %o0, %o1, %g2
    242c:	85 02 00 0a 	taddcc  %o0, %o2, %g2
    2430:	85 02 00 0b 	taddcc  %o0, %o3, %g2
    2434:	85 02 00 0c 	taddcc  %o0, %o4, %g2
    2438:	85 02 00 0d 	taddcc  %o0, %o5, %g2
    243c:	85 02 00 0e 	taddcc  %o0, %sp, %g2
    2440:	85 02 00 0f 	taddcc  %o0, %o7, %g2
    2444:	85 02 00 10 	taddcc  %o0, %l0, %g2
    2448:	85 02 00 11 	taddcc  %o0, %l1, %g2
    244c:	85 02 00 12 	taddcc  %o0, %l2, %g2
    2450:	85 02 00 13 	taddcc  %o0, %l3, %g2
    2454:	85 02 00 14 	taddcc  %o0, %l4, %g2
    2458:	85 02 00 15 	taddcc  %o0, %l5, %g2
    245c:	85 02 00 16 	taddcc  %o0, %l6, %g2
    2460:	85 02 00 17 	taddcc  %o0, %l7, %g2
    2464:	85 02 00 18 	taddcc  %o0, %i0, %g2
    2468:	85 02 00 19 	taddcc  %o0, %i1, %g2
    246c:	85 02 00 1a 	taddcc  %o0, %i2, %g2
    2470:	85 02 00 1b 	taddcc  %o0, %i3, %g2
    2474:	85 02 00 1c 	taddcc  %o0, %i4, %g2
    2478:	85 02 00 1d 	taddcc  %o0, %i5, %g2
    247c:	85 02 00 1e 	taddcc  %o0, %fp, %g2
    2480:	85 02 00 1f 	taddcc  %o0, %i7, %g2
    2484:	85 02 40 00 	taddcc  %o1, %g0, %g2
    2488:	85 02 40 01 	taddcc  %o1, %g1, %g2
    248c:	85 02 40 02 	taddcc  %o1, %g2, %g2
    2490:	85 02 40 03 	taddcc  %o1, %g3, %g2
    2494:	85 02 40 04 	taddcc  %o1, %g4, %g2
    2498:	85 02 40 05 	taddcc  %o1, %g5, %g2
    249c:	85 02 40 06 	taddcc  %o1, %g6, %g2
    24a0:	85 02 40 07 	taddcc  %o1, %g7, %g2
    24a4:	85 02 40 08 	taddcc  %o1, %o0, %g2
    24a8:	85 02 40 09 	taddcc  %o1, %o1, %g2
    24ac:	85 02 40 0a 	taddcc  %o1, %o2, %g2
    24b0:	85 02 40 0b 	taddcc  %o1, %o3, %g2
    24b4:	85 02 40 0c 	taddcc  %o1, %o4, %g2
    24b8:	85 02 40 0d 	taddcc  %o1, %o5, %g2
    24bc:	85 02 40 0e 	taddcc  %o1, %sp, %g2
    24c0:	85 02 40 0f 	taddcc  %o1, %o7, %g2
    24c4:	85 02 40 10 	taddcc  %o1, %l0, %g2
    24c8:	85 02 40 11 	taddcc  %o1, %l1, %g2
    24cc:	85 02 40 12 	taddcc  %o1, %l2, %g2
    24d0:	85 02 40 13 	taddcc  %o1, %l3, %g2
    24d4:	85 02 40 14 	taddcc  %o1, %l4, %g2
    24d8:	85 02 40 15 	taddcc  %o1, %l5, %g2
    24dc:	85 02 40 16 	taddcc  %o1, %l6, %g2
    24e0:	85 02 40 17 	taddcc  %o1, %l7, %g2
    24e4:	85 02 40 18 	taddcc  %o1, %i0, %g2
    24e8:	85 02 40 19 	taddcc  %o1, %i1, %g2
    24ec:	85 02 40 1a 	taddcc  %o1, %i2, %g2
    24f0:	85 02 40 1b 	taddcc  %o1, %i3, %g2
    24f4:	85 02 40 1c 	taddcc  %o1, %i4, %g2
    24f8:	85 02 40 1d 	taddcc  %o1, %i5, %g2
    24fc:	85 02 40 1e 	taddcc  %o1, %fp, %g2
    2500:	85 02 40 1f 	taddcc  %o1, %i7, %g2
    2504:	85 02 80 00 	taddcc  %o2, %g0, %g2
    2508:	85 02 80 01 	taddcc  %o2, %g1, %g2
    250c:	85 02 80 02 	taddcc  %o2, %g2, %g2
    2510:	85 02 80 03 	taddcc  %o2, %g3, %g2
    2514:	85 02 80 04 	taddcc  %o2, %g4, %g2
    2518:	85 02 80 05 	taddcc  %o2, %g5, %g2
    251c:	85 02 80 06 	taddcc  %o2, %g6, %g2
    2520:	85 02 80 07 	taddcc  %o2, %g7, %g2
    2524:	85 02 80 08 	taddcc  %o2, %o0, %g2
    2528:	85 02 80 09 	taddcc  %o2, %o1, %g2
    252c:	85 02 80 0a 	taddcc  %o2, %o2, %g2
    2530:	85 02 80 0b 	taddcc  %o2, %o3, %g2
    2534:	85 02 80 0c 	taddcc  %o2, %o4, %g2
    2538:	85 02 80 0d 	taddcc  %o2, %o5, %g2
    253c:	85 02 80 0e 	taddcc  %o2, %sp, %g2
    2540:	85 02 80 0f 	taddcc  %o2, %o7, %g2
    2544:	85 02 80 10 	taddcc  %o2, %l0, %g2
    2548:	85 02 80 11 	taddcc  %o2, %l1, %g2
    254c:	85 02 80 12 	taddcc  %o2, %l2, %g2
    2550:	85 02 80 13 	taddcc  %o2, %l3, %g2
    2554:	85 02 80 14 	taddcc  %o2, %l4, %g2
    2558:	85 02 80 15 	taddcc  %o2, %l5, %g2
    255c:	85 02 80 16 	taddcc  %o2, %l6, %g2
    2560:	85 02 80 17 	taddcc  %o2, %l7, %g2
    2564:	85 02 80 18 	taddcc  %o2, %i0, %g2
    2568:	85 02 80 19 	taddcc  %o2, %i1, %g2
    256c:	85 02 80 1a 	taddcc  %o2, %i2, %g2
    2570:	85 02 80 1b 	taddcc  %o2, %i3, %g2
    2574:	85 02 80 1c 	taddcc  %o2, %i4, %g2
    2578:	85 02 80 1d 	taddcc  %o2, %i5, %g2
    257c:	85 02 80 1e 	taddcc  %o2, %fp, %g2
    2580:	85 02 80 1f 	taddcc  %o2, %i7, %g2
    2584:	85 02 c0 00 	taddcc  %o3, %g0, %g2
    2588:	85 02 c0 01 	taddcc  %o3, %g1, %g2
    258c:	85 02 c0 02 	taddcc  %o3, %g2, %g2
    2590:	85 02 c0 03 	taddcc  %o3, %g3, %g2
    2594:	85 02 c0 04 	taddcc  %o3, %g4, %g2
    2598:	85 02 c0 05 	taddcc  %o3, %g5, %g2
    259c:	85 02 c0 06 	taddcc  %o3, %g6, %g2
    25a0:	85 02 c0 07 	taddcc  %o3, %g7, %g2
    25a4:	85 02 c0 08 	taddcc  %o3, %o0, %g2
    25a8:	85 02 c0 09 	taddcc  %o3, %o1, %g2
    25ac:	85 02 c0 0a 	taddcc  %o3, %o2, %g2
    25b0:	85 02 c0 0b 	taddcc  %o3, %o3, %g2
    25b4:	85 02 c0 0c 	taddcc  %o3, %o4, %g2
    25b8:	85 02 c0 0d 	taddcc  %o3, %o5, %g2
    25bc:	85 02 c0 0e 	taddcc  %o3, %sp, %g2
    25c0:	85 02 c0 0f 	taddcc  %o3, %o7, %g2
    25c4:	85 02 c0 10 	taddcc  %o3, %l0, %g2
    25c8:	85 02 c0 11 	taddcc  %o3, %l1, %g2
    25cc:	85 02 c0 12 	taddcc  %o3, %l2, %g2
    25d0:	85 02 c0 13 	taddcc  %o3, %l3, %g2
    25d4:	85 02 c0 14 	taddcc  %o3, %l4, %g2
    25d8:	85 02 c0 15 	taddcc  %o3, %l5, %g2
    25dc:	85 02 c0 16 	taddcc  %o3, %l6, %g2
    25e0:	85 02 c0 17 	taddcc  %o3, %l7, %g2
    25e4:	85 02 c0 18 	taddcc  %o3, %i0, %g2
    25e8:	85 02 c0 19 	taddcc  %o3, %i1, %g2
    25ec:	85 02 c0 1a 	taddcc  %o3, %i2, %g2
    25f0:	85 02 c0 1b 	taddcc  %o3, %i3, %g2
    25f4:	85 02 c0 1c 	taddcc  %o3, %i4, %g2
    25f8:	85 02 c0 1d 	taddcc  %o3, %i5, %g2
    25fc:	85 02 c0 1e 	taddcc  %o3, %fp, %g2
    2600:	85 02 c0 1f 	taddcc  %o3, %i7, %g2
    2604:	85 03 00 00 	taddcc  %o4, %g0, %g2
    2608:	85 03 00 01 	taddcc  %o4, %g1, %g2
    260c:	85 03 00 02 	taddcc  %o4, %g2, %g2
    2610:	85 03 00 03 	taddcc  %o4, %g3, %g2
    2614:	85 03 00 04 	taddcc  %o4, %g4, %g2
    2618:	85 03 00 05 	taddcc  %o4, %g5, %g2
    261c:	85 03 00 06 	taddcc  %o4, %g6, %g2
    2620:	85 03 00 07 	taddcc  %o4, %g7, %g2
    2624:	85 03 00 08 	taddcc  %o4, %o0, %g2
    2628:	85 03 00 09 	taddcc  %o4, %o1, %g2
    262c:	85 03 00 0a 	taddcc  %o4, %o2, %g2
    2630:	85 03 00 0b 	taddcc  %o4, %o3, %g2
    2634:	85 03 00 0c 	taddcc  %o4, %o4, %g2
    2638:	85 03 00 0d 	taddcc  %o4, %o5, %g2
    263c:	85 03 00 0e 	taddcc  %o4, %sp, %g2
    2640:	85 03 00 0f 	taddcc  %o4, %o7, %g2
    2644:	85 03 00 10 	taddcc  %o4, %l0, %g2
    2648:	85 03 00 11 	taddcc  %o4, %l1, %g2
    264c:	85 03 00 12 	taddcc  %o4, %l2, %g2
    2650:	85 03 00 13 	taddcc  %o4, %l3, %g2
    2654:	85 03 00 14 	taddcc  %o4, %l4, %g2
    2658:	85 03 00 15 	taddcc  %o4, %l5, %g2
    265c:	85 03 00 16 	taddcc  %o4, %l6, %g2
    2660:	85 03 00 17 	taddcc  %o4, %l7, %g2
    2664:	85 03 00 18 	taddcc  %o4, %i0, %g2
    2668:	85 03 00 19 	taddcc  %o4, %i1, %g2
    266c:	85 03 00 1a 	taddcc  %o4, %i2, %g2
    2670:	85 03 00 1b 	taddcc  %o4, %i3, %g2
    2674:	85 03 00 1c 	taddcc  %o4, %i4, %g2
    2678:	85 03 00 1d 	taddcc  %o4, %i5, %g2
    267c:	85 03 00 1e 	taddcc  %o4, %fp, %g2
    2680:	85 03 00 1f 	taddcc  %o4, %i7, %g2
    2684:	85 03 40 00 	taddcc  %o5, %g0, %g2
    2688:	85 03 40 01 	taddcc  %o5, %g1, %g2
    268c:	85 03 40 02 	taddcc  %o5, %g2, %g2
    2690:	85 03 40 03 	taddcc  %o5, %g3, %g2
    2694:	85 03 40 04 	taddcc  %o5, %g4, %g2
    2698:	85 03 40 05 	taddcc  %o5, %g5, %g2
    269c:	85 03 40 06 	taddcc  %o5, %g6, %g2
    26a0:	85 03 40 07 	taddcc  %o5, %g7, %g2
    26a4:	85 03 40 08 	taddcc  %o5, %o0, %g2
    26a8:	85 03 40 09 	taddcc  %o5, %o1, %g2
    26ac:	85 03 40 0a 	taddcc  %o5, %o2, %g2
    26b0:	85 03 40 0b 	taddcc  %o5, %o3, %g2
    26b4:	85 03 40 0c 	taddcc  %o5, %o4, %g2
    26b8:	85 03 40 0d 	taddcc  %o5, %o5, %g2
    26bc:	85 03 40 0e 	taddcc  %o5, %sp, %g2
    26c0:	85 03 40 0f 	taddcc  %o5, %o7, %g2
    26c4:	85 03 40 10 	taddcc  %o5, %l0, %g2
    26c8:	85 03 40 11 	taddcc  %o5, %l1, %g2
    26cc:	85 03 40 12 	taddcc  %o5, %l2, %g2
    26d0:	85 03 40 13 	taddcc  %o5, %l3, %g2
    26d4:	85 03 40 14 	taddcc  %o5, %l4, %g2
    26d8:	85 03 40 15 	taddcc  %o5, %l5, %g2
    26dc:	85 03 40 16 	taddcc  %o5, %l6, %g2
    26e0:	85 03 40 17 	taddcc  %o5, %l7, %g2
    26e4:	85 03 40 18 	taddcc  %o5, %i0, %g2
    26e8:	85 03 40 19 	taddcc  %o5, %i1, %g2
    26ec:	85 03 40 1a 	taddcc  %o5, %i2, %g2
    26f0:	85 03 40 1b 	taddcc  %o5, %i3, %g2
    26f4:	85 03 40 1c 	taddcc  %o5, %i4, %g2
    26f8:	85 03 40 1d 	taddcc  %o5, %i5, %g2
    26fc:	85 03 40 1e 	taddcc  %o5, %fp, %g2
    2700:	85 03 40 1f 	taddcc  %o5, %i7, %g2
    2704:	85 03 80 00 	taddcc  %sp, %g0, %g2
    2708:	85 03 80 01 	taddcc  %sp, %g1, %g2
    270c:	85 03 80 02 	taddcc  %sp, %g2, %g2
    2710:	85 03 80 03 	taddcc  %sp, %g3, %g2
    2714:	85 03 80 04 	taddcc  %sp, %g4, %g2
    2718:	85 03 80 05 	taddcc  %sp, %g5, %g2
    271c:	85 03 80 06 	taddcc  %sp, %g6, %g2
    2720:	85 03 80 07 	taddcc  %sp, %g7, %g2
    2724:	85 03 80 08 	taddcc  %sp, %o0, %g2
    2728:	85 03 80 09 	taddcc  %sp, %o1, %g2
    272c:	85 03 80 0a 	taddcc  %sp, %o2, %g2
    2730:	85 03 80 0b 	taddcc  %sp, %o3, %g2
    2734:	85 03 80 0c 	taddcc  %sp, %o4, %g2
    2738:	85 03 80 0d 	taddcc  %sp, %o5, %g2
    273c:	85 03 80 0e 	taddcc  %sp, %sp, %g2
    2740:	85 03 80 0f 	taddcc  %sp, %o7, %g2
    2744:	85 03 80 10 	taddcc  %sp, %l0, %g2
    2748:	85 03 80 11 	taddcc  %sp, %l1, %g2
    274c:	85 03 80 12 	taddcc  %sp, %l2, %g2
    2750:	85 03 80 13 	taddcc  %sp, %l3, %g2
    2754:	85 03 80 14 	taddcc  %sp, %l4, %g2
    2758:	85 03 80 15 	taddcc  %sp, %l5, %g2
    275c:	85 03 80 16 	taddcc  %sp, %l6, %g2
    2760:	85 03 80 17 	taddcc  %sp, %l7, %g2
    2764:	85 03 80 18 	taddcc  %sp, %i0, %g2
    2768:	85 03 80 19 	taddcc  %sp, %i1, %g2
    276c:	85 03 80 1a 	taddcc  %sp, %i2, %g2
    2770:	85 03 80 1b 	taddcc  %sp, %i3, %g2
    2774:	85 03 80 1c 	taddcc  %sp, %i4, %g2
    2778:	85 03 80 1d 	taddcc  %sp, %i5, %g2
    277c:	85 03 80 1e 	taddcc  %sp, %fp, %g2
    2780:	85 03 80 1f 	taddcc  %sp, %i7, %g2
    2784:	85 03 c0 00 	taddcc  %o7, %g0, %g2
    2788:	85 03 c0 01 	taddcc  %o7, %g1, %g2
    278c:	85 03 c0 02 	taddcc  %o7, %g2, %g2
    2790:	85 03 c0 03 	taddcc  %o7, %g3, %g2
    2794:	85 03 c0 04 	taddcc  %o7, %g4, %g2
    2798:	85 03 c0 05 	taddcc  %o7, %g5, %g2
    279c:	85 03 c0 06 	taddcc  %o7, %g6, %g2
    27a0:	85 03 c0 07 	taddcc  %o7, %g7, %g2
    27a4:	85 03 c0 08 	taddcc  %o7, %o0, %g2
    27a8:	85 03 c0 09 	taddcc  %o7, %o1, %g2
    27ac:	85 03 c0 0a 	taddcc  %o7, %o2, %g2
    27b0:	85 03 c0 0b 	taddcc  %o7, %o3, %g2
    27b4:	85 03 c0 0c 	taddcc  %o7, %o4, %g2
    27b8:	85 03 c0 0d 	taddcc  %o7, %o5, %g2
    27bc:	85 03 c0 0e 	taddcc  %o7, %sp, %g2
    27c0:	85 03 c0 0f 	taddcc  %o7, %o7, %g2
    27c4:	85 03 c0 10 	taddcc  %o7, %l0, %g2
    27c8:	85 03 c0 11 	taddcc  %o7, %l1, %g2
    27cc:	85 03 c0 12 	taddcc  %o7, %l2, %g2
    27d0:	85 03 c0 13 	taddcc  %o7, %l3, %g2
    27d4:	85 03 c0 14 	taddcc  %o7, %l4, %g2
    27d8:	85 03 c0 15 	taddcc  %o7, %l5, %g2
    27dc:	85 03 c0 16 	taddcc  %o7, %l6, %g2
    27e0:	85 03 c0 17 	taddcc  %o7, %l7, %g2
    27e4:	85 03 c0 18 	taddcc  %o7, %i0, %g2
    27e8:	85 03 c0 19 	taddcc  %o7, %i1, %g2
    27ec:	85 03 c0 1a 	taddcc  %o7, %i2, %g2
    27f0:	85 03 c0 1b 	taddcc  %o7, %i3, %g2
    27f4:	85 03 c0 1c 	taddcc  %o7, %i4, %g2
    27f8:	85 03 c0 1d 	taddcc  %o7, %i5, %g2
    27fc:	85 03 c0 1e 	taddcc  %o7, %fp, %g2
    2800:	85 03 c0 1f 	taddcc  %o7, %i7, %g2
    2804:	85 04 00 00 	taddcc  %l0, %g0, %g2
    2808:	85 04 00 01 	taddcc  %l0, %g1, %g2
    280c:	85 04 00 02 	taddcc  %l0, %g2, %g2
    2810:	85 04 00 03 	taddcc  %l0, %g3, %g2
    2814:	85 04 00 04 	taddcc  %l0, %g4, %g2
    2818:	85 04 00 05 	taddcc  %l0, %g5, %g2
    281c:	85 04 00 06 	taddcc  %l0, %g6, %g2
    2820:	85 04 00 07 	taddcc  %l0, %g7, %g2
    2824:	85 04 00 08 	taddcc  %l0, %o0, %g2
    2828:	85 04 00 09 	taddcc  %l0, %o1, %g2
    282c:	85 04 00 0a 	taddcc  %l0, %o2, %g2
    2830:	85 04 00 0b 	taddcc  %l0, %o3, %g2
    2834:	85 04 00 0c 	taddcc  %l0, %o4, %g2
    2838:	85 04 00 0d 	taddcc  %l0, %o5, %g2
    283c:	85 04 00 0e 	taddcc  %l0, %sp, %g2
    2840:	85 04 00 0f 	taddcc  %l0, %o7, %g2
    2844:	85 04 00 10 	taddcc  %l0, %l0, %g2
    2848:	85 04 00 11 	taddcc  %l0, %l1, %g2
    284c:	85 04 00 12 	taddcc  %l0, %l2, %g2
    2850:	85 04 00 13 	taddcc  %l0, %l3, %g2
    2854:	85 04 00 14 	taddcc  %l0, %l4, %g2
    2858:	85 04 00 15 	taddcc  %l0, %l5, %g2
    285c:	85 04 00 16 	taddcc  %l0, %l6, %g2
    2860:	85 04 00 17 	taddcc  %l0, %l7, %g2
    2864:	85 04 00 18 	taddcc  %l0, %i0, %g2
    2868:	85 04 00 19 	taddcc  %l0, %i1, %g2
    286c:	85 04 00 1a 	taddcc  %l0, %i2, %g2
    2870:	85 04 00 1b 	taddcc  %l0, %i3, %g2
    2874:	85 04 00 1c 	taddcc  %l0, %i4, %g2
    2878:	85 04 00 1d 	taddcc  %l0, %i5, %g2
    287c:	85 04 00 1e 	taddcc  %l0, %fp, %g2
    2880:	85 04 00 1f 	taddcc  %l0, %i7, %g2
    2884:	85 04 40 00 	taddcc  %l1, %g0, %g2
    2888:	85 04 40 01 	taddcc  %l1, %g1, %g2
    288c:	85 04 40 02 	taddcc  %l1, %g2, %g2
    2890:	85 04 40 03 	taddcc  %l1, %g3, %g2
    2894:	85 04 40 04 	taddcc  %l1, %g4, %g2
    2898:	85 04 40 05 	taddcc  %l1, %g5, %g2
    289c:	85 04 40 06 	taddcc  %l1, %g6, %g2
    28a0:	85 04 40 07 	taddcc  %l1, %g7, %g2
    28a4:	85 04 40 08 	taddcc  %l1, %o0, %g2
    28a8:	85 04 40 09 	taddcc  %l1, %o1, %g2
    28ac:	85 04 40 0a 	taddcc  %l1, %o2, %g2
    28b0:	85 04 40 0b 	taddcc  %l1, %o3, %g2
    28b4:	85 04 40 0c 	taddcc  %l1, %o4, %g2
    28b8:	85 04 40 0d 	taddcc  %l1, %o5, %g2
    28bc:	85 04 40 0e 	taddcc  %l1, %sp, %g2
    28c0:	85 04 40 0f 	taddcc  %l1, %o7, %g2
    28c4:	85 04 40 10 	taddcc  %l1, %l0, %g2
    28c8:	85 04 40 11 	taddcc  %l1, %l1, %g2
    28cc:	85 04 40 12 	taddcc  %l1, %l2, %g2
    28d0:	85 04 40 13 	taddcc  %l1, %l3, %g2
    28d4:	85 04 40 14 	taddcc  %l1, %l4, %g2
    28d8:	85 04 40 15 	taddcc  %l1, %l5, %g2
    28dc:	85 04 40 16 	taddcc  %l1, %l6, %g2
    28e0:	85 04 40 17 	taddcc  %l1, %l7, %g2
    28e4:	85 04 40 18 	taddcc  %l1, %i0, %g2
    28e8:	85 04 40 19 	taddcc  %l1, %i1, %g2
    28ec:	85 04 40 1a 	taddcc  %l1, %i2, %g2
    28f0:	85 04 40 1b 	taddcc  %l1, %i3, %g2
    28f4:	85 04 40 1c 	taddcc  %l1, %i4, %g2
    28f8:	85 04 40 1d 	taddcc  %l1, %i5, %g2
    28fc:	85 04 40 1e 	taddcc  %l1, %fp, %g2
    2900:	85 04 40 1f 	taddcc  %l1, %i7, %g2
    2904:	85 04 80 00 	taddcc  %l2, %g0, %g2
    2908:	85 04 80 01 	taddcc  %l2, %g1, %g2
    290c:	85 04 80 02 	taddcc  %l2, %g2, %g2
    2910:	85 04 80 03 	taddcc  %l2, %g3, %g2
    2914:	85 04 80 04 	taddcc  %l2, %g4, %g2
    2918:	85 04 80 05 	taddcc  %l2, %g5, %g2
    291c:	85 04 80 06 	taddcc  %l2, %g6, %g2
    2920:	85 04 80 07 	taddcc  %l2, %g7, %g2
    2924:	85 04 80 08 	taddcc  %l2, %o0, %g2
    2928:	85 04 80 09 	taddcc  %l2, %o1, %g2
    292c:	85 04 80 0a 	taddcc  %l2, %o2, %g2
    2930:	85 04 80 0b 	taddcc  %l2, %o3, %g2
    2934:	85 04 80 0c 	taddcc  %l2, %o4, %g2
    2938:	85 04 80 0d 	taddcc  %l2, %o5, %g2
    293c:	85 04 80 0e 	taddcc  %l2, %sp, %g2
    2940:	85 04 80 0f 	taddcc  %l2, %o7, %g2
    2944:	85 04 80 10 	taddcc  %l2, %l0, %g2
    2948:	85 04 80 11 	taddcc  %l2, %l1, %g2
    294c:	85 04 80 12 	taddcc  %l2, %l2, %g2
    2950:	85 04 80 13 	taddcc  %l2, %l3, %g2
    2954:	85 04 80 14 	taddcc  %l2, %l4, %g2
    2958:	85 04 80 15 	taddcc  %l2, %l5, %g2
    295c:	85 04 80 16 	taddcc  %l2, %l6, %g2
    2960:	85 04 80 17 	taddcc  %l2, %l7, %g2
    2964:	85 04 80 18 	taddcc  %l2, %i0, %g2
    2968:	85 04 80 19 	taddcc  %l2, %i1, %g2
    296c:	85 04 80 1a 	taddcc  %l2, %i2, %g2
    2970:	85 04 80 1b 	taddcc  %l2, %i3, %g2
    2974:	85 04 80 1c 	taddcc  %l2, %i4, %g2
    2978:	85 04 80 1d 	taddcc  %l2, %i5, %g2
    297c:	85 04 80 1e 	taddcc  %l2, %fp, %g2
    2980:	85 04 80 1f 	taddcc  %l2, %i7, %g2
    2984:	85 04 c0 00 	taddcc  %l3, %g0, %g2
    2988:	85 04 c0 01 	taddcc  %l3, %g1, %g2
    298c:	85 04 c0 02 	taddcc  %l3, %g2, %g2
    2990:	85 04 c0 03 	taddcc  %l3, %g3, %g2
    2994:	85 04 c0 04 	taddcc  %l3, %g4, %g2
    2998:	85 04 c0 05 	taddcc  %l3, %g5, %g2
    299c:	85 04 c0 06 	taddcc  %l3, %g6, %g2
    29a0:	85 04 c0 07 	taddcc  %l3, %g7, %g2
    29a4:	85 04 c0 08 	taddcc  %l3, %o0, %g2
    29a8:	85 04 c0 09 	taddcc  %l3, %o1, %g2
    29ac:	85 04 c0 0a 	taddcc  %l3, %o2, %g2
    29b0:	85 04 c0 0b 	taddcc  %l3, %o3, %g2
    29b4:	85 04 c0 0c 	taddcc  %l3, %o4, %g2
    29b8:	85 04 c0 0d 	taddcc  %l3, %o5, %g2
    29bc:	85 04 c0 0e 	taddcc  %l3, %sp, %g2
    29c0:	85 04 c0 0f 	taddcc  %l3, %o7, %g2
    29c4:	85 04 c0 10 	taddcc  %l3, %l0, %g2
    29c8:	85 04 c0 11 	taddcc  %l3, %l1, %g2
    29cc:	85 04 c0 12 	taddcc  %l3, %l2, %g2
    29d0:	85 04 c0 13 	taddcc  %l3, %l3, %g2
    29d4:	85 04 c0 14 	taddcc  %l3, %l4, %g2
    29d8:	85 04 c0 15 	taddcc  %l3, %l5, %g2
    29dc:	85 04 c0 16 	taddcc  %l3, %l6, %g2
    29e0:	85 04 c0 17 	taddcc  %l3, %l7, %g2
    29e4:	85 04 c0 18 	taddcc  %l3, %i0, %g2
    29e8:	85 04 c0 19 	taddcc  %l3, %i1, %g2
    29ec:	85 04 c0 1a 	taddcc  %l3, %i2, %g2
    29f0:	85 04 c0 1b 	taddcc  %l3, %i3, %g2
    29f4:	85 04 c0 1c 	taddcc  %l3, %i4, %g2
    29f8:	85 04 c0 1d 	taddcc  %l3, %i5, %g2
    29fc:	85 04 c0 1e 	taddcc  %l3, %fp, %g2
    2a00:	85 04 c0 1f 	taddcc  %l3, %i7, %g2
    2a04:	85 05 00 00 	taddcc  %l4, %g0, %g2
    2a08:	85 05 00 01 	taddcc  %l4, %g1, %g2
    2a0c:	85 05 00 02 	taddcc  %l4, %g2, %g2
    2a10:	85 05 00 03 	taddcc  %l4, %g3, %g2
    2a14:	85 05 00 04 	taddcc  %l4, %g4, %g2
    2a18:	85 05 00 05 	taddcc  %l4, %g5, %g2
    2a1c:	85 05 00 06 	taddcc  %l4, %g6, %g2
    2a20:	85 05 00 07 	taddcc  %l4, %g7, %g2
    2a24:	85 05 00 08 	taddcc  %l4, %o0, %g2
    2a28:	85 05 00 09 	taddcc  %l4, %o1, %g2
    2a2c:	85 05 00 0a 	taddcc  %l4, %o2, %g2
    2a30:	85 05 00 0b 	taddcc  %l4, %o3, %g2
    2a34:	85 05 00 0c 	taddcc  %l4, %o4, %g2
    2a38:	85 05 00 0d 	taddcc  %l4, %o5, %g2
    2a3c:	85 05 00 0e 	taddcc  %l4, %sp, %g2
    2a40:	85 05 00 0f 	taddcc  %l4, %o7, %g2
    2a44:	85 05 00 10 	taddcc  %l4, %l0, %g2
    2a48:	85 05 00 11 	taddcc  %l4, %l1, %g2
    2a4c:	85 05 00 12 	taddcc  %l4, %l2, %g2
    2a50:	85 05 00 13 	taddcc  %l4, %l3, %g2
    2a54:	85 05 00 14 	taddcc  %l4, %l4, %g2
    2a58:	85 05 00 15 	taddcc  %l4, %l5, %g2
    2a5c:	85 05 00 16 	taddcc  %l4, %l6, %g2
    2a60:	85 05 00 17 	taddcc  %l4, %l7, %g2
    2a64:	85 05 00 18 	taddcc  %l4, %i0, %g2
    2a68:	85 05 00 19 	taddcc  %l4, %i1, %g2
    2a6c:	85 05 00 1a 	taddcc  %l4, %i2, %g2
    2a70:	85 05 00 1b 	taddcc  %l4, %i3, %g2
    2a74:	85 05 00 1c 	taddcc  %l4, %i4, %g2
    2a78:	85 05 00 1d 	taddcc  %l4, %i5, %g2
    2a7c:	85 05 00 1e 	taddcc  %l4, %fp, %g2
    2a80:	85 05 00 1f 	taddcc  %l4, %i7, %g2
    2a84:	85 05 40 00 	taddcc  %l5, %g0, %g2
    2a88:	85 05 40 01 	taddcc  %l5, %g1, %g2
    2a8c:	85 05 40 02 	taddcc  %l5, %g2, %g2
    2a90:	85 05 40 03 	taddcc  %l5, %g3, %g2
    2a94:	85 05 40 04 	taddcc  %l5, %g4, %g2
    2a98:	85 05 40 05 	taddcc  %l5, %g5, %g2
    2a9c:	85 05 40 06 	taddcc  %l5, %g6, %g2
    2aa0:	85 05 40 07 	taddcc  %l5, %g7, %g2
    2aa4:	85 05 40 08 	taddcc  %l5, %o0, %g2
    2aa8:	85 05 40 09 	taddcc  %l5, %o1, %g2
    2aac:	85 05 40 0a 	taddcc  %l5, %o2, %g2
    2ab0:	85 05 40 0b 	taddcc  %l5, %o3, %g2
    2ab4:	85 05 40 0c 	taddcc  %l5, %o4, %g2
    2ab8:	85 05 40 0d 	taddcc  %l5, %o5, %g2
    2abc:	85 05 40 0e 	taddcc  %l5, %sp, %g2
    2ac0:	85 05 40 0f 	taddcc  %l5, %o7, %g2
    2ac4:	85 05 40 10 	taddcc  %l5, %l0, %g2
    2ac8:	85 05 40 11 	taddcc  %l5, %l1, %g2
    2acc:	85 05 40 12 	taddcc  %l5, %l2, %g2
    2ad0:	85 05 40 13 	taddcc  %l5, %l3, %g2
    2ad4:	85 05 40 14 	taddcc  %l5, %l4, %g2
    2ad8:	85 05 40 15 	taddcc  %l5, %l5, %g2
    2adc:	85 05 40 16 	taddcc  %l5, %l6, %g2
    2ae0:	85 05 40 17 	taddcc  %l5, %l7, %g2
    2ae4:	85 05 40 18 	taddcc  %l5, %i0, %g2
    2ae8:	85 05 40 19 	taddcc  %l5, %i1, %g2
    2aec:	85 05 40 1a 	taddcc  %l5, %i2, %g2
    2af0:	85 05 40 1b 	taddcc  %l5, %i3, %g2
    2af4:	85 05 40 1c 	taddcc  %l5, %i4, %g2
    2af8:	85 05 40 1d 	taddcc  %l5, %i5, %g2
    2afc:	85 05 40 1e 	taddcc  %l5, %fp, %g2
    2b00:	85 05 40 1f 	taddcc  %l5, %i7, %g2
    2b04:	85 05 80 00 	taddcc  %l6, %g0, %g2
    2b08:	85 05 80 01 	taddcc  %l6, %g1, %g2
    2b0c:	85 05 80 02 	taddcc  %l6, %g2, %g2
    2b10:	85 05 80 03 	taddcc  %l6, %g3, %g2
    2b14:	85 05 80 04 	taddcc  %l6, %g4, %g2
    2b18:	85 05 80 05 	taddcc  %l6, %g5, %g2
    2b1c:	85 05 80 06 	taddcc  %l6, %g6, %g2
    2b20:	85 05 80 07 	taddcc  %l6, %g7, %g2
    2b24:	85 05 80 08 	taddcc  %l6, %o0, %g2
    2b28:	85 05 80 09 	taddcc  %l6, %o1, %g2
    2b2c:	85 05 80 0a 	taddcc  %l6, %o2, %g2
    2b30:	85 05 80 0b 	taddcc  %l6, %o3, %g2
    2b34:	85 05 80 0c 	taddcc  %l6, %o4, %g2
    2b38:	85 05 80 0d 	taddcc  %l6, %o5, %g2
    2b3c:	85 05 80 0e 	taddcc  %l6, %sp, %g2
    2b40:	85 05 80 0f 	taddcc  %l6, %o7, %g2
    2b44:	85 05 80 10 	taddcc  %l6, %l0, %g2
    2b48:	85 05 80 11 	taddcc  %l6, %l1, %g2
    2b4c:	85 05 80 12 	taddcc  %l6, %l2, %g2
    2b50:	85 05 80 13 	taddcc  %l6, %l3, %g2
    2b54:	85 05 80 14 	taddcc  %l6, %l4, %g2
    2b58:	85 05 80 15 	taddcc  %l6, %l5, %g2
    2b5c:	85 05 80 16 	taddcc  %l6, %l6, %g2
    2b60:	85 05 80 17 	taddcc  %l6, %l7, %g2
    2b64:	85 05 80 18 	taddcc  %l6, %i0, %g2
    2b68:	85 05 80 19 	taddcc  %l6, %i1, %g2
    2b6c:	85 05 80 1a 	taddcc  %l6, %i2, %g2
    2b70:	85 05 80 1b 	taddcc  %l6, %i3, %g2
    2b74:	85 05 80 1c 	taddcc  %l6, %i4, %g2
    2b78:	85 05 80 1d 	taddcc  %l6, %i5, %g2
    2b7c:	85 05 80 1e 	taddcc  %l6, %fp, %g2
    2b80:	85 05 80 1f 	taddcc  %l6, %i7, %g2
    2b84:	85 05 c0 00 	taddcc  %l7, %g0, %g2
    2b88:	85 05 c0 01 	taddcc  %l7, %g1, %g2
    2b8c:	85 05 c0 02 	taddcc  %l7, %g2, %g2
    2b90:	85 05 c0 03 	taddcc  %l7, %g3, %g2
    2b94:	85 05 c0 04 	taddcc  %l7, %g4, %g2
    2b98:	85 05 c0 05 	taddcc  %l7, %g5, %g2
    2b9c:	85 05 c0 06 	taddcc  %l7, %g6, %g2
    2ba0:	85 05 c0 07 	taddcc  %l7, %g7, %g2
    2ba4:	85 05 c0 08 	taddcc  %l7, %o0, %g2
    2ba8:	85 05 c0 09 	taddcc  %l7, %o1, %g2
    2bac:	85 05 c0 0a 	taddcc  %l7, %o2, %g2
    2bb0:	85 05 c0 0b 	taddcc  %l7, %o3, %g2
    2bb4:	85 05 c0 0c 	taddcc  %l7, %o4, %g2
    2bb8:	85 05 c0 0d 	taddcc  %l7, %o5, %g2
    2bbc:	85 05 c0 0e 	taddcc  %l7, %sp, %g2
    2bc0:	85 05 c0 0f 	taddcc  %l7, %o7, %g2
    2bc4:	85 05 c0 10 	taddcc  %l7, %l0, %g2
    2bc8:	85 05 c0 11 	taddcc  %l7, %l1, %g2
    2bcc:	85 05 c0 12 	taddcc  %l7, %l2, %g2
    2bd0:	85 05 c0 13 	taddcc  %l7, %l3, %g2
    2bd4:	85 05 c0 14 	taddcc  %l7, %l4, %g2
    2bd8:	85 05 c0 15 	taddcc  %l7, %l5, %g2
    2bdc:	85 05 c0 16 	taddcc  %l7, %l6, %g2
    2be0:	85 05 c0 17 	taddcc  %l7, %l7, %g2
    2be4:	85 05 c0 18 	taddcc  %l7, %i0, %g2
    2be8:	85 05 c0 19 	taddcc  %l7, %i1, %g2
    2bec:	85 05 c0 1a 	taddcc  %l7, %i2, %g2
    2bf0:	85 05 c0 1b 	taddcc  %l7, %i3, %g2
    2bf4:	85 05 c0 1c 	taddcc  %l7, %i4, %g2
    2bf8:	85 05 c0 1d 	taddcc  %l7, %i5, %g2
    2bfc:	85 05 c0 1e 	taddcc  %l7, %fp, %g2
    2c00:	85 05 c0 1f 	taddcc  %l7, %i7, %g2
    2c04:	85 06 00 00 	taddcc  %i0, %g0, %g2
    2c08:	85 06 00 01 	taddcc  %i0, %g1, %g2
    2c0c:	85 06 00 02 	taddcc  %i0, %g2, %g2
    2c10:	85 06 00 03 	taddcc  %i0, %g3, %g2
    2c14:	85 06 00 04 	taddcc  %i0, %g4, %g2
    2c18:	85 06 00 05 	taddcc  %i0, %g5, %g2
    2c1c:	85 06 00 06 	taddcc  %i0, %g6, %g2
    2c20:	85 06 00 07 	taddcc  %i0, %g7, %g2
    2c24:	85 06 00 08 	taddcc  %i0, %o0, %g2
    2c28:	85 06 00 09 	taddcc  %i0, %o1, %g2
    2c2c:	85 06 00 0a 	taddcc  %i0, %o2, %g2
    2c30:	85 06 00 0b 	taddcc  %i0, %o3, %g2
    2c34:	85 06 00 0c 	taddcc  %i0, %o4, %g2
    2c38:	85 06 00 0d 	taddcc  %i0, %o5, %g2
    2c3c:	85 06 00 0e 	taddcc  %i0, %sp, %g2
    2c40:	85 06 00 0f 	taddcc  %i0, %o7, %g2
    2c44:	85 06 00 10 	taddcc  %i0, %l0, %g2
    2c48:	85 06 00 11 	taddcc  %i0, %l1, %g2
    2c4c:	85 06 00 12 	taddcc  %i0, %l2, %g2
    2c50:	85 06 00 13 	taddcc  %i0, %l3, %g2
    2c54:	85 06 00 14 	taddcc  %i0, %l4, %g2
    2c58:	85 06 00 15 	taddcc  %i0, %l5, %g2
    2c5c:	85 06 00 16 	taddcc  %i0, %l6, %g2
    2c60:	85 06 00 17 	taddcc  %i0, %l7, %g2
    2c64:	85 06 00 18 	taddcc  %i0, %i0, %g2
    2c68:	85 06 00 19 	taddcc  %i0, %i1, %g2
    2c6c:	85 06 00 1a 	taddcc  %i0, %i2, %g2
    2c70:	85 06 00 1b 	taddcc  %i0, %i3, %g2
    2c74:	85 06 00 1c 	taddcc  %i0, %i4, %g2
    2c78:	85 06 00 1d 	taddcc  %i0, %i5, %g2
    2c7c:	85 06 00 1e 	taddcc  %i0, %fp, %g2
    2c80:	85 06 00 1f 	taddcc  %i0, %i7, %g2
    2c84:	85 06 40 00 	taddcc  %i1, %g0, %g2
    2c88:	85 06 40 01 	taddcc  %i1, %g1, %g2
    2c8c:	85 06 40 02 	taddcc  %i1, %g2, %g2
    2c90:	85 06 40 03 	taddcc  %i1, %g3, %g2
    2c94:	85 06 40 04 	taddcc  %i1, %g4, %g2
    2c98:	85 06 40 05 	taddcc  %i1, %g5, %g2
    2c9c:	85 06 40 06 	taddcc  %i1, %g6, %g2
    2ca0:	85 06 40 07 	taddcc  %i1, %g7, %g2
    2ca4:	85 06 40 08 	taddcc  %i1, %o0, %g2
    2ca8:	85 06 40 09 	taddcc  %i1, %o1, %g2
    2cac:	85 06 40 0a 	taddcc  %i1, %o2, %g2
    2cb0:	85 06 40 0b 	taddcc  %i1, %o3, %g2
    2cb4:	85 06 40 0c 	taddcc  %i1, %o4, %g2
    2cb8:	85 06 40 0d 	taddcc  %i1, %o5, %g2
    2cbc:	85 06 40 0e 	taddcc  %i1, %sp, %g2
    2cc0:	85 06 40 0f 	taddcc  %i1, %o7, %g2
    2cc4:	85 06 40 10 	taddcc  %i1, %l0, %g2
    2cc8:	85 06 40 11 	taddcc  %i1, %l1, %g2
    2ccc:	85 06 40 12 	taddcc  %i1, %l2, %g2
    2cd0:	85 06 40 13 	taddcc  %i1, %l3, %g2
    2cd4:	85 06 40 14 	taddcc  %i1, %l4, %g2
    2cd8:	85 06 40 15 	taddcc  %i1, %l5, %g2
    2cdc:	85 06 40 16 	taddcc  %i1, %l6, %g2
    2ce0:	85 06 40 17 	taddcc  %i1, %l7, %g2
    2ce4:	85 06 40 18 	taddcc  %i1, %i0, %g2
    2ce8:	85 06 40 19 	taddcc  %i1, %i1, %g2
    2cec:	85 06 40 1a 	taddcc  %i1, %i2, %g2
    2cf0:	85 06 40 1b 	taddcc  %i1, %i3, %g2
    2cf4:	85 06 40 1c 	taddcc  %i1, %i4, %g2
    2cf8:	85 06 40 1d 	taddcc  %i1, %i5, %g2
    2cfc:	85 06 40 1e 	taddcc  %i1, %fp, %g2
    2d00:	85 06 40 1f 	taddcc  %i1, %i7, %g2
    2d04:	85 06 80 00 	taddcc  %i2, %g0, %g2
    2d08:	85 06 80 01 	taddcc  %i2, %g1, %g2
    2d0c:	85 06 80 02 	taddcc  %i2, %g2, %g2
    2d10:	85 06 80 03 	taddcc  %i2, %g3, %g2
    2d14:	85 06 80 04 	taddcc  %i2, %g4, %g2
    2d18:	85 06 80 05 	taddcc  %i2, %g5, %g2
    2d1c:	85 06 80 06 	taddcc  %i2, %g6, %g2
    2d20:	85 06 80 07 	taddcc  %i2, %g7, %g2
    2d24:	85 06 80 08 	taddcc  %i2, %o0, %g2
    2d28:	85 06 80 09 	taddcc  %i2, %o1, %g2
    2d2c:	85 06 80 0a 	taddcc  %i2, %o2, %g2
    2d30:	85 06 80 0b 	taddcc  %i2, %o3, %g2
    2d34:	85 06 80 0c 	taddcc  %i2, %o4, %g2
    2d38:	85 06 80 0d 	taddcc  %i2, %o5, %g2
    2d3c:	85 06 80 0e 	taddcc  %i2, %sp, %g2
    2d40:	85 06 80 0f 	taddcc  %i2, %o7, %g2
    2d44:	85 06 80 10 	taddcc  %i2, %l0, %g2
    2d48:	85 06 80 11 	taddcc  %i2, %l1, %g2
    2d4c:	85 06 80 12 	taddcc  %i2, %l2, %g2
    2d50:	85 06 80 13 	taddcc  %i2, %l3, %g2
    2d54:	85 06 80 14 	taddcc  %i2, %l4, %g2
    2d58:	85 06 80 15 	taddcc  %i2, %l5, %g2
    2d5c:	85 06 80 16 	taddcc  %i2, %l6, %g2
    2d60:	85 06 80 17 	taddcc  %i2, %l7, %g2
    2d64:	85 06 80 18 	taddcc  %i2, %i0, %g2
    2d68:	85 06 80 19 	taddcc  %i2, %i1, %g2
    2d6c:	85 06 80 1a 	taddcc  %i2, %i2, %g2
    2d70:	85 06 80 1b 	taddcc  %i2, %i3, %g2
    2d74:	85 06 80 1c 	taddcc  %i2, %i4, %g2
    2d78:	85 06 80 1d 	taddcc  %i2, %i5, %g2
    2d7c:	85 06 80 1e 	taddcc  %i2, %fp, %g2
    2d80:	85 06 80 1f 	taddcc  %i2, %i7, %g2
    2d84:	85 06 c0 00 	taddcc  %i3, %g0, %g2
    2d88:	85 06 c0 01 	taddcc  %i3, %g1, %g2
    2d8c:	85 06 c0 02 	taddcc  %i3, %g2, %g2
    2d90:	85 06 c0 03 	taddcc  %i3, %g3, %g2
    2d94:	85 06 c0 04 	taddcc  %i3, %g4, %g2
    2d98:	85 06 c0 05 	taddcc  %i3, %g5, %g2
    2d9c:	85 06 c0 06 	taddcc  %i3, %g6, %g2
    2da0:	85 06 c0 07 	taddcc  %i3, %g7, %g2
    2da4:	85 06 c0 08 	taddcc  %i3, %o0, %g2
    2da8:	85 06 c0 09 	taddcc  %i3, %o1, %g2
    2dac:	85 06 c0 0a 	taddcc  %i3, %o2, %g2
    2db0:	85 06 c0 0b 	taddcc  %i3, %o3, %g2
    2db4:	85 06 c0 0c 	taddcc  %i3, %o4, %g2
    2db8:	85 06 c0 0d 	taddcc  %i3, %o5, %g2
    2dbc:	85 06 c0 0e 	taddcc  %i3, %sp, %g2
    2dc0:	85 06 c0 0f 	taddcc  %i3, %o7, %g2
    2dc4:	85 06 c0 10 	taddcc  %i3, %l0, %g2
    2dc8:	85 06 c0 11 	taddcc  %i3, %l1, %g2
    2dcc:	85 06 c0 12 	taddcc  %i3, %l2, %g2
    2dd0:	85 06 c0 13 	taddcc  %i3, %l3, %g2
    2dd4:	85 06 c0 14 	taddcc  %i3, %l4, %g2
    2dd8:	85 06 c0 15 	taddcc  %i3, %l5, %g2
    2ddc:	85 06 c0 16 	taddcc  %i3, %l6, %g2
    2de0:	85 06 c0 17 	taddcc  %i3, %l7, %g2
    2de4:	85 06 c0 18 	taddcc  %i3, %i0, %g2
    2de8:	85 06 c0 19 	taddcc  %i3, %i1, %g2
    2dec:	85 06 c0 1a 	taddcc  %i3, %i2, %g2
    2df0:	85 06 c0 1b 	taddcc  %i3, %i3, %g2
    2df4:	85 06 c0 1c 	taddcc  %i3, %i4, %g2
    2df8:	85 06 c0 1d 	taddcc  %i3, %i5, %g2
    2dfc:	85 06 c0 1e 	taddcc  %i3, %fp, %g2
    2e00:	85 06 c0 1f 	taddcc  %i3, %i7, %g2
    2e04:	85 07 00 00 	taddcc  %i4, %g0, %g2
    2e08:	85 07 00 01 	taddcc  %i4, %g1, %g2
    2e0c:	85 07 00 02 	taddcc  %i4, %g2, %g2
    2e10:	85 07 00 03 	taddcc  %i4, %g3, %g2
    2e14:	85 07 00 04 	taddcc  %i4, %g4, %g2
    2e18:	85 07 00 05 	taddcc  %i4, %g5, %g2
    2e1c:	85 07 00 06 	taddcc  %i4, %g6, %g2
    2e20:	85 07 00 07 	taddcc  %i4, %g7, %g2
    2e24:	85 07 00 08 	taddcc  %i4, %o0, %g2
    2e28:	85 07 00 09 	taddcc  %i4, %o1, %g2
    2e2c:	85 07 00 0a 	taddcc  %i4, %o2, %g2
    2e30:	85 07 00 0b 	taddcc  %i4, %o3, %g2
    2e34:	85 07 00 0c 	taddcc  %i4, %o4, %g2
    2e38:	85 07 00 0d 	taddcc  %i4, %o5, %g2
    2e3c:	85 07 00 0e 	taddcc  %i4, %sp, %g2
    2e40:	85 07 00 0f 	taddcc  %i4, %o7, %g2
    2e44:	85 07 00 10 	taddcc  %i4, %l0, %g2
    2e48:	85 07 00 11 	taddcc  %i4, %l1, %g2
    2e4c:	85 07 00 12 	taddcc  %i4, %l2, %g2
    2e50:	85 07 00 13 	taddcc  %i4, %l3, %g2
    2e54:	85 07 00 14 	taddcc  %i4, %l4, %g2
    2e58:	85 07 00 15 	taddcc  %i4, %l5, %g2
    2e5c:	85 07 00 16 	taddcc  %i4, %l6, %g2
    2e60:	85 07 00 17 	taddcc  %i4, %l7, %g2
    2e64:	85 07 00 18 	taddcc  %i4, %i0, %g2
    2e68:	85 07 00 19 	taddcc  %i4, %i1, %g2
    2e6c:	85 07 00 1a 	taddcc  %i4, %i2, %g2
    2e70:	85 07 00 1b 	taddcc  %i4, %i3, %g2
    2e74:	85 07 00 1c 	taddcc  %i4, %i4, %g2
    2e78:	85 07 00 1d 	taddcc  %i4, %i5, %g2
    2e7c:	85 07 00 1e 	taddcc  %i4, %fp, %g2
    2e80:	85 07 00 1f 	taddcc  %i4, %i7, %g2
    2e84:	85 07 40 00 	taddcc  %i5, %g0, %g2
    2e88:	85 07 40 01 	taddcc  %i5, %g1, %g2
    2e8c:	85 07 40 02 	taddcc  %i5, %g2, %g2
    2e90:	85 07 40 03 	taddcc  %i5, %g3, %g2
    2e94:	85 07 40 04 	taddcc  %i5, %g4, %g2
    2e98:	85 07 40 05 	taddcc  %i5, %g5, %g2
    2e9c:	85 07 40 06 	taddcc  %i5, %g6, %g2
    2ea0:	85 07 40 07 	taddcc  %i5, %g7, %g2
    2ea4:	85 07 40 08 	taddcc  %i5, %o0, %g2
    2ea8:	85 07 40 09 	taddcc  %i5, %o1, %g2
    2eac:	85 07 40 0a 	taddcc  %i5, %o2, %g2
    2eb0:	85 07 40 0b 	taddcc  %i5, %o3, %g2
    2eb4:	85 07 40 0c 	taddcc  %i5, %o4, %g2
    2eb8:	85 07 40 0d 	taddcc  %i5, %o5, %g2
    2ebc:	85 07 40 0e 	taddcc  %i5, %sp, %g2
    2ec0:	85 07 40 0f 	taddcc  %i5, %o7, %g2
    2ec4:	85 07 40 10 	taddcc  %i5, %l0, %g2
    2ec8:	85 07 40 11 	taddcc  %i5, %l1, %g2
    2ecc:	85 07 40 12 	taddcc  %i5, %l2, %g2
    2ed0:	85 07 40 13 	taddcc  %i5, %l3, %g2
    2ed4:	85 07 40 14 	taddcc  %i5, %l4, %g2
    2ed8:	85 07 40 15 	taddcc  %i5, %l5, %g2
    2edc:	85 07 40 16 	taddcc  %i5, %l6, %g2
    2ee0:	85 07 40 17 	taddcc  %i5, %l7, %g2
    2ee4:	85 07 40 18 	taddcc  %i5, %i0, %g2
    2ee8:	85 07 40 19 	taddcc  %i5, %i1, %g2
    2eec:	85 07 40 1a 	taddcc  %i5, %i2, %g2
    2ef0:	85 07 40 1b 	taddcc  %i5, %i3, %g2
    2ef4:	85 07 40 1c 	taddcc  %i5, %i4, %g2
    2ef8:	85 07 40 1d 	taddcc  %i5, %i5, %g2
    2efc:	85 07 40 1e 	taddcc  %i5, %fp, %g2
    2f00:	85 07 40 1f 	taddcc  %i5, %i7, %g2
    2f04:	85 07 80 00 	taddcc  %fp, %g0, %g2
    2f08:	85 07 80 01 	taddcc  %fp, %g1, %g2
    2f0c:	85 07 80 02 	taddcc  %fp, %g2, %g2
    2f10:	85 07 80 03 	taddcc  %fp, %g3, %g2
    2f14:	85 07 80 04 	taddcc  %fp, %g4, %g2
    2f18:	85 07 80 05 	taddcc  %fp, %g5, %g2
    2f1c:	85 07 80 06 	taddcc  %fp, %g6, %g2
    2f20:	85 07 80 07 	taddcc  %fp, %g7, %g2
    2f24:	85 07 80 08 	taddcc  %fp, %o0, %g2
    2f28:	85 07 80 09 	taddcc  %fp, %o1, %g2
    2f2c:	85 07 80 0a 	taddcc  %fp, %o2, %g2
    2f30:	85 07 80 0b 	taddcc  %fp, %o3, %g2
    2f34:	85 07 80 0c 	taddcc  %fp, %o4, %g2
    2f38:	85 07 80 0d 	taddcc  %fp, %o5, %g2
    2f3c:	85 07 80 0e 	taddcc  %fp, %sp, %g2
    2f40:	85 07 80 0f 	taddcc  %fp, %o7, %g2
    2f44:	85 07 80 10 	taddcc  %fp, %l0, %g2
    2f48:	85 07 80 11 	taddcc  %fp, %l1, %g2
    2f4c:	85 07 80 12 	taddcc  %fp, %l2, %g2
    2f50:	85 07 80 13 	taddcc  %fp, %l3, %g2
    2f54:	85 07 80 14 	taddcc  %fp, %l4, %g2
    2f58:	85 07 80 15 	taddcc  %fp, %l5, %g2
    2f5c:	85 07 80 16 	taddcc  %fp, %l6, %g2
    2f60:	85 07 80 17 	taddcc  %fp, %l7, %g2
    2f64:	85 07 80 18 	taddcc  %fp, %i0, %g2
    2f68:	85 07 80 19 	taddcc  %fp, %i1, %g2
    2f6c:	85 07 80 1a 	taddcc  %fp, %i2, %g2
    2f70:	85 07 80 1b 	taddcc  %fp, %i3, %g2
    2f74:	85 07 80 1c 	taddcc  %fp, %i4, %g2
    2f78:	85 07 80 1d 	taddcc  %fp, %i5, %g2
    2f7c:	85 07 80 1e 	taddcc  %fp, %fp, %g2
    2f80:	85 07 80 1f 	taddcc  %fp, %i7, %g2
    2f84:	85 07 c0 00 	taddcc  %i7, %g0, %g2
    2f88:	85 07 c0 01 	taddcc  %i7, %g1, %g2
    2f8c:	85 07 c0 02 	taddcc  %i7, %g2, %g2
    2f90:	85 07 c0 03 	taddcc  %i7, %g3, %g2
    2f94:	85 07 c0 04 	taddcc  %i7, %g4, %g2
    2f98:	85 07 c0 05 	taddcc  %i7, %g5, %g2
    2f9c:	85 07 c0 06 	taddcc  %i7, %g6, %g2
    2fa0:	85 07 c0 07 	taddcc  %i7, %g7, %g2
    2fa4:	85 07 c0 08 	taddcc  %i7, %o0, %g2
    2fa8:	85 07 c0 09 	taddcc  %i7, %o1, %g2
    2fac:	85 07 c0 0a 	taddcc  %i7, %o2, %g2
    2fb0:	85 07 c0 0b 	taddcc  %i7, %o3, %g2
    2fb4:	85 07 c0 0c 	taddcc  %i7, %o4, %g2
    2fb8:	85 07 c0 0d 	taddcc  %i7, %o5, %g2
    2fbc:	85 07 c0 0e 	taddcc  %i7, %sp, %g2
    2fc0:	85 07 c0 0f 	taddcc  %i7, %o7, %g2
    2fc4:	85 07 c0 10 	taddcc  %i7, %l0, %g2
    2fc8:	85 07 c0 11 	taddcc  %i7, %l1, %g2
    2fcc:	85 07 c0 12 	taddcc  %i7, %l2, %g2
    2fd0:	85 07 c0 13 	taddcc  %i7, %l3, %g2
    2fd4:	85 07 c0 14 	taddcc  %i7, %l4, %g2
    2fd8:	85 07 c0 15 	taddcc  %i7, %l5, %g2
    2fdc:	85 07 c0 16 	taddcc  %i7, %l6, %g2
    2fe0:	85 07 c0 17 	taddcc  %i7, %l7, %g2
    2fe4:	85 07 c0 18 	taddcc  %i7, %i0, %g2
    2fe8:	85 07 c0 19 	taddcc  %i7, %i1, %g2
    2fec:	85 07 c0 1a 	taddcc  %i7, %i2, %g2
    2ff0:	85 07 c0 1b 	taddcc  %i7, %i3, %g2
    2ff4:	85 07 c0 1c 	taddcc  %i7, %i4, %g2
    2ff8:	85 07 c0 1d 	taddcc  %i7, %i5, %g2
    2ffc:	85 07 c0 1e 	taddcc  %i7, %fp, %g2
    3000:	85 07 c0 1f 	taddcc  %i7, %i7, %g2
    3004:	87 00 00 00 	taddcc  %g0, %g0, %g3
    3008:	87 00 00 01 	taddcc  %g0, %g1, %g3
    300c:	87 00 00 02 	taddcc  %g0, %g2, %g3
    3010:	87 00 00 03 	taddcc  %g0, %g3, %g3
    3014:	87 00 00 04 	taddcc  %g0, %g4, %g3
    3018:	87 00 00 05 	taddcc  %g0, %g5, %g3
    301c:	87 00 00 06 	taddcc  %g0, %g6, %g3
    3020:	87 00 00 07 	taddcc  %g0, %g7, %g3
    3024:	87 00 00 08 	taddcc  %g0, %o0, %g3
    3028:	87 00 00 09 	taddcc  %g0, %o1, %g3
    302c:	87 00 00 0a 	taddcc  %g0, %o2, %g3
    3030:	87 00 00 0b 	taddcc  %g0, %o3, %g3
    3034:	87 00 00 0c 	taddcc  %g0, %o4, %g3
    3038:	87 00 00 0d 	taddcc  %g0, %o5, %g3
    303c:	87 00 00 0e 	taddcc  %g0, %sp, %g3
    3040:	87 00 00 0f 	taddcc  %g0, %o7, %g3
    3044:	87 00 00 10 	taddcc  %g0, %l0, %g3
    3048:	87 00 00 11 	taddcc  %g0, %l1, %g3
    304c:	87 00 00 12 	taddcc  %g0, %l2, %g3
    3050:	87 00 00 13 	taddcc  %g0, %l3, %g3
    3054:	87 00 00 14 	taddcc  %g0, %l4, %g3
    3058:	87 00 00 15 	taddcc  %g0, %l5, %g3
    305c:	87 00 00 16 	taddcc  %g0, %l6, %g3
    3060:	87 00 00 17 	taddcc  %g0, %l7, %g3
    3064:	87 00 00 18 	taddcc  %g0, %i0, %g3
    3068:	87 00 00 19 	taddcc  %g0, %i1, %g3
    306c:	87 00 00 1a 	taddcc  %g0, %i2, %g3
    3070:	87 00 00 1b 	taddcc  %g0, %i3, %g3
    3074:	87 00 00 1c 	taddcc  %g0, %i4, %g3
    3078:	87 00 00 1d 	taddcc  %g0, %i5, %g3
    307c:	87 00 00 1e 	taddcc  %g0, %fp, %g3
    3080:	87 00 00 1f 	taddcc  %g0, %i7, %g3
    3084:	87 00 40 00 	taddcc  %g1, %g0, %g3
    3088:	87 00 40 01 	taddcc  %g1, %g1, %g3
    308c:	87 00 40 02 	taddcc  %g1, %g2, %g3
    3090:	87 00 40 03 	taddcc  %g1, %g3, %g3
    3094:	87 00 40 04 	taddcc  %g1, %g4, %g3
    3098:	87 00 40 05 	taddcc  %g1, %g5, %g3
    309c:	87 00 40 06 	taddcc  %g1, %g6, %g3
    30a0:	87 00 40 07 	taddcc  %g1, %g7, %g3
    30a4:	87 00 40 08 	taddcc  %g1, %o0, %g3
    30a8:	87 00 40 09 	taddcc  %g1, %o1, %g3
    30ac:	87 00 40 0a 	taddcc  %g1, %o2, %g3
    30b0:	87 00 40 0b 	taddcc  %g1, %o3, %g3
    30b4:	87 00 40 0c 	taddcc  %g1, %o4, %g3
    30b8:	87 00 40 0d 	taddcc  %g1, %o5, %g3
    30bc:	87 00 40 0e 	taddcc  %g1, %sp, %g3
    30c0:	87 00 40 0f 	taddcc  %g1, %o7, %g3
    30c4:	87 00 40 10 	taddcc  %g1, %l0, %g3
    30c8:	87 00 40 11 	taddcc  %g1, %l1, %g3
    30cc:	87 00 40 12 	taddcc  %g1, %l2, %g3
    30d0:	87 00 40 13 	taddcc  %g1, %l3, %g3
    30d4:	87 00 40 14 	taddcc  %g1, %l4, %g3
    30d8:	87 00 40 15 	taddcc  %g1, %l5, %g3
    30dc:	87 00 40 16 	taddcc  %g1, %l6, %g3
    30e0:	87 00 40 17 	taddcc  %g1, %l7, %g3
    30e4:	87 00 40 18 	taddcc  %g1, %i0, %g3
    30e8:	87 00 40 19 	taddcc  %g1, %i1, %g3
    30ec:	87 00 40 1a 	taddcc  %g1, %i2, %g3
    30f0:	87 00 40 1b 	taddcc  %g1, %i3, %g3
    30f4:	87 00 40 1c 	taddcc  %g1, %i4, %g3
    30f8:	87 00 40 1d 	taddcc  %g1, %i5, %g3
    30fc:	87 00 40 1e 	taddcc  %g1, %fp, %g3
    3100:	87 00 40 1f 	taddcc  %g1, %i7, %g3
    3104:	87 00 80 00 	taddcc  %g2, %g0, %g3
    3108:	87 00 80 01 	taddcc  %g2, %g1, %g3
    310c:	87 00 80 02 	taddcc  %g2, %g2, %g3
    3110:	87 00 80 03 	taddcc  %g2, %g3, %g3
    3114:	87 00 80 04 	taddcc  %g2, %g4, %g3
    3118:	87 00 80 05 	taddcc  %g2, %g5, %g3
    311c:	87 00 80 06 	taddcc  %g2, %g6, %g3
    3120:	87 00 80 07 	taddcc  %g2, %g7, %g3
    3124:	87 00 80 08 	taddcc  %g2, %o0, %g3
    3128:	87 00 80 09 	taddcc  %g2, %o1, %g3
    312c:	87 00 80 0a 	taddcc  %g2, %o2, %g3
    3130:	87 00 80 0b 	taddcc  %g2, %o3, %g3
    3134:	87 00 80 0c 	taddcc  %g2, %o4, %g3
    3138:	87 00 80 0d 	taddcc  %g2, %o5, %g3
    313c:	87 00 80 0e 	taddcc  %g2, %sp, %g3
    3140:	87 00 80 0f 	taddcc  %g2, %o7, %g3
    3144:	87 00 80 10 	taddcc  %g2, %l0, %g3
    3148:	87 00 80 11 	taddcc  %g2, %l1, %g3
    314c:	87 00 80 12 	taddcc  %g2, %l2, %g3
    3150:	87 00 80 13 	taddcc  %g2, %l3, %g3
    3154:	87 00 80 14 	taddcc  %g2, %l4, %g3
    3158:	87 00 80 15 	taddcc  %g2, %l5, %g3
    315c:	87 00 80 16 	taddcc  %g2, %l6, %g3
    3160:	87 00 80 17 	taddcc  %g2, %l7, %g3
    3164:	87 00 80 18 	taddcc  %g2, %i0, %g3
    3168:	87 00 80 19 	taddcc  %g2, %i1, %g3
    316c:	87 00 80 1a 	taddcc  %g2, %i2, %g3
    3170:	87 00 80 1b 	taddcc  %g2, %i3, %g3
    3174:	87 00 80 1c 	taddcc  %g2, %i4, %g3
    3178:	87 00 80 1d 	taddcc  %g2, %i5, %g3
    317c:	87 00 80 1e 	taddcc  %g2, %fp, %g3
    3180:	87 00 80 1f 	taddcc  %g2, %i7, %g3
    3184:	87 00 c0 00 	taddcc  %g3, %g0, %g3
    3188:	87 00 c0 01 	taddcc  %g3, %g1, %g3
    318c:	87 00 c0 02 	taddcc  %g3, %g2, %g3
    3190:	87 00 c0 03 	taddcc  %g3, %g3, %g3
    3194:	87 00 c0 04 	taddcc  %g3, %g4, %g3
    3198:	87 00 c0 05 	taddcc  %g3, %g5, %g3
    319c:	87 00 c0 06 	taddcc  %g3, %g6, %g3
    31a0:	87 00 c0 07 	taddcc  %g3, %g7, %g3
    31a4:	87 00 c0 08 	taddcc  %g3, %o0, %g3
    31a8:	87 00 c0 09 	taddcc  %g3, %o1, %g3
    31ac:	87 00 c0 0a 	taddcc  %g3, %o2, %g3
    31b0:	87 00 c0 0b 	taddcc  %g3, %o3, %g3
    31b4:	87 00 c0 0c 	taddcc  %g3, %o4, %g3
    31b8:	87 00 c0 0d 	taddcc  %g3, %o5, %g3
    31bc:	87 00 c0 0e 	taddcc  %g3, %sp, %g3
    31c0:	87 00 c0 0f 	taddcc  %g3, %o7, %g3
    31c4:	87 00 c0 10 	taddcc  %g3, %l0, %g3
    31c8:	87 00 c0 11 	taddcc  %g3, %l1, %g3
    31cc:	87 00 c0 12 	taddcc  %g3, %l2, %g3
    31d0:	87 00 c0 13 	taddcc  %g3, %l3, %g3
    31d4:	87 00 c0 14 	taddcc  %g3, %l4, %g3
    31d8:	87 00 c0 15 	taddcc  %g3, %l5, %g3
    31dc:	87 00 c0 16 	taddcc  %g3, %l6, %g3
    31e0:	87 00 c0 17 	taddcc  %g3, %l7, %g3
    31e4:	87 00 c0 18 	taddcc  %g3, %i0, %g3
    31e8:	87 00 c0 19 	taddcc  %g3, %i1, %g3
    31ec:	87 00 c0 1a 	taddcc  %g3, %i2, %g3
    31f0:	87 00 c0 1b 	taddcc  %g3, %i3, %g3
    31f4:	87 00 c0 1c 	taddcc  %g3, %i4, %g3
    31f8:	87 00 c0 1d 	taddcc  %g3, %i5, %g3
    31fc:	87 00 c0 1e 	taddcc  %g3, %fp, %g3
    3200:	87 00 c0 1f 	taddcc  %g3, %i7, %g3
    3204:	87 01 00 00 	taddcc  %g4, %g0, %g3
    3208:	87 01 00 01 	taddcc  %g4, %g1, %g3
    320c:	87 01 00 02 	taddcc  %g4, %g2, %g3
    3210:	87 01 00 03 	taddcc  %g4, %g3, %g3
    3214:	87 01 00 04 	taddcc  %g4, %g4, %g3
    3218:	87 01 00 05 	taddcc  %g4, %g5, %g3
    321c:	87 01 00 06 	taddcc  %g4, %g6, %g3
    3220:	87 01 00 07 	taddcc  %g4, %g7, %g3
    3224:	87 01 00 08 	taddcc  %g4, %o0, %g3
    3228:	87 01 00 09 	taddcc  %g4, %o1, %g3
    322c:	87 01 00 0a 	taddcc  %g4, %o2, %g3
    3230:	87 01 00 0b 	taddcc  %g4, %o3, %g3
    3234:	87 01 00 0c 	taddcc  %g4, %o4, %g3
    3238:	87 01 00 0d 	taddcc  %g4, %o5, %g3
    323c:	87 01 00 0e 	taddcc  %g4, %sp, %g3
    3240:	87 01 00 0f 	taddcc  %g4, %o7, %g3
    3244:	87 01 00 10 	taddcc  %g4, %l0, %g3
    3248:	87 01 00 11 	taddcc  %g4, %l1, %g3
    324c:	87 01 00 12 	taddcc  %g4, %l2, %g3
    3250:	87 01 00 13 	taddcc  %g4, %l3, %g3
    3254:	87 01 00 14 	taddcc  %g4, %l4, %g3
    3258:	87 01 00 15 	taddcc  %g4, %l5, %g3
    325c:	87 01 00 16 	taddcc  %g4, %l6, %g3
    3260:	87 01 00 17 	taddcc  %g4, %l7, %g3
    3264:	87 01 00 18 	taddcc  %g4, %i0, %g3
    3268:	87 01 00 19 	taddcc  %g4, %i1, %g3
    326c:	87 01 00 1a 	taddcc  %g4, %i2, %g3
    3270:	87 01 00 1b 	taddcc  %g4, %i3, %g3
    3274:	87 01 00 1c 	taddcc  %g4, %i4, %g3
    3278:	87 01 00 1d 	taddcc  %g4, %i5, %g3
    327c:	87 01 00 1e 	taddcc  %g4, %fp, %g3
    3280:	87 01 00 1f 	taddcc  %g4, %i7, %g3
    3284:	87 01 40 00 	taddcc  %g5, %g0, %g3
    3288:	87 01 40 01 	taddcc  %g5, %g1, %g3
    328c:	87 01 40 02 	taddcc  %g5, %g2, %g3
    3290:	87 01 40 03 	taddcc  %g5, %g3, %g3
    3294:	87 01 40 04 	taddcc  %g5, %g4, %g3
    3298:	87 01 40 05 	taddcc  %g5, %g5, %g3
    329c:	87 01 40 06 	taddcc  %g5, %g6, %g3
    32a0:	87 01 40 07 	taddcc  %g5, %g7, %g3
    32a4:	87 01 40 08 	taddcc  %g5, %o0, %g3
    32a8:	87 01 40 09 	taddcc  %g5, %o1, %g3
    32ac:	87 01 40 0a 	taddcc  %g5, %o2, %g3
    32b0:	87 01 40 0b 	taddcc  %g5, %o3, %g3
    32b4:	87 01 40 0c 	taddcc  %g5, %o4, %g3
    32b8:	87 01 40 0d 	taddcc  %g5, %o5, %g3
    32bc:	87 01 40 0e 	taddcc  %g5, %sp, %g3
    32c0:	87 01 40 0f 	taddcc  %g5, %o7, %g3
    32c4:	87 01 40 10 	taddcc  %g5, %l0, %g3
    32c8:	87 01 40 11 	taddcc  %g5, %l1, %g3
    32cc:	87 01 40 12 	taddcc  %g5, %l2, %g3
    32d0:	87 01 40 13 	taddcc  %g5, %l3, %g3
    32d4:	87 01 40 14 	taddcc  %g5, %l4, %g3
    32d8:	87 01 40 15 	taddcc  %g5, %l5, %g3
    32dc:	87 01 40 16 	taddcc  %g5, %l6, %g3
    32e0:	87 01 40 17 	taddcc  %g5, %l7, %g3
    32e4:	87 01 40 18 	taddcc  %g5, %i0, %g3
    32e8:	87 01 40 19 	taddcc  %g5, %i1, %g3
    32ec:	87 01 40 1a 	taddcc  %g5, %i2, %g3
    32f0:	87 01 40 1b 	taddcc  %g5, %i3, %g3
    32f4:	87 01 40 1c 	taddcc  %g5, %i4, %g3
    32f8:	87 01 40 1d 	taddcc  %g5, %i5, %g3
    32fc:	87 01 40 1e 	taddcc  %g5, %fp, %g3
    3300:	87 01 40 1f 	taddcc  %g5, %i7, %g3
    3304:	87 01 80 00 	taddcc  %g6, %g0, %g3
    3308:	87 01 80 01 	taddcc  %g6, %g1, %g3
    330c:	87 01 80 02 	taddcc  %g6, %g2, %g3
    3310:	87 01 80 03 	taddcc  %g6, %g3, %g3
    3314:	87 01 80 04 	taddcc  %g6, %g4, %g3
    3318:	87 01 80 05 	taddcc  %g6, %g5, %g3
    331c:	87 01 80 06 	taddcc  %g6, %g6, %g3
    3320:	87 01 80 07 	taddcc  %g6, %g7, %g3
    3324:	87 01 80 08 	taddcc  %g6, %o0, %g3
    3328:	87 01 80 09 	taddcc  %g6, %o1, %g3
    332c:	87 01 80 0a 	taddcc  %g6, %o2, %g3
    3330:	87 01 80 0b 	taddcc  %g6, %o3, %g3
    3334:	87 01 80 0c 	taddcc  %g6, %o4, %g3
    3338:	87 01 80 0d 	taddcc  %g6, %o5, %g3
    333c:	87 01 80 0e 	taddcc  %g6, %sp, %g3
    3340:	87 01 80 0f 	taddcc  %g6, %o7, %g3
    3344:	87 01 80 10 	taddcc  %g6, %l0, %g3
    3348:	87 01 80 11 	taddcc  %g6, %l1, %g3
    334c:	87 01 80 12 	taddcc  %g6, %l2, %g3
    3350:	87 01 80 13 	taddcc  %g6, %l3, %g3
    3354:	87 01 80 14 	taddcc  %g6, %l4, %g3
    3358:	87 01 80 15 	taddcc  %g6, %l5, %g3
    335c:	87 01 80 16 	taddcc  %g6, %l6, %g3
    3360:	87 01 80 17 	taddcc  %g6, %l7, %g3
    3364:	87 01 80 18 	taddcc  %g6, %i0, %g3
    3368:	87 01 80 19 	taddcc  %g6, %i1, %g3
    336c:	87 01 80 1a 	taddcc  %g6, %i2, %g3
    3370:	87 01 80 1b 	taddcc  %g6, %i3, %g3
    3374:	87 01 80 1c 	taddcc  %g6, %i4, %g3
    3378:	87 01 80 1d 	taddcc  %g6, %i5, %g3
    337c:	87 01 80 1e 	taddcc  %g6, %fp, %g3
    3380:	87 01 80 1f 	taddcc  %g6, %i7, %g3
    3384:	87 01 c0 00 	taddcc  %g7, %g0, %g3
    3388:	87 01 c0 01 	taddcc  %g7, %g1, %g3
    338c:	87 01 c0 02 	taddcc  %g7, %g2, %g3
    3390:	87 01 c0 03 	taddcc  %g7, %g3, %g3
    3394:	87 01 c0 04 	taddcc  %g7, %g4, %g3
    3398:	87 01 c0 05 	taddcc  %g7, %g5, %g3
    339c:	87 01 c0 06 	taddcc  %g7, %g6, %g3
    33a0:	87 01 c0 07 	taddcc  %g7, %g7, %g3
    33a4:	87 01 c0 08 	taddcc  %g7, %o0, %g3
    33a8:	87 01 c0 09 	taddcc  %g7, %o1, %g3
    33ac:	87 01 c0 0a 	taddcc  %g7, %o2, %g3
    33b0:	87 01 c0 0b 	taddcc  %g7, %o3, %g3
    33b4:	87 01 c0 0c 	taddcc  %g7, %o4, %g3
    33b8:	87 01 c0 0d 	taddcc  %g7, %o5, %g3
    33bc:	87 01 c0 0e 	taddcc  %g7, %sp, %g3
    33c0:	87 01 c0 0f 	taddcc  %g7, %o7, %g3
    33c4:	87 01 c0 10 	taddcc  %g7, %l0, %g3
    33c8:	87 01 c0 11 	taddcc  %g7, %l1, %g3
    33cc:	87 01 c0 12 	taddcc  %g7, %l2, %g3
    33d0:	87 01 c0 13 	taddcc  %g7, %l3, %g3
    33d4:	87 01 c0 14 	taddcc  %g7, %l4, %g3
    33d8:	87 01 c0 15 	taddcc  %g7, %l5, %g3
    33dc:	87 01 c0 16 	taddcc  %g7, %l6, %g3
    33e0:	87 01 c0 17 	taddcc  %g7, %l7, %g3
    33e4:	87 01 c0 18 	taddcc  %g7, %i0, %g3
    33e8:	87 01 c0 19 	taddcc  %g7, %i1, %g3
    33ec:	87 01 c0 1a 	taddcc  %g7, %i2, %g3
    33f0:	87 01 c0 1b 	taddcc  %g7, %i3, %g3
    33f4:	87 01 c0 1c 	taddcc  %g7, %i4, %g3
    33f8:	87 01 c0 1d 	taddcc  %g7, %i5, %g3
    33fc:	87 01 c0 1e 	taddcc  %g7, %fp, %g3
    3400:	87 01 c0 1f 	taddcc  %g7, %i7, %g3
    3404:	87 02 00 00 	taddcc  %o0, %g0, %g3
    3408:	87 02 00 01 	taddcc  %o0, %g1, %g3
    340c:	87 02 00 02 	taddcc  %o0, %g2, %g3
    3410:	87 02 00 03 	taddcc  %o0, %g3, %g3
    3414:	87 02 00 04 	taddcc  %o0, %g4, %g3
    3418:	87 02 00 05 	taddcc  %o0, %g5, %g3
    341c:	87 02 00 06 	taddcc  %o0, %g6, %g3
    3420:	87 02 00 07 	taddcc  %o0, %g7, %g3
    3424:	87 02 00 08 	taddcc  %o0, %o0, %g3
    3428:	87 02 00 09 	taddcc  %o0, %o1, %g3
    342c:	87 02 00 0a 	taddcc  %o0, %o2, %g3
    3430:	87 02 00 0b 	taddcc  %o0, %o3, %g3
    3434:	87 02 00 0c 	taddcc  %o0, %o4, %g3
    3438:	87 02 00 0d 	taddcc  %o0, %o5, %g3
    343c:	87 02 00 0e 	taddcc  %o0, %sp, %g3
    3440:	87 02 00 0f 	taddcc  %o0, %o7, %g3
    3444:	87 02 00 10 	taddcc  %o0, %l0, %g3
    3448:	87 02 00 11 	taddcc  %o0, %l1, %g3
    344c:	87 02 00 12 	taddcc  %o0, %l2, %g3
    3450:	87 02 00 13 	taddcc  %o0, %l3, %g3
    3454:	87 02 00 14 	taddcc  %o0, %l4, %g3
    3458:	87 02 00 15 	taddcc  %o0, %l5, %g3
    345c:	87 02 00 16 	taddcc  %o0, %l6, %g3
    3460:	87 02 00 17 	taddcc  %o0, %l7, %g3
    3464:	87 02 00 18 	taddcc  %o0, %i0, %g3
    3468:	87 02 00 19 	taddcc  %o0, %i1, %g3
    346c:	87 02 00 1a 	taddcc  %o0, %i2, %g3
    3470:	87 02 00 1b 	taddcc  %o0, %i3, %g3
    3474:	87 02 00 1c 	taddcc  %o0, %i4, %g3
    3478:	87 02 00 1d 	taddcc  %o0, %i5, %g3
    347c:	87 02 00 1e 	taddcc  %o0, %fp, %g3
    3480:	87 02 00 1f 	taddcc  %o0, %i7, %g3
    3484:	87 02 40 00 	taddcc  %o1, %g0, %g3
    3488:	87 02 40 01 	taddcc  %o1, %g1, %g3
    348c:	87 02 40 02 	taddcc  %o1, %g2, %g3
    3490:	87 02 40 03 	taddcc  %o1, %g3, %g3
    3494:	87 02 40 04 	taddcc  %o1, %g4, %g3
    3498:	87 02 40 05 	taddcc  %o1, %g5, %g3
    349c:	87 02 40 06 	taddcc  %o1, %g6, %g3
    34a0:	87 02 40 07 	taddcc  %o1, %g7, %g3
    34a4:	87 02 40 08 	taddcc  %o1, %o0, %g3
    34a8:	87 02 40 09 	taddcc  %o1, %o1, %g3
    34ac:	87 02 40 0a 	taddcc  %o1, %o2, %g3
    34b0:	87 02 40 0b 	taddcc  %o1, %o3, %g3
    34b4:	87 02 40 0c 	taddcc  %o1, %o4, %g3
    34b8:	87 02 40 0d 	taddcc  %o1, %o5, %g3
    34bc:	87 02 40 0e 	taddcc  %o1, %sp, %g3
    34c0:	87 02 40 0f 	taddcc  %o1, %o7, %g3
    34c4:	87 02 40 10 	taddcc  %o1, %l0, %g3
    34c8:	87 02 40 11 	taddcc  %o1, %l1, %g3
    34cc:	87 02 40 12 	taddcc  %o1, %l2, %g3
    34d0:	87 02 40 13 	taddcc  %o1, %l3, %g3
    34d4:	87 02 40 14 	taddcc  %o1, %l4, %g3
    34d8:	87 02 40 15 	taddcc  %o1, %l5, %g3
    34dc:	87 02 40 16 	taddcc  %o1, %l6, %g3
    34e0:	87 02 40 17 	taddcc  %o1, %l7, %g3
    34e4:	87 02 40 18 	taddcc  %o1, %i0, %g3
    34e8:	87 02 40 19 	taddcc  %o1, %i1, %g3
    34ec:	87 02 40 1a 	taddcc  %o1, %i2, %g3
    34f0:	87 02 40 1b 	taddcc  %o1, %i3, %g3
    34f4:	87 02 40 1c 	taddcc  %o1, %i4, %g3
    34f8:	87 02 40 1d 	taddcc  %o1, %i5, %g3
    34fc:	87 02 40 1e 	taddcc  %o1, %fp, %g3
    3500:	87 02 40 1f 	taddcc  %o1, %i7, %g3
    3504:	87 02 80 00 	taddcc  %o2, %g0, %g3
    3508:	87 02 80 01 	taddcc  %o2, %g1, %g3
    350c:	87 02 80 02 	taddcc  %o2, %g2, %g3
    3510:	87 02 80 03 	taddcc  %o2, %g3, %g3
    3514:	87 02 80 04 	taddcc  %o2, %g4, %g3
    3518:	87 02 80 05 	taddcc  %o2, %g5, %g3
    351c:	87 02 80 06 	taddcc  %o2, %g6, %g3
    3520:	87 02 80 07 	taddcc  %o2, %g7, %g3
    3524:	87 02 80 08 	taddcc  %o2, %o0, %g3
    3528:	87 02 80 09 	taddcc  %o2, %o1, %g3
    352c:	87 02 80 0a 	taddcc  %o2, %o2, %g3
    3530:	87 02 80 0b 	taddcc  %o2, %o3, %g3
    3534:	87 02 80 0c 	taddcc  %o2, %o4, %g3
    3538:	87 02 80 0d 	taddcc  %o2, %o5, %g3
    353c:	87 02 80 0e 	taddcc  %o2, %sp, %g3
    3540:	87 02 80 0f 	taddcc  %o2, %o7, %g3
    3544:	87 02 80 10 	taddcc  %o2, %l0, %g3
    3548:	87 02 80 11 	taddcc  %o2, %l1, %g3
    354c:	87 02 80 12 	taddcc  %o2, %l2, %g3
    3550:	87 02 80 13 	taddcc  %o2, %l3, %g3
    3554:	87 02 80 14 	taddcc  %o2, %l4, %g3
    3558:	87 02 80 15 	taddcc  %o2, %l5, %g3
    355c:	87 02 80 16 	taddcc  %o2, %l6, %g3
    3560:	87 02 80 17 	taddcc  %o2, %l7, %g3
    3564:	87 02 80 18 	taddcc  %o2, %i0, %g3
    3568:	87 02 80 19 	taddcc  %o2, %i1, %g3
    356c:	87 02 80 1a 	taddcc  %o2, %i2, %g3
    3570:	87 02 80 1b 	taddcc  %o2, %i3, %g3
    3574:	87 02 80 1c 	taddcc  %o2, %i4, %g3
    3578:	87 02 80 1d 	taddcc  %o2, %i5, %g3
    357c:	87 02 80 1e 	taddcc  %o2, %fp, %g3
    3580:	87 02 80 1f 	taddcc  %o2, %i7, %g3
    3584:	87 02 c0 00 	taddcc  %o3, %g0, %g3
    3588:	87 02 c0 01 	taddcc  %o3, %g1, %g3
    358c:	87 02 c0 02 	taddcc  %o3, %g2, %g3
    3590:	87 02 c0 03 	taddcc  %o3, %g3, %g3
    3594:	87 02 c0 04 	taddcc  %o3, %g4, %g3
    3598:	87 02 c0 05 	taddcc  %o3, %g5, %g3
    359c:	87 02 c0 06 	taddcc  %o3, %g6, %g3
    35a0:	87 02 c0 07 	taddcc  %o3, %g7, %g3
    35a4:	87 02 c0 08 	taddcc  %o3, %o0, %g3
    35a8:	87 02 c0 09 	taddcc  %o3, %o1, %g3
    35ac:	87 02 c0 0a 	taddcc  %o3, %o2, %g3
    35b0:	87 02 c0 0b 	taddcc  %o3, %o3, %g3
    35b4:	87 02 c0 0c 	taddcc  %o3, %o4, %g3
    35b8:	87 02 c0 0d 	taddcc  %o3, %o5, %g3
    35bc:	87 02 c0 0e 	taddcc  %o3, %sp, %g3
    35c0:	87 02 c0 0f 	taddcc  %o3, %o7, %g3
    35c4:	87 02 c0 10 	taddcc  %o3, %l0, %g3
    35c8:	87 02 c0 11 	taddcc  %o3, %l1, %g3
    35cc:	87 02 c0 12 	taddcc  %o3, %l2, %g3
    35d0:	87 02 c0 13 	taddcc  %o3, %l3, %g3
    35d4:	87 02 c0 14 	taddcc  %o3, %l4, %g3
    35d8:	87 02 c0 15 	taddcc  %o3, %l5, %g3
    35dc:	87 02 c0 16 	taddcc  %o3, %l6, %g3
    35e0:	87 02 c0 17 	taddcc  %o3, %l7, %g3
    35e4:	87 02 c0 18 	taddcc  %o3, %i0, %g3
    35e8:	87 02 c0 19 	taddcc  %o3, %i1, %g3
    35ec:	87 02 c0 1a 	taddcc  %o3, %i2, %g3
    35f0:	87 02 c0 1b 	taddcc  %o3, %i3, %g3
    35f4:	87 02 c0 1c 	taddcc  %o3, %i4, %g3
    35f8:	87 02 c0 1d 	taddcc  %o3, %i5, %g3
    35fc:	87 02 c0 1e 	taddcc  %o3, %fp, %g3
    3600:	87 02 c0 1f 	taddcc  %o3, %i7, %g3
    3604:	87 03 00 00 	taddcc  %o4, %g0, %g3
    3608:	87 03 00 01 	taddcc  %o4, %g1, %g3
    360c:	87 03 00 02 	taddcc  %o4, %g2, %g3
    3610:	87 03 00 03 	taddcc  %o4, %g3, %g3
    3614:	87 03 00 04 	taddcc  %o4, %g4, %g3
    3618:	87 03 00 05 	taddcc  %o4, %g5, %g3
    361c:	87 03 00 06 	taddcc  %o4, %g6, %g3
    3620:	87 03 00 07 	taddcc  %o4, %g7, %g3
    3624:	87 03 00 08 	taddcc  %o4, %o0, %g3
    3628:	87 03 00 09 	taddcc  %o4, %o1, %g3
    362c:	87 03 00 0a 	taddcc  %o4, %o2, %g3
    3630:	87 03 00 0b 	taddcc  %o4, %o3, %g3
    3634:	87 03 00 0c 	taddcc  %o4, %o4, %g3
    3638:	87 03 00 0d 	taddcc  %o4, %o5, %g3
    363c:	87 03 00 0e 	taddcc  %o4, %sp, %g3
    3640:	87 03 00 0f 	taddcc  %o4, %o7, %g3
    3644:	87 03 00 10 	taddcc  %o4, %l0, %g3
    3648:	87 03 00 11 	taddcc  %o4, %l1, %g3
    364c:	87 03 00 12 	taddcc  %o4, %l2, %g3
    3650:	87 03 00 13 	taddcc  %o4, %l3, %g3
    3654:	87 03 00 14 	taddcc  %o4, %l4, %g3
    3658:	87 03 00 15 	taddcc  %o4, %l5, %g3
    365c:	87 03 00 16 	taddcc  %o4, %l6, %g3
    3660:	87 03 00 17 	taddcc  %o4, %l7, %g3
    3664:	87 03 00 18 	taddcc  %o4, %i0, %g3
    3668:	87 03 00 19 	taddcc  %o4, %i1, %g3
    366c:	87 03 00 1a 	taddcc  %o4, %i2, %g3
    3670:	87 03 00 1b 	taddcc  %o4, %i3, %g3
    3674:	87 03 00 1c 	taddcc  %o4, %i4, %g3
    3678:	87 03 00 1d 	taddcc  %o4, %i5, %g3
    367c:	87 03 00 1e 	taddcc  %o4, %fp, %g3
    3680:	87 03 00 1f 	taddcc  %o4, %i7, %g3
    3684:	87 03 40 00 	taddcc  %o5, %g0, %g3
    3688:	87 03 40 01 	taddcc  %o5, %g1, %g3
    368c:	87 03 40 02 	taddcc  %o5, %g2, %g3
    3690:	87 03 40 03 	taddcc  %o5, %g3, %g3
    3694:	87 03 40 04 	taddcc  %o5, %g4, %g3
    3698:	87 03 40 05 	taddcc  %o5, %g5, %g3
    369c:	87 03 40 06 	taddcc  %o5, %g6, %g3
    36a0:	87 03 40 07 	taddcc  %o5, %g7, %g3
    36a4:	87 03 40 08 	taddcc  %o5, %o0, %g3
    36a8:	87 03 40 09 	taddcc  %o5, %o1, %g3
    36ac:	87 03 40 0a 	taddcc  %o5, %o2, %g3
    36b0:	87 03 40 0b 	taddcc  %o5, %o3, %g3
    36b4:	87 03 40 0c 	taddcc  %o5, %o4, %g3
    36b8:	87 03 40 0d 	taddcc  %o5, %o5, %g3
    36bc:	87 03 40 0e 	taddcc  %o5, %sp, %g3
    36c0:	87 03 40 0f 	taddcc  %o5, %o7, %g3
    36c4:	87 03 40 10 	taddcc  %o5, %l0, %g3
    36c8:	87 03 40 11 	taddcc  %o5, %l1, %g3
    36cc:	87 03 40 12 	taddcc  %o5, %l2, %g3
    36d0:	87 03 40 13 	taddcc  %o5, %l3, %g3
    36d4:	87 03 40 14 	taddcc  %o5, %l4, %g3
    36d8:	87 03 40 15 	taddcc  %o5, %l5, %g3
    36dc:	87 03 40 16 	taddcc  %o5, %l6, %g3
    36e0:	87 03 40 17 	taddcc  %o5, %l7, %g3
    36e4:	87 03 40 18 	taddcc  %o5, %i0, %g3
    36e8:	87 03 40 19 	taddcc  %o5, %i1, %g3
    36ec:	87 03 40 1a 	taddcc  %o5, %i2, %g3
    36f0:	87 03 40 1b 	taddcc  %o5, %i3, %g3
    36f4:	87 03 40 1c 	taddcc  %o5, %i4, %g3
    36f8:	87 03 40 1d 	taddcc  %o5, %i5, %g3
    36fc:	87 03 40 1e 	taddcc  %o5, %fp, %g3
    3700:	87 03 40 1f 	taddcc  %o5, %i7, %g3
    3704:	87 03 80 00 	taddcc  %sp, %g0, %g3
    3708:	87 03 80 01 	taddcc  %sp, %g1, %g3
    370c:	87 03 80 02 	taddcc  %sp, %g2, %g3
    3710:	87 03 80 03 	taddcc  %sp, %g3, %g3
    3714:	87 03 80 04 	taddcc  %sp, %g4, %g3
    3718:	87 03 80 05 	taddcc  %sp, %g5, %g3
    371c:	87 03 80 06 	taddcc  %sp, %g6, %g3
    3720:	87 03 80 07 	taddcc  %sp, %g7, %g3
    3724:	87 03 80 08 	taddcc  %sp, %o0, %g3
    3728:	87 03 80 09 	taddcc  %sp, %o1, %g3
    372c:	87 03 80 0a 	taddcc  %sp, %o2, %g3
    3730:	87 03 80 0b 	taddcc  %sp, %o3, %g3
    3734:	87 03 80 0c 	taddcc  %sp, %o4, %g3
    3738:	87 03 80 0d 	taddcc  %sp, %o5, %g3
    373c:	87 03 80 0e 	taddcc  %sp, %sp, %g3
    3740:	87 03 80 0f 	taddcc  %sp, %o7, %g3
    3744:	87 03 80 10 	taddcc  %sp, %l0, %g3
    3748:	87 03 80 11 	taddcc  %sp, %l1, %g3
    374c:	87 03 80 12 	taddcc  %sp, %l2, %g3
    3750:	87 03 80 13 	taddcc  %sp, %l3, %g3
    3754:	87 03 80 14 	taddcc  %sp, %l4, %g3
    3758:	87 03 80 15 	taddcc  %sp, %l5, %g3
    375c:	87 03 80 16 	taddcc  %sp, %l6, %g3
    3760:	87 03 80 17 	taddcc  %sp, %l7, %g3
    3764:	87 03 80 18 	taddcc  %sp, %i0, %g3
    3768:	87 03 80 19 	taddcc  %sp, %i1, %g3
    376c:	87 03 80 1a 	taddcc  %sp, %i2, %g3
    3770:	87 03 80 1b 	taddcc  %sp, %i3, %g3
    3774:	87 03 80 1c 	taddcc  %sp, %i4, %g3
    3778:	87 03 80 1d 	taddcc  %sp, %i5, %g3
    377c:	87 03 80 1e 	taddcc  %sp, %fp, %g3
    3780:	87 03 80 1f 	taddcc  %sp, %i7, %g3
    3784:	87 03 c0 00 	taddcc  %o7, %g0, %g3
    3788:	87 03 c0 01 	taddcc  %o7, %g1, %g3
    378c:	87 03 c0 02 	taddcc  %o7, %g2, %g3
    3790:	87 03 c0 03 	taddcc  %o7, %g3, %g3
    3794:	87 03 c0 04 	taddcc  %o7, %g4, %g3
    3798:	87 03 c0 05 	taddcc  %o7, %g5, %g3
    379c:	87 03 c0 06 	taddcc  %o7, %g6, %g3
    37a0:	87 03 c0 07 	taddcc  %o7, %g7, %g3
    37a4:	87 03 c0 08 	taddcc  %o7, %o0, %g3
    37a8:	87 03 c0 09 	taddcc  %o7, %o1, %g3
    37ac:	87 03 c0 0a 	taddcc  %o7, %o2, %g3
    37b0:	87 03 c0 0b 	taddcc  %o7, %o3, %g3
    37b4:	87 03 c0 0c 	taddcc  %o7, %o4, %g3
    37b8:	87 03 c0 0d 	taddcc  %o7, %o5, %g3
    37bc:	87 03 c0 0e 	taddcc  %o7, %sp, %g3
    37c0:	87 03 c0 0f 	taddcc  %o7, %o7, %g3
    37c4:	87 03 c0 10 	taddcc  %o7, %l0, %g3
    37c8:	87 03 c0 11 	taddcc  %o7, %l1, %g3
    37cc:	87 03 c0 12 	taddcc  %o7, %l2, %g3
    37d0:	87 03 c0 13 	taddcc  %o7, %l3, %g3
    37d4:	87 03 c0 14 	taddcc  %o7, %l4, %g3
    37d8:	87 03 c0 15 	taddcc  %o7, %l5, %g3
    37dc:	87 03 c0 16 	taddcc  %o7, %l6, %g3
    37e0:	87 03 c0 17 	taddcc  %o7, %l7, %g3
    37e4:	87 03 c0 18 	taddcc  %o7, %i0, %g3
    37e8:	87 03 c0 19 	taddcc  %o7, %i1, %g3
    37ec:	87 03 c0 1a 	taddcc  %o7, %i2, %g3
    37f0:	87 03 c0 1b 	taddcc  %o7, %i3, %g3
    37f4:	87 03 c0 1c 	taddcc  %o7, %i4, %g3
    37f8:	87 03 c0 1d 	taddcc  %o7, %i5, %g3
    37fc:	87 03 c0 1e 	taddcc  %o7, %fp, %g3
    3800:	87 03 c0 1f 	taddcc  %o7, %i7, %g3
    3804:	87 04 00 00 	taddcc  %l0, %g0, %g3
    3808:	87 04 00 01 	taddcc  %l0, %g1, %g3
    380c:	87 04 00 02 	taddcc  %l0, %g2, %g3
    3810:	87 04 00 03 	taddcc  %l0, %g3, %g3
    3814:	87 04 00 04 	taddcc  %l0, %g4, %g3
    3818:	87 04 00 05 	taddcc  %l0, %g5, %g3
    381c:	87 04 00 06 	taddcc  %l0, %g6, %g3
    3820:	87 04 00 07 	taddcc  %l0, %g7, %g3
    3824:	87 04 00 08 	taddcc  %l0, %o0, %g3
    3828:	87 04 00 09 	taddcc  %l0, %o1, %g3
    382c:	87 04 00 0a 	taddcc  %l0, %o2, %g3
    3830:	87 04 00 0b 	taddcc  %l0, %o3, %g3
    3834:	87 04 00 0c 	taddcc  %l0, %o4, %g3
    3838:	87 04 00 0d 	taddcc  %l0, %o5, %g3
    383c:	87 04 00 0e 	taddcc  %l0, %sp, %g3
    3840:	87 04 00 0f 	taddcc  %l0, %o7, %g3
    3844:	87 04 00 10 	taddcc  %l0, %l0, %g3
    3848:	87 04 00 11 	taddcc  %l0, %l1, %g3
    384c:	87 04 00 12 	taddcc  %l0, %l2, %g3
    3850:	87 04 00 13 	taddcc  %l0, %l3, %g3
    3854:	87 04 00 14 	taddcc  %l0, %l4, %g3
    3858:	87 04 00 15 	taddcc  %l0, %l5, %g3
    385c:	87 04 00 16 	taddcc  %l0, %l6, %g3
    3860:	87 04 00 17 	taddcc  %l0, %l7, %g3
    3864:	87 04 00 18 	taddcc  %l0, %i0, %g3
    3868:	87 04 00 19 	taddcc  %l0, %i1, %g3
    386c:	87 04 00 1a 	taddcc  %l0, %i2, %g3
    3870:	87 04 00 1b 	taddcc  %l0, %i3, %g3
    3874:	87 04 00 1c 	taddcc  %l0, %i4, %g3
    3878:	87 04 00 1d 	taddcc  %l0, %i5, %g3
    387c:	87 04 00 1e 	taddcc  %l0, %fp, %g3
    3880:	87 04 00 1f 	taddcc  %l0, %i7, %g3
    3884:	87 04 40 00 	taddcc  %l1, %g0, %g3
    3888:	87 04 40 01 	taddcc  %l1, %g1, %g3
    388c:	87 04 40 02 	taddcc  %l1, %g2, %g3
    3890:	87 04 40 03 	taddcc  %l1, %g3, %g3
    3894:	87 04 40 04 	taddcc  %l1, %g4, %g3
    3898:	87 04 40 05 	taddcc  %l1, %g5, %g3
    389c:	87 04 40 06 	taddcc  %l1, %g6, %g3
    38a0:	87 04 40 07 	taddcc  %l1, %g7, %g3
    38a4:	87 04 40 08 	taddcc  %l1, %o0, %g3
    38a8:	87 04 40 09 	taddcc  %l1, %o1, %g3
    38ac:	87 04 40 0a 	taddcc  %l1, %o2, %g3
    38b0:	87 04 40 0b 	taddcc  %l1, %o3, %g3
    38b4:	87 04 40 0c 	taddcc  %l1, %o4, %g3
    38b8:	87 04 40 0d 	taddcc  %l1, %o5, %g3
    38bc:	87 04 40 0e 	taddcc  %l1, %sp, %g3
    38c0:	87 04 40 0f 	taddcc  %l1, %o7, %g3
    38c4:	87 04 40 10 	taddcc  %l1, %l0, %g3
    38c8:	87 04 40 11 	taddcc  %l1, %l1, %g3
    38cc:	87 04 40 12 	taddcc  %l1, %l2, %g3
    38d0:	87 04 40 13 	taddcc  %l1, %l3, %g3
    38d4:	87 04 40 14 	taddcc  %l1, %l4, %g3
    38d8:	87 04 40 15 	taddcc  %l1, %l5, %g3
    38dc:	87 04 40 16 	taddcc  %l1, %l6, %g3
    38e0:	87 04 40 17 	taddcc  %l1, %l7, %g3
    38e4:	87 04 40 18 	taddcc  %l1, %i0, %g3
    38e8:	87 04 40 19 	taddcc  %l1, %i1, %g3
    38ec:	87 04 40 1a 	taddcc  %l1, %i2, %g3
    38f0:	87 04 40 1b 	taddcc  %l1, %i3, %g3
    38f4:	87 04 40 1c 	taddcc  %l1, %i4, %g3
    38f8:	87 04 40 1d 	taddcc  %l1, %i5, %g3
    38fc:	87 04 40 1e 	taddcc  %l1, %fp, %g3
    3900:	87 04 40 1f 	taddcc  %l1, %i7, %g3
    3904:	87 04 80 00 	taddcc  %l2, %g0, %g3
    3908:	87 04 80 01 	taddcc  %l2, %g1, %g3
    390c:	87 04 80 02 	taddcc  %l2, %g2, %g3
    3910:	87 04 80 03 	taddcc  %l2, %g3, %g3
    3914:	87 04 80 04 	taddcc  %l2, %g4, %g3
    3918:	87 04 80 05 	taddcc  %l2, %g5, %g3
    391c:	87 04 80 06 	taddcc  %l2, %g6, %g3
    3920:	87 04 80 07 	taddcc  %l2, %g7, %g3
    3924:	87 04 80 08 	taddcc  %l2, %o0, %g3
    3928:	87 04 80 09 	taddcc  %l2, %o1, %g3
    392c:	87 04 80 0a 	taddcc  %l2, %o2, %g3
    3930:	87 04 80 0b 	taddcc  %l2, %o3, %g3
    3934:	87 04 80 0c 	taddcc  %l2, %o4, %g3
    3938:	87 04 80 0d 	taddcc  %l2, %o5, %g3
    393c:	87 04 80 0e 	taddcc  %l2, %sp, %g3
    3940:	87 04 80 0f 	taddcc  %l2, %o7, %g3
    3944:	87 04 80 10 	taddcc  %l2, %l0, %g3
    3948:	87 04 80 11 	taddcc  %l2, %l1, %g3
    394c:	87 04 80 12 	taddcc  %l2, %l2, %g3
    3950:	87 04 80 13 	taddcc  %l2, %l3, %g3
    3954:	87 04 80 14 	taddcc  %l2, %l4, %g3
    3958:	87 04 80 15 	taddcc  %l2, %l5, %g3
    395c:	87 04 80 16 	taddcc  %l2, %l6, %g3
    3960:	87 04 80 17 	taddcc  %l2, %l7, %g3
    3964:	87 04 80 18 	taddcc  %l2, %i0, %g3
    3968:	87 04 80 19 	taddcc  %l2, %i1, %g3
    396c:	87 04 80 1a 	taddcc  %l2, %i2, %g3
    3970:	87 04 80 1b 	taddcc  %l2, %i3, %g3
    3974:	87 04 80 1c 	taddcc  %l2, %i4, %g3
    3978:	87 04 80 1d 	taddcc  %l2, %i5, %g3
    397c:	87 04 80 1e 	taddcc  %l2, %fp, %g3
    3980:	87 04 80 1f 	taddcc  %l2, %i7, %g3
    3984:	87 04 c0 00 	taddcc  %l3, %g0, %g3
    3988:	87 04 c0 01 	taddcc  %l3, %g1, %g3
    398c:	87 04 c0 02 	taddcc  %l3, %g2, %g3
    3990:	87 04 c0 03 	taddcc  %l3, %g3, %g3
    3994:	87 04 c0 04 	taddcc  %l3, %g4, %g3
    3998:	87 04 c0 05 	taddcc  %l3, %g5, %g3
    399c:	87 04 c0 06 	taddcc  %l3, %g6, %g3
    39a0:	87 04 c0 07 	taddcc  %l3, %g7, %g3
    39a4:	87 04 c0 08 	taddcc  %l3, %o0, %g3
    39a8:	87 04 c0 09 	taddcc  %l3, %o1, %g3
    39ac:	87 04 c0 0a 	taddcc  %l3, %o2, %g3
    39b0:	87 04 c0 0b 	taddcc  %l3, %o3, %g3
    39b4:	87 04 c0 0c 	taddcc  %l3, %o4, %g3
    39b8:	87 04 c0 0d 	taddcc  %l3, %o5, %g3
    39bc:	87 04 c0 0e 	taddcc  %l3, %sp, %g3
    39c0:	87 04 c0 0f 	taddcc  %l3, %o7, %g3
    39c4:	87 04 c0 10 	taddcc  %l3, %l0, %g3
    39c8:	87 04 c0 11 	taddcc  %l3, %l1, %g3
    39cc:	87 04 c0 12 	taddcc  %l3, %l2, %g3
    39d0:	87 04 c0 13 	taddcc  %l3, %l3, %g3
    39d4:	87 04 c0 14 	taddcc  %l3, %l4, %g3
    39d8:	87 04 c0 15 	taddcc  %l3, %l5, %g3
    39dc:	87 04 c0 16 	taddcc  %l3, %l6, %g3
    39e0:	87 04 c0 17 	taddcc  %l3, %l7, %g3
    39e4:	87 04 c0 18 	taddcc  %l3, %i0, %g3
    39e8:	87 04 c0 19 	taddcc  %l3, %i1, %g3
    39ec:	87 04 c0 1a 	taddcc  %l3, %i2, %g3
    39f0:	87 04 c0 1b 	taddcc  %l3, %i3, %g3
    39f4:	87 04 c0 1c 	taddcc  %l3, %i4, %g3
    39f8:	87 04 c0 1d 	taddcc  %l3, %i5, %g3
    39fc:	87 04 c0 1e 	taddcc  %l3, %fp, %g3
    3a00:	87 04 c0 1f 	taddcc  %l3, %i7, %g3
    3a04:	87 05 00 00 	taddcc  %l4, %g0, %g3
    3a08:	87 05 00 01 	taddcc  %l4, %g1, %g3
    3a0c:	87 05 00 02 	taddcc  %l4, %g2, %g3
    3a10:	87 05 00 03 	taddcc  %l4, %g3, %g3
    3a14:	87 05 00 04 	taddcc  %l4, %g4, %g3
    3a18:	87 05 00 05 	taddcc  %l4, %g5, %g3
    3a1c:	87 05 00 06 	taddcc  %l4, %g6, %g3
    3a20:	87 05 00 07 	taddcc  %l4, %g7, %g3
    3a24:	87 05 00 08 	taddcc  %l4, %o0, %g3
    3a28:	87 05 00 09 	taddcc  %l4, %o1, %g3
    3a2c:	87 05 00 0a 	taddcc  %l4, %o2, %g3
    3a30:	87 05 00 0b 	taddcc  %l4, %o3, %g3
    3a34:	87 05 00 0c 	taddcc  %l4, %o4, %g3
    3a38:	87 05 00 0d 	taddcc  %l4, %o5, %g3
    3a3c:	87 05 00 0e 	taddcc  %l4, %sp, %g3
    3a40:	87 05 00 0f 	taddcc  %l4, %o7, %g3
    3a44:	87 05 00 10 	taddcc  %l4, %l0, %g3
    3a48:	87 05 00 11 	taddcc  %l4, %l1, %g3
    3a4c:	87 05 00 12 	taddcc  %l4, %l2, %g3
    3a50:	87 05 00 13 	taddcc  %l4, %l3, %g3
    3a54:	87 05 00 14 	taddcc  %l4, %l4, %g3
    3a58:	87 05 00 15 	taddcc  %l4, %l5, %g3
    3a5c:	87 05 00 16 	taddcc  %l4, %l6, %g3
    3a60:	87 05 00 17 	taddcc  %l4, %l7, %g3
    3a64:	87 05 00 18 	taddcc  %l4, %i0, %g3
    3a68:	87 05 00 19 	taddcc  %l4, %i1, %g3
    3a6c:	87 05 00 1a 	taddcc  %l4, %i2, %g3
    3a70:	87 05 00 1b 	taddcc  %l4, %i3, %g3
    3a74:	87 05 00 1c 	taddcc  %l4, %i4, %g3
    3a78:	87 05 00 1d 	taddcc  %l4, %i5, %g3
    3a7c:	87 05 00 1e 	taddcc  %l4, %fp, %g3
    3a80:	87 05 00 1f 	taddcc  %l4, %i7, %g3
    3a84:	87 05 40 00 	taddcc  %l5, %g0, %g3
    3a88:	87 05 40 01 	taddcc  %l5, %g1, %g3
    3a8c:	87 05 40 02 	taddcc  %l5, %g2, %g3
    3a90:	87 05 40 03 	taddcc  %l5, %g3, %g3
    3a94:	87 05 40 04 	taddcc  %l5, %g4, %g3
    3a98:	87 05 40 05 	taddcc  %l5, %g5, %g3
    3a9c:	87 05 40 06 	taddcc  %l5, %g6, %g3
    3aa0:	87 05 40 07 	taddcc  %l5, %g7, %g3
    3aa4:	87 05 40 08 	taddcc  %l5, %o0, %g3
    3aa8:	87 05 40 09 	taddcc  %l5, %o1, %g3
    3aac:	87 05 40 0a 	taddcc  %l5, %o2, %g3
    3ab0:	87 05 40 0b 	taddcc  %l5, %o3, %g3
    3ab4:	87 05 40 0c 	taddcc  %l5, %o4, %g3
    3ab8:	87 05 40 0d 	taddcc  %l5, %o5, %g3
    3abc:	87 05 40 0e 	taddcc  %l5, %sp, %g3
    3ac0:	87 05 40 0f 	taddcc  %l5, %o7, %g3
    3ac4:	87 05 40 10 	taddcc  %l5, %l0, %g3
    3ac8:	87 05 40 11 	taddcc  %l5, %l1, %g3
    3acc:	87 05 40 12 	taddcc  %l5, %l2, %g3
    3ad0:	87 05 40 13 	taddcc  %l5, %l3, %g3
    3ad4:	87 05 40 14 	taddcc  %l5, %l4, %g3
    3ad8:	87 05 40 15 	taddcc  %l5, %l5, %g3
    3adc:	87 05 40 16 	taddcc  %l5, %l6, %g3
    3ae0:	87 05 40 17 	taddcc  %l5, %l7, %g3
    3ae4:	87 05 40 18 	taddcc  %l5, %i0, %g3
    3ae8:	87 05 40 19 	taddcc  %l5, %i1, %g3
    3aec:	87 05 40 1a 	taddcc  %l5, %i2, %g3
    3af0:	87 05 40 1b 	taddcc  %l5, %i3, %g3
    3af4:	87 05 40 1c 	taddcc  %l5, %i4, %g3
    3af8:	87 05 40 1d 	taddcc  %l5, %i5, %g3
    3afc:	87 05 40 1e 	taddcc  %l5, %fp, %g3
    3b00:	87 05 40 1f 	taddcc  %l5, %i7, %g3
    3b04:	87 05 80 00 	taddcc  %l6, %g0, %g3
    3b08:	87 05 80 01 	taddcc  %l6, %g1, %g3
    3b0c:	87 05 80 02 	taddcc  %l6, %g2, %g3
    3b10:	87 05 80 03 	taddcc  %l6, %g3, %g3
    3b14:	87 05 80 04 	taddcc  %l6, %g4, %g3
    3b18:	87 05 80 05 	taddcc  %l6, %g5, %g3
    3b1c:	87 05 80 06 	taddcc  %l6, %g6, %g3
    3b20:	87 05 80 07 	taddcc  %l6, %g7, %g3
    3b24:	87 05 80 08 	taddcc  %l6, %o0, %g3
    3b28:	87 05 80 09 	taddcc  %l6, %o1, %g3
    3b2c:	87 05 80 0a 	taddcc  %l6, %o2, %g3
    3b30:	87 05 80 0b 	taddcc  %l6, %o3, %g3
    3b34:	87 05 80 0c 	taddcc  %l6, %o4, %g3
    3b38:	87 05 80 0d 	taddcc  %l6, %o5, %g3
    3b3c:	87 05 80 0e 	taddcc  %l6, %sp, %g3
    3b40:	87 05 80 0f 	taddcc  %l6, %o7, %g3
    3b44:	87 05 80 10 	taddcc  %l6, %l0, %g3
    3b48:	87 05 80 11 	taddcc  %l6, %l1, %g3
    3b4c:	87 05 80 12 	taddcc  %l6, %l2, %g3
    3b50:	87 05 80 13 	taddcc  %l6, %l3, %g3
    3b54:	87 05 80 14 	taddcc  %l6, %l4, %g3
    3b58:	87 05 80 15 	taddcc  %l6, %l5, %g3
    3b5c:	87 05 80 16 	taddcc  %l6, %l6, %g3
    3b60:	87 05 80 17 	taddcc  %l6, %l7, %g3
    3b64:	87 05 80 18 	taddcc  %l6, %i0, %g3
    3b68:	87 05 80 19 	taddcc  %l6, %i1, %g3
    3b6c:	87 05 80 1a 	taddcc  %l6, %i2, %g3
    3b70:	87 05 80 1b 	taddcc  %l6, %i3, %g3
    3b74:	87 05 80 1c 	taddcc  %l6, %i4, %g3
    3b78:	87 05 80 1d 	taddcc  %l6, %i5, %g3
    3b7c:	87 05 80 1e 	taddcc  %l6, %fp, %g3
    3b80:	87 05 80 1f 	taddcc  %l6, %i7, %g3
    3b84:	87 05 c0 00 	taddcc  %l7, %g0, %g3
    3b88:	87 05 c0 01 	taddcc  %l7, %g1, %g3
    3b8c:	87 05 c0 02 	taddcc  %l7, %g2, %g3
    3b90:	87 05 c0 03 	taddcc  %l7, %g3, %g3
    3b94:	87 05 c0 04 	taddcc  %l7, %g4, %g3
    3b98:	87 05 c0 05 	taddcc  %l7, %g5, %g3
    3b9c:	87 05 c0 06 	taddcc  %l7, %g6, %g3
    3ba0:	87 05 c0 07 	taddcc  %l7, %g7, %g3
    3ba4:	87 05 c0 08 	taddcc  %l7, %o0, %g3
    3ba8:	87 05 c0 09 	taddcc  %l7, %o1, %g3
    3bac:	87 05 c0 0a 	taddcc  %l7, %o2, %g3
    3bb0:	87 05 c0 0b 	taddcc  %l7, %o3, %g3
    3bb4:	87 05 c0 0c 	taddcc  %l7, %o4, %g3
    3bb8:	87 05 c0 0d 	taddcc  %l7, %o5, %g3
    3bbc:	87 05 c0 0e 	taddcc  %l7, %sp, %g3
    3bc0:	87 05 c0 0f 	taddcc  %l7, %o7, %g3
    3bc4:	87 05 c0 10 	taddcc  %l7, %l0, %g3
    3bc8:	87 05 c0 11 	taddcc  %l7, %l1, %g3
    3bcc:	87 05 c0 12 	taddcc  %l7, %l2, %g3
    3bd0:	87 05 c0 13 	taddcc  %l7, %l3, %g3
    3bd4:	87 05 c0 14 	taddcc  %l7, %l4, %g3
    3bd8:	87 05 c0 15 	taddcc  %l7, %l5, %g3
    3bdc:	87 05 c0 16 	taddcc  %l7, %l6, %g3
    3be0:	87 05 c0 17 	taddcc  %l7, %l7, %g3
    3be4:	87 05 c0 18 	taddcc  %l7, %i0, %g3
    3be8:	87 05 c0 19 	taddcc  %l7, %i1, %g3
    3bec:	87 05 c0 1a 	taddcc  %l7, %i2, %g3
    3bf0:	87 05 c0 1b 	taddcc  %l7, %i3, %g3
    3bf4:	87 05 c0 1c 	taddcc  %l7, %i4, %g3
    3bf8:	87 05 c0 1d 	taddcc  %l7, %i5, %g3
    3bfc:	87 05 c0 1e 	taddcc  %l7, %fp, %g3
    3c00:	87 05 c0 1f 	taddcc  %l7, %i7, %g3
    3c04:	87 06 00 00 	taddcc  %i0, %g0, %g3
    3c08:	87 06 00 01 	taddcc  %i0, %g1, %g3
    3c0c:	87 06 00 02 	taddcc  %i0, %g2, %g3
    3c10:	87 06 00 03 	taddcc  %i0, %g3, %g3
    3c14:	87 06 00 04 	taddcc  %i0, %g4, %g3
    3c18:	87 06 00 05 	taddcc  %i0, %g5, %g3
    3c1c:	87 06 00 06 	taddcc  %i0, %g6, %g3
    3c20:	87 06 00 07 	taddcc  %i0, %g7, %g3
    3c24:	87 06 00 08 	taddcc  %i0, %o0, %g3
    3c28:	87 06 00 09 	taddcc  %i0, %o1, %g3
    3c2c:	87 06 00 0a 	taddcc  %i0, %o2, %g3
    3c30:	87 06 00 0b 	taddcc  %i0, %o3, %g3
    3c34:	87 06 00 0c 	taddcc  %i0, %o4, %g3
    3c38:	87 06 00 0d 	taddcc  %i0, %o5, %g3
    3c3c:	87 06 00 0e 	taddcc  %i0, %sp, %g3
    3c40:	87 06 00 0f 	taddcc  %i0, %o7, %g3
    3c44:	87 06 00 10 	taddcc  %i0, %l0, %g3
    3c48:	87 06 00 11 	taddcc  %i0, %l1, %g3
    3c4c:	87 06 00 12 	taddcc  %i0, %l2, %g3
    3c50:	87 06 00 13 	taddcc  %i0, %l3, %g3
    3c54:	87 06 00 14 	taddcc  %i0, %l4, %g3
    3c58:	87 06 00 15 	taddcc  %i0, %l5, %g3
    3c5c:	87 06 00 16 	taddcc  %i0, %l6, %g3
    3c60:	87 06 00 17 	taddcc  %i0, %l7, %g3
    3c64:	87 06 00 18 	taddcc  %i0, %i0, %g3
    3c68:	87 06 00 19 	taddcc  %i0, %i1, %g3
    3c6c:	87 06 00 1a 	taddcc  %i0, %i2, %g3
    3c70:	87 06 00 1b 	taddcc  %i0, %i3, %g3
    3c74:	87 06 00 1c 	taddcc  %i0, %i4, %g3
    3c78:	87 06 00 1d 	taddcc  %i0, %i5, %g3
    3c7c:	87 06 00 1e 	taddcc  %i0, %fp, %g3
    3c80:	87 06 00 1f 	taddcc  %i0, %i7, %g3
    3c84:	87 06 40 00 	taddcc  %i1, %g0, %g3
    3c88:	87 06 40 01 	taddcc  %i1, %g1, %g3
    3c8c:	87 06 40 02 	taddcc  %i1, %g2, %g3
    3c90:	87 06 40 03 	taddcc  %i1, %g3, %g3
    3c94:	87 06 40 04 	taddcc  %i1, %g4, %g3
    3c98:	87 06 40 05 	taddcc  %i1, %g5, %g3
    3c9c:	87 06 40 06 	taddcc  %i1, %g6, %g3
    3ca0:	87 06 40 07 	taddcc  %i1, %g7, %g3
    3ca4:	87 06 40 08 	taddcc  %i1, %o0, %g3
    3ca8:	87 06 40 09 	taddcc  %i1, %o1, %g3
    3cac:	87 06 40 0a 	taddcc  %i1, %o2, %g3
    3cb0:	87 06 40 0b 	taddcc  %i1, %o3, %g3
    3cb4:	87 06 40 0c 	taddcc  %i1, %o4, %g3
    3cb8:	87 06 40 0d 	taddcc  %i1, %o5, %g3
    3cbc:	87 06 40 0e 	taddcc  %i1, %sp, %g3
    3cc0:	87 06 40 0f 	taddcc  %i1, %o7, %g3
    3cc4:	87 06 40 10 	taddcc  %i1, %l0, %g3
    3cc8:	87 06 40 11 	taddcc  %i1, %l1, %g3
    3ccc:	87 06 40 12 	taddcc  %i1, %l2, %g3
    3cd0:	87 06 40 13 	taddcc  %i1, %l3, %g3
    3cd4:	87 06 40 14 	taddcc  %i1, %l4, %g3
    3cd8:	87 06 40 15 	taddcc  %i1, %l5, %g3
    3cdc:	87 06 40 16 	taddcc  %i1, %l6, %g3
    3ce0:	87 06 40 17 	taddcc  %i1, %l7, %g3
    3ce4:	87 06 40 18 	taddcc  %i1, %i0, %g3
    3ce8:	87 06 40 19 	taddcc  %i1, %i1, %g3
    3cec:	87 06 40 1a 	taddcc  %i1, %i2, %g3
    3cf0:	87 06 40 1b 	taddcc  %i1, %i3, %g3
    3cf4:	87 06 40 1c 	taddcc  %i1, %i4, %g3
    3cf8:	87 06 40 1d 	taddcc  %i1, %i5, %g3
    3cfc:	87 06 40 1e 	taddcc  %i1, %fp, %g3
    3d00:	87 06 40 1f 	taddcc  %i1, %i7, %g3
    3d04:	87 06 80 00 	taddcc  %i2, %g0, %g3
    3d08:	87 06 80 01 	taddcc  %i2, %g1, %g3
    3d0c:	87 06 80 02 	taddcc  %i2, %g2, %g3
    3d10:	87 06 80 03 	taddcc  %i2, %g3, %g3
    3d14:	87 06 80 04 	taddcc  %i2, %g4, %g3
    3d18:	87 06 80 05 	taddcc  %i2, %g5, %g3
    3d1c:	87 06 80 06 	taddcc  %i2, %g6, %g3
    3d20:	87 06 80 07 	taddcc  %i2, %g7, %g3
    3d24:	87 06 80 08 	taddcc  %i2, %o0, %g3
    3d28:	87 06 80 09 	taddcc  %i2, %o1, %g3
    3d2c:	87 06 80 0a 	taddcc  %i2, %o2, %g3
    3d30:	87 06 80 0b 	taddcc  %i2, %o3, %g3
    3d34:	87 06 80 0c 	taddcc  %i2, %o4, %g3
    3d38:	87 06 80 0d 	taddcc  %i2, %o5, %g3
    3d3c:	87 06 80 0e 	taddcc  %i2, %sp, %g3
    3d40:	87 06 80 0f 	taddcc  %i2, %o7, %g3
    3d44:	87 06 80 10 	taddcc  %i2, %l0, %g3
    3d48:	87 06 80 11 	taddcc  %i2, %l1, %g3
    3d4c:	87 06 80 12 	taddcc  %i2, %l2, %g3
    3d50:	87 06 80 13 	taddcc  %i2, %l3, %g3
    3d54:	87 06 80 14 	taddcc  %i2, %l4, %g3
    3d58:	87 06 80 15 	taddcc  %i2, %l5, %g3
    3d5c:	87 06 80 16 	taddcc  %i2, %l6, %g3
    3d60:	87 06 80 17 	taddcc  %i2, %l7, %g3
    3d64:	87 06 80 18 	taddcc  %i2, %i0, %g3
    3d68:	87 06 80 19 	taddcc  %i2, %i1, %g3
    3d6c:	87 06 80 1a 	taddcc  %i2, %i2, %g3
    3d70:	87 06 80 1b 	taddcc  %i2, %i3, %g3
    3d74:	87 06 80 1c 	taddcc  %i2, %i4, %g3
    3d78:	87 06 80 1d 	taddcc  %i2, %i5, %g3
    3d7c:	87 06 80 1e 	taddcc  %i2, %fp, %g3
    3d80:	87 06 80 1f 	taddcc  %i2, %i7, %g3
    3d84:	87 06 c0 00 	taddcc  %i3, %g0, %g3
    3d88:	87 06 c0 01 	taddcc  %i3, %g1, %g3
    3d8c:	87 06 c0 02 	taddcc  %i3, %g2, %g3
    3d90:	87 06 c0 03 	taddcc  %i3, %g3, %g3
    3d94:	87 06 c0 04 	taddcc  %i3, %g4, %g3
    3d98:	87 06 c0 05 	taddcc  %i3, %g5, %g3
    3d9c:	87 06 c0 06 	taddcc  %i3, %g6, %g3
    3da0:	87 06 c0 07 	taddcc  %i3, %g7, %g3
    3da4:	87 06 c0 08 	taddcc  %i3, %o0, %g3
    3da8:	87 06 c0 09 	taddcc  %i3, %o1, %g3
    3dac:	87 06 c0 0a 	taddcc  %i3, %o2, %g3
    3db0:	87 06 c0 0b 	taddcc  %i3, %o3, %g3
    3db4:	87 06 c0 0c 	taddcc  %i3, %o4, %g3
    3db8:	87 06 c0 0d 	taddcc  %i3, %o5, %g3
    3dbc:	87 06 c0 0e 	taddcc  %i3, %sp, %g3
    3dc0:	87 06 c0 0f 	taddcc  %i3, %o7, %g3
    3dc4:	87 06 c0 10 	taddcc  %i3, %l0, %g3
    3dc8:	87 06 c0 11 	taddcc  %i3, %l1, %g3
    3dcc:	87 06 c0 12 	taddcc  %i3, %l2, %g3
    3dd0:	87 06 c0 13 	taddcc  %i3, %l3, %g3
    3dd4:	87 06 c0 14 	taddcc  %i3, %l4, %g3
    3dd8:	87 06 c0 15 	taddcc  %i3, %l5, %g3
    3ddc:	87 06 c0 16 	taddcc  %i3, %l6, %g3
    3de0:	87 06 c0 17 	taddcc  %i3, %l7, %g3
    3de4:	87 06 c0 18 	taddcc  %i3, %i0, %g3
    3de8:	87 06 c0 19 	taddcc  %i3, %i1, %g3
    3dec:	87 06 c0 1a 	taddcc  %i3, %i2, %g3
    3df0:	87 06 c0 1b 	taddcc  %i3, %i3, %g3
    3df4:	87 06 c0 1c 	taddcc  %i3, %i4, %g3
    3df8:	87 06 c0 1d 	taddcc  %i3, %i5, %g3
    3dfc:	87 06 c0 1e 	taddcc  %i3, %fp, %g3
    3e00:	87 06 c0 1f 	taddcc  %i3, %i7, %g3
    3e04:	87 07 00 00 	taddcc  %i4, %g0, %g3
    3e08:	87 07 00 01 	taddcc  %i4, %g1, %g3
    3e0c:	87 07 00 02 	taddcc  %i4, %g2, %g3
    3e10:	87 07 00 03 	taddcc  %i4, %g3, %g3
    3e14:	87 07 00 04 	taddcc  %i4, %g4, %g3
    3e18:	87 07 00 05 	taddcc  %i4, %g5, %g3
    3e1c:	87 07 00 06 	taddcc  %i4, %g6, %g3
    3e20:	87 07 00 07 	taddcc  %i4, %g7, %g3
    3e24:	87 07 00 08 	taddcc  %i4, %o0, %g3
    3e28:	87 07 00 09 	taddcc  %i4, %o1, %g3
    3e2c:	87 07 00 0a 	taddcc  %i4, %o2, %g3
    3e30:	87 07 00 0b 	taddcc  %i4, %o3, %g3
    3e34:	87 07 00 0c 	taddcc  %i4, %o4, %g3
    3e38:	87 07 00 0d 	taddcc  %i4, %o5, %g3
    3e3c:	87 07 00 0e 	taddcc  %i4, %sp, %g3
    3e40:	87 07 00 0f 	taddcc  %i4, %o7, %g3
    3e44:	87 07 00 10 	taddcc  %i4, %l0, %g3
    3e48:	87 07 00 11 	taddcc  %i4, %l1, %g3
    3e4c:	87 07 00 12 	taddcc  %i4, %l2, %g3
    3e50:	87 07 00 13 	taddcc  %i4, %l3, %g3
    3e54:	87 07 00 14 	taddcc  %i4, %l4, %g3
    3e58:	87 07 00 15 	taddcc  %i4, %l5, %g3
    3e5c:	87 07 00 16 	taddcc  %i4, %l6, %g3
    3e60:	87 07 00 17 	taddcc  %i4, %l7, %g3
    3e64:	87 07 00 18 	taddcc  %i4, %i0, %g3
    3e68:	87 07 00 19 	taddcc  %i4, %i1, %g3
    3e6c:	87 07 00 1a 	taddcc  %i4, %i2, %g3
    3e70:	87 07 00 1b 	taddcc  %i4, %i3, %g3
    3e74:	87 07 00 1c 	taddcc  %i4, %i4, %g3
    3e78:	87 07 00 1d 	taddcc  %i4, %i5, %g3
    3e7c:	87 07 00 1e 	taddcc  %i4, %fp, %g3
    3e80:	87 07 00 1f 	taddcc  %i4, %i7, %g3
    3e84:	87 07 40 00 	taddcc  %i5, %g0, %g3
    3e88:	87 07 40 01 	taddcc  %i5, %g1, %g3
    3e8c:	87 07 40 02 	taddcc  %i5, %g2, %g3
    3e90:	87 07 40 03 	taddcc  %i5, %g3, %g3
    3e94:	87 07 40 04 	taddcc  %i5, %g4, %g3
    3e98:	87 07 40 05 	taddcc  %i5, %g5, %g3
    3e9c:	87 07 40 06 	taddcc  %i5, %g6, %g3
    3ea0:	87 07 40 07 	taddcc  %i5, %g7, %g3
    3ea4:	87 07 40 08 	taddcc  %i5, %o0, %g3
    3ea8:	87 07 40 09 	taddcc  %i5, %o1, %g3
    3eac:	87 07 40 0a 	taddcc  %i5, %o2, %g3
    3eb0:	87 07 40 0b 	taddcc  %i5, %o3, %g3
    3eb4:	87 07 40 0c 	taddcc  %i5, %o4, %g3
    3eb8:	87 07 40 0d 	taddcc  %i5, %o5, %g3
    3ebc:	87 07 40 0e 	taddcc  %i5, %sp, %g3
    3ec0:	87 07 40 0f 	taddcc  %i5, %o7, %g3
    3ec4:	87 07 40 10 	taddcc  %i5, %l0, %g3
    3ec8:	87 07 40 11 	taddcc  %i5, %l1, %g3
    3ecc:	87 07 40 12 	taddcc  %i5, %l2, %g3
    3ed0:	87 07 40 13 	taddcc  %i5, %l3, %g3
    3ed4:	87 07 40 14 	taddcc  %i5, %l4, %g3
    3ed8:	87 07 40 15 	taddcc  %i5, %l5, %g3
    3edc:	87 07 40 16 	taddcc  %i5, %l6, %g3
    3ee0:	87 07 40 17 	taddcc  %i5, %l7, %g3
    3ee4:	87 07 40 18 	taddcc  %i5, %i0, %g3
    3ee8:	87 07 40 19 	taddcc  %i5, %i1, %g3
    3eec:	87 07 40 1a 	taddcc  %i5, %i2, %g3
    3ef0:	87 07 40 1b 	taddcc  %i5, %i3, %g3
    3ef4:	87 07 40 1c 	taddcc  %i5, %i4, %g3
    3ef8:	87 07 40 1d 	taddcc  %i5, %i5, %g3
    3efc:	87 07 40 1e 	taddcc  %i5, %fp, %g3
    3f00:	87 07 40 1f 	taddcc  %i5, %i7, %g3
    3f04:	87 07 80 00 	taddcc  %fp, %g0, %g3
    3f08:	87 07 80 01 	taddcc  %fp, %g1, %g3
    3f0c:	87 07 80 02 	taddcc  %fp, %g2, %g3
    3f10:	87 07 80 03 	taddcc  %fp, %g3, %g3
    3f14:	87 07 80 04 	taddcc  %fp, %g4, %g3
    3f18:	87 07 80 05 	taddcc  %fp, %g5, %g3
    3f1c:	87 07 80 06 	taddcc  %fp, %g6, %g3
    3f20:	87 07 80 07 	taddcc  %fp, %g7, %g3
    3f24:	87 07 80 08 	taddcc  %fp, %o0, %g3
    3f28:	87 07 80 09 	taddcc  %fp, %o1, %g3
    3f2c:	87 07 80 0a 	taddcc  %fp, %o2, %g3
    3f30:	87 07 80 0b 	taddcc  %fp, %o3, %g3
    3f34:	87 07 80 0c 	taddcc  %fp, %o4, %g3
    3f38:	87 07 80 0d 	taddcc  %fp, %o5, %g3
    3f3c:	87 07 80 0e 	taddcc  %fp, %sp, %g3
    3f40:	87 07 80 0f 	taddcc  %fp, %o7, %g3
    3f44:	87 07 80 10 	taddcc  %fp, %l0, %g3
    3f48:	87 07 80 11 	taddcc  %fp, %l1, %g3
    3f4c:	87 07 80 12 	taddcc  %fp, %l2, %g3
    3f50:	87 07 80 13 	taddcc  %fp, %l3, %g3
    3f54:	87 07 80 14 	taddcc  %fp, %l4, %g3
    3f58:	87 07 80 15 	taddcc  %fp, %l5, %g3
    3f5c:	87 07 80 16 	taddcc  %fp, %l6, %g3
    3f60:	87 07 80 17 	taddcc  %fp, %l7, %g3
    3f64:	87 07 80 18 	taddcc  %fp, %i0, %g3
    3f68:	87 07 80 19 	taddcc  %fp, %i1, %g3
    3f6c:	87 07 80 1a 	taddcc  %fp, %i2, %g3
    3f70:	87 07 80 1b 	taddcc  %fp, %i3, %g3
    3f74:	87 07 80 1c 	taddcc  %fp, %i4, %g3
    3f78:	87 07 80 1d 	taddcc  %fp, %i5, %g3
    3f7c:	87 07 80 1e 	taddcc  %fp, %fp, %g3
    3f80:	87 07 80 1f 	taddcc  %fp, %i7, %g3
    3f84:	87 07 c0 00 	taddcc  %i7, %g0, %g3
    3f88:	87 07 c0 01 	taddcc  %i7, %g1, %g3
    3f8c:	87 07 c0 02 	taddcc  %i7, %g2, %g3
    3f90:	87 07 c0 03 	taddcc  %i7, %g3, %g3
    3f94:	87 07 c0 04 	taddcc  %i7, %g4, %g3
    3f98:	87 07 c0 05 	taddcc  %i7, %g5, %g3
    3f9c:	87 07 c0 06 	taddcc  %i7, %g6, %g3
    3fa0:	87 07 c0 07 	taddcc  %i7, %g7, %g3
    3fa4:	87 07 c0 08 	taddcc  %i7, %o0, %g3
    3fa8:	87 07 c0 09 	taddcc  %i7, %o1, %g3
    3fac:	87 07 c0 0a 	taddcc  %i7, %o2, %g3
    3fb0:	87 07 c0 0b 	taddcc  %i7, %o3, %g3
    3fb4:	87 07 c0 0c 	taddcc  %i7, %o4, %g3
    3fb8:	87 07 c0 0d 	taddcc  %i7, %o5, %g3
    3fbc:	87 07 c0 0e 	taddcc  %i7, %sp, %g3
    3fc0:	87 07 c0 0f 	taddcc  %i7, %o7, %g3
    3fc4:	87 07 c0 10 	taddcc  %i7, %l0, %g3
    3fc8:	87 07 c0 11 	taddcc  %i7, %l1, %g3
    3fcc:	87 07 c0 12 	taddcc  %i7, %l2, %g3
    3fd0:	87 07 c0 13 	taddcc  %i7, %l3, %g3
    3fd4:	87 07 c0 14 	taddcc  %i7, %l4, %g3
    3fd8:	87 07 c0 15 	taddcc  %i7, %l5, %g3
    3fdc:	87 07 c0 16 	taddcc  %i7, %l6, %g3
    3fe0:	87 07 c0 17 	taddcc  %i7, %l7, %g3
    3fe4:	87 07 c0 18 	taddcc  %i7, %i0, %g3
    3fe8:	87 07 c0 19 	taddcc  %i7, %i1, %g3
    3fec:	87 07 c0 1a 	taddcc  %i7, %i2, %g3
    3ff0:	87 07 c0 1b 	taddcc  %i7, %i3, %g3
    3ff4:	87 07 c0 1c 	taddcc  %i7, %i4, %g3
    3ff8:	87 07 c0 1d 	taddcc  %i7, %i5, %g3
    3ffc:	87 07 c0 1e 	taddcc  %i7, %fp, %g3
    4000:	87 07 c0 1f 	taddcc  %i7, %i7, %g3
    4004:	89 00 00 00 	taddcc  %g0, %g0, %g4
    4008:	89 00 00 01 	taddcc  %g0, %g1, %g4
    400c:	89 00 00 02 	taddcc  %g0, %g2, %g4
    4010:	89 00 00 03 	taddcc  %g0, %g3, %g4
    4014:	89 00 00 04 	taddcc  %g0, %g4, %g4
    4018:	89 00 00 05 	taddcc  %g0, %g5, %g4
    401c:	89 00 00 06 	taddcc  %g0, %g6, %g4
    4020:	89 00 00 07 	taddcc  %g0, %g7, %g4
    4024:	89 00 00 08 	taddcc  %g0, %o0, %g4
    4028:	89 00 00 09 	taddcc  %g0, %o1, %g4
    402c:	89 00 00 0a 	taddcc  %g0, %o2, %g4
    4030:	89 00 00 0b 	taddcc  %g0, %o3, %g4
    4034:	89 00 00 0c 	taddcc  %g0, %o4, %g4
    4038:	89 00 00 0d 	taddcc  %g0, %o5, %g4
    403c:	89 00 00 0e 	taddcc  %g0, %sp, %g4
    4040:	89 00 00 0f 	taddcc  %g0, %o7, %g4
    4044:	89 00 00 10 	taddcc  %g0, %l0, %g4
    4048:	89 00 00 11 	taddcc  %g0, %l1, %g4
    404c:	89 00 00 12 	taddcc  %g0, %l2, %g4
    4050:	89 00 00 13 	taddcc  %g0, %l3, %g4
    4054:	89 00 00 14 	taddcc  %g0, %l4, %g4
    4058:	89 00 00 15 	taddcc  %g0, %l5, %g4
    405c:	89 00 00 16 	taddcc  %g0, %l6, %g4
    4060:	89 00 00 17 	taddcc  %g0, %l7, %g4
    4064:	89 00 00 18 	taddcc  %g0, %i0, %g4
    4068:	89 00 00 19 	taddcc  %g0, %i1, %g4
    406c:	89 00 00 1a 	taddcc  %g0, %i2, %g4
    4070:	89 00 00 1b 	taddcc  %g0, %i3, %g4
    4074:	89 00 00 1c 	taddcc  %g0, %i4, %g4
    4078:	89 00 00 1d 	taddcc  %g0, %i5, %g4
    407c:	89 00 00 1e 	taddcc  %g0, %fp, %g4
    4080:	89 00 00 1f 	taddcc  %g0, %i7, %g4
    4084:	89 00 40 00 	taddcc  %g1, %g0, %g4
    4088:	89 00 40 01 	taddcc  %g1, %g1, %g4
    408c:	89 00 40 02 	taddcc  %g1, %g2, %g4
    4090:	89 00 40 03 	taddcc  %g1, %g3, %g4
    4094:	89 00 40 04 	taddcc  %g1, %g4, %g4
    4098:	89 00 40 05 	taddcc  %g1, %g5, %g4
    409c:	89 00 40 06 	taddcc  %g1, %g6, %g4
    40a0:	89 00 40 07 	taddcc  %g1, %g7, %g4
    40a4:	89 00 40 08 	taddcc  %g1, %o0, %g4
    40a8:	89 00 40 09 	taddcc  %g1, %o1, %g4
    40ac:	89 00 40 0a 	taddcc  %g1, %o2, %g4
    40b0:	89 00 40 0b 	taddcc  %g1, %o3, %g4
    40b4:	89 00 40 0c 	taddcc  %g1, %o4, %g4
    40b8:	89 00 40 0d 	taddcc  %g1, %o5, %g4
    40bc:	89 00 40 0e 	taddcc  %g1, %sp, %g4
    40c0:	89 00 40 0f 	taddcc  %g1, %o7, %g4
    40c4:	89 00 40 10 	taddcc  %g1, %l0, %g4
    40c8:	89 00 40 11 	taddcc  %g1, %l1, %g4
    40cc:	89 00 40 12 	taddcc  %g1, %l2, %g4
    40d0:	89 00 40 13 	taddcc  %g1, %l3, %g4
    40d4:	89 00 40 14 	taddcc  %g1, %l4, %g4
    40d8:	89 00 40 15 	taddcc  %g1, %l5, %g4
    40dc:	89 00 40 16 	taddcc  %g1, %l6, %g4
    40e0:	89 00 40 17 	taddcc  %g1, %l7, %g4
    40e4:	89 00 40 18 	taddcc  %g1, %i0, %g4
    40e8:	89 00 40 19 	taddcc  %g1, %i1, %g4
    40ec:	89 00 40 1a 	taddcc  %g1, %i2, %g4
    40f0:	89 00 40 1b 	taddcc  %g1, %i3, %g4
    40f4:	89 00 40 1c 	taddcc  %g1, %i4, %g4
    40f8:	89 00 40 1d 	taddcc  %g1, %i5, %g4
    40fc:	89 00 40 1e 	taddcc  %g1, %fp, %g4
    4100:	89 00 40 1f 	taddcc  %g1, %i7, %g4
    4104:	89 00 80 00 	taddcc  %g2, %g0, %g4
    4108:	89 00 80 01 	taddcc  %g2, %g1, %g4
    410c:	89 00 80 02 	taddcc  %g2, %g2, %g4
    4110:	89 00 80 03 	taddcc  %g2, %g3, %g4
    4114:	89 00 80 04 	taddcc  %g2, %g4, %g4
    4118:	89 00 80 05 	taddcc  %g2, %g5, %g4
    411c:	89 00 80 06 	taddcc  %g2, %g6, %g4
    4120:	89 00 80 07 	taddcc  %g2, %g7, %g4
    4124:	89 00 80 08 	taddcc  %g2, %o0, %g4
    4128:	89 00 80 09 	taddcc  %g2, %o1, %g4
    412c:	89 00 80 0a 	taddcc  %g2, %o2, %g4
    4130:	89 00 80 0b 	taddcc  %g2, %o3, %g4
    4134:	89 00 80 0c 	taddcc  %g2, %o4, %g4
    4138:	89 00 80 0d 	taddcc  %g2, %o5, %g4
    413c:	89 00 80 0e 	taddcc  %g2, %sp, %g4
    4140:	89 00 80 0f 	taddcc  %g2, %o7, %g4
    4144:	89 00 80 10 	taddcc  %g2, %l0, %g4
    4148:	89 00 80 11 	taddcc  %g2, %l1, %g4
    414c:	89 00 80 12 	taddcc  %g2, %l2, %g4
    4150:	89 00 80 13 	taddcc  %g2, %l3, %g4
    4154:	89 00 80 14 	taddcc  %g2, %l4, %g4
    4158:	89 00 80 15 	taddcc  %g2, %l5, %g4
    415c:	89 00 80 16 	taddcc  %g2, %l6, %g4
    4160:	89 00 80 17 	taddcc  %g2, %l7, %g4
    4164:	89 00 80 18 	taddcc  %g2, %i0, %g4
    4168:	89 00 80 19 	taddcc  %g2, %i1, %g4
    416c:	89 00 80 1a 	taddcc  %g2, %i2, %g4
    4170:	89 00 80 1b 	taddcc  %g2, %i3, %g4
    4174:	89 00 80 1c 	taddcc  %g2, %i4, %g4
    4178:	89 00 80 1d 	taddcc  %g2, %i5, %g4
    417c:	89 00 80 1e 	taddcc  %g2, %fp, %g4
    4180:	89 00 80 1f 	taddcc  %g2, %i7, %g4
    4184:	89 00 c0 00 	taddcc  %g3, %g0, %g4
    4188:	89 00 c0 01 	taddcc  %g3, %g1, %g4
    418c:	89 00 c0 02 	taddcc  %g3, %g2, %g4
    4190:	89 00 c0 03 	taddcc  %g3, %g3, %g4
    4194:	89 00 c0 04 	taddcc  %g3, %g4, %g4
    4198:	89 00 c0 05 	taddcc  %g3, %g5, %g4
    419c:	89 00 c0 06 	taddcc  %g3, %g6, %g4
    41a0:	89 00 c0 07 	taddcc  %g3, %g7, %g4
    41a4:	89 00 c0 08 	taddcc  %g3, %o0, %g4
    41a8:	89 00 c0 09 	taddcc  %g3, %o1, %g4
    41ac:	89 00 c0 0a 	taddcc  %g3, %o2, %g4
    41b0:	89 00 c0 0b 	taddcc  %g3, %o3, %g4
    41b4:	89 00 c0 0c 	taddcc  %g3, %o4, %g4
    41b8:	89 00 c0 0d 	taddcc  %g3, %o5, %g4
    41bc:	89 00 c0 0e 	taddcc  %g3, %sp, %g4
    41c0:	89 00 c0 0f 	taddcc  %g3, %o7, %g4
    41c4:	89 00 c0 10 	taddcc  %g3, %l0, %g4
    41c8:	89 00 c0 11 	taddcc  %g3, %l1, %g4
    41cc:	89 00 c0 12 	taddcc  %g3, %l2, %g4
    41d0:	89 00 c0 13 	taddcc  %g3, %l3, %g4
    41d4:	89 00 c0 14 	taddcc  %g3, %l4, %g4
    41d8:	89 00 c0 15 	taddcc  %g3, %l5, %g4
    41dc:	89 00 c0 16 	taddcc  %g3, %l6, %g4
    41e0:	89 00 c0 17 	taddcc  %g3, %l7, %g4
    41e4:	89 00 c0 18 	taddcc  %g3, %i0, %g4
    41e8:	89 00 c0 19 	taddcc  %g3, %i1, %g4
    41ec:	89 00 c0 1a 	taddcc  %g3, %i2, %g4
    41f0:	89 00 c0 1b 	taddcc  %g3, %i3, %g4
    41f4:	89 00 c0 1c 	taddcc  %g3, %i4, %g4
    41f8:	89 00 c0 1d 	taddcc  %g3, %i5, %g4
    41fc:	89 00 c0 1e 	taddcc  %g3, %fp, %g4
    4200:	89 00 c0 1f 	taddcc  %g3, %i7, %g4
    4204:	89 01 00 00 	taddcc  %g4, %g0, %g4
    4208:	89 01 00 01 	taddcc  %g4, %g1, %g4
    420c:	89 01 00 02 	taddcc  %g4, %g2, %g4
    4210:	89 01 00 03 	taddcc  %g4, %g3, %g4
    4214:	89 01 00 04 	taddcc  %g4, %g4, %g4
    4218:	89 01 00 05 	taddcc  %g4, %g5, %g4
    421c:	89 01 00 06 	taddcc  %g4, %g6, %g4
    4220:	89 01 00 07 	taddcc  %g4, %g7, %g4
    4224:	89 01 00 08 	taddcc  %g4, %o0, %g4
    4228:	89 01 00 09 	taddcc  %g4, %o1, %g4
    422c:	89 01 00 0a 	taddcc  %g4, %o2, %g4
    4230:	89 01 00 0b 	taddcc  %g4, %o3, %g4
    4234:	89 01 00 0c 	taddcc  %g4, %o4, %g4
    4238:	89 01 00 0d 	taddcc  %g4, %o5, %g4
    423c:	89 01 00 0e 	taddcc  %g4, %sp, %g4
    4240:	89 01 00 0f 	taddcc  %g4, %o7, %g4
    4244:	89 01 00 10 	taddcc  %g4, %l0, %g4
    4248:	89 01 00 11 	taddcc  %g4, %l1, %g4
    424c:	89 01 00 12 	taddcc  %g4, %l2, %g4
    4250:	89 01 00 13 	taddcc  %g4, %l3, %g4
    4254:	89 01 00 14 	taddcc  %g4, %l4, %g4
    4258:	89 01 00 15 	taddcc  %g4, %l5, %g4
    425c:	89 01 00 16 	taddcc  %g4, %l6, %g4
    4260:	89 01 00 17 	taddcc  %g4, %l7, %g4
    4264:	89 01 00 18 	taddcc  %g4, %i0, %g4
    4268:	89 01 00 19 	taddcc  %g4, %i1, %g4
    426c:	89 01 00 1a 	taddcc  %g4, %i2, %g4
    4270:	89 01 00 1b 	taddcc  %g4, %i3, %g4
    4274:	89 01 00 1c 	taddcc  %g4, %i4, %g4
    4278:	89 01 00 1d 	taddcc  %g4, %i5, %g4
    427c:	89 01 00 1e 	taddcc  %g4, %fp, %g4
    4280:	89 01 00 1f 	taddcc  %g4, %i7, %g4
    4284:	89 01 40 00 	taddcc  %g5, %g0, %g4
    4288:	89 01 40 01 	taddcc  %g5, %g1, %g4
    428c:	89 01 40 02 	taddcc  %g5, %g2, %g4
    4290:	89 01 40 03 	taddcc  %g5, %g3, %g4
    4294:	89 01 40 04 	taddcc  %g5, %g4, %g4
    4298:	89 01 40 05 	taddcc  %g5, %g5, %g4
    429c:	89 01 40 06 	taddcc  %g5, %g6, %g4
    42a0:	89 01 40 07 	taddcc  %g5, %g7, %g4
    42a4:	89 01 40 08 	taddcc  %g5, %o0, %g4
    42a8:	89 01 40 09 	taddcc  %g5, %o1, %g4
    42ac:	89 01 40 0a 	taddcc  %g5, %o2, %g4
    42b0:	89 01 40 0b 	taddcc  %g5, %o3, %g4
    42b4:	89 01 40 0c 	taddcc  %g5, %o4, %g4
    42b8:	89 01 40 0d 	taddcc  %g5, %o5, %g4
    42bc:	89 01 40 0e 	taddcc  %g5, %sp, %g4
    42c0:	89 01 40 0f 	taddcc  %g5, %o7, %g4
    42c4:	89 01 40 10 	taddcc  %g5, %l0, %g4
    42c8:	89 01 40 11 	taddcc  %g5, %l1, %g4
    42cc:	89 01 40 12 	taddcc  %g5, %l2, %g4
    42d0:	89 01 40 13 	taddcc  %g5, %l3, %g4
    42d4:	89 01 40 14 	taddcc  %g5, %l4, %g4
    42d8:	89 01 40 15 	taddcc  %g5, %l5, %g4
    42dc:	89 01 40 16 	taddcc  %g5, %l6, %g4
    42e0:	89 01 40 17 	taddcc  %g5, %l7, %g4
    42e4:	89 01 40 18 	taddcc  %g5, %i0, %g4
    42e8:	89 01 40 19 	taddcc  %g5, %i1, %g4
    42ec:	89 01 40 1a 	taddcc  %g5, %i2, %g4
    42f0:	89 01 40 1b 	taddcc  %g5, %i3, %g4
    42f4:	89 01 40 1c 	taddcc  %g5, %i4, %g4
    42f8:	89 01 40 1d 	taddcc  %g5, %i5, %g4
    42fc:	89 01 40 1e 	taddcc  %g5, %fp, %g4
    4300:	89 01 40 1f 	taddcc  %g5, %i7, %g4
    4304:	89 01 80 00 	taddcc  %g6, %g0, %g4
    4308:	89 01 80 01 	taddcc  %g6, %g1, %g4
    430c:	89 01 80 02 	taddcc  %g6, %g2, %g4
    4310:	89 01 80 03 	taddcc  %g6, %g3, %g4
    4314:	89 01 80 04 	taddcc  %g6, %g4, %g4
    4318:	89 01 80 05 	taddcc  %g6, %g5, %g4
    431c:	89 01 80 06 	taddcc  %g6, %g6, %g4
    4320:	89 01 80 07 	taddcc  %g6, %g7, %g4
    4324:	89 01 80 08 	taddcc  %g6, %o0, %g4
    4328:	89 01 80 09 	taddcc  %g6, %o1, %g4
    432c:	89 01 80 0a 	taddcc  %g6, %o2, %g4
    4330:	89 01 80 0b 	taddcc  %g6, %o3, %g4
    4334:	89 01 80 0c 	taddcc  %g6, %o4, %g4
    4338:	89 01 80 0d 	taddcc  %g6, %o5, %g4
    433c:	89 01 80 0e 	taddcc  %g6, %sp, %g4
    4340:	89 01 80 0f 	taddcc  %g6, %o7, %g4
    4344:	89 01 80 10 	taddcc  %g6, %l0, %g4
    4348:	89 01 80 11 	taddcc  %g6, %l1, %g4
    434c:	89 01 80 12 	taddcc  %g6, %l2, %g4
    4350:	89 01 80 13 	taddcc  %g6, %l3, %g4
    4354:	89 01 80 14 	taddcc  %g6, %l4, %g4
    4358:	89 01 80 15 	taddcc  %g6, %l5, %g4
    435c:	89 01 80 16 	taddcc  %g6, %l6, %g4
    4360:	89 01 80 17 	taddcc  %g6, %l7, %g4
    4364:	89 01 80 18 	taddcc  %g6, %i0, %g4
    4368:	89 01 80 19 	taddcc  %g6, %i1, %g4
    436c:	89 01 80 1a 	taddcc  %g6, %i2, %g4
    4370:	89 01 80 1b 	taddcc  %g6, %i3, %g4
    4374:	89 01 80 1c 	taddcc  %g6, %i4, %g4
    4378:	89 01 80 1d 	taddcc  %g6, %i5, %g4
    437c:	89 01 80 1e 	taddcc  %g6, %fp, %g4
    4380:	89 01 80 1f 	taddcc  %g6, %i7, %g4
    4384:	89 01 c0 00 	taddcc  %g7, %g0, %g4
    4388:	89 01 c0 01 	taddcc  %g7, %g1, %g4
    438c:	89 01 c0 02 	taddcc  %g7, %g2, %g4
    4390:	89 01 c0 03 	taddcc  %g7, %g3, %g4
    4394:	89 01 c0 04 	taddcc  %g7, %g4, %g4
    4398:	89 01 c0 05 	taddcc  %g7, %g5, %g4
    439c:	89 01 c0 06 	taddcc  %g7, %g6, %g4
    43a0:	89 01 c0 07 	taddcc  %g7, %g7, %g4
    43a4:	89 01 c0 08 	taddcc  %g7, %o0, %g4
    43a8:	89 01 c0 09 	taddcc  %g7, %o1, %g4
    43ac:	89 01 c0 0a 	taddcc  %g7, %o2, %g4
    43b0:	89 01 c0 0b 	taddcc  %g7, %o3, %g4
    43b4:	89 01 c0 0c 	taddcc  %g7, %o4, %g4
    43b8:	89 01 c0 0d 	taddcc  %g7, %o5, %g4
    43bc:	89 01 c0 0e 	taddcc  %g7, %sp, %g4
    43c0:	89 01 c0 0f 	taddcc  %g7, %o7, %g4
    43c4:	89 01 c0 10 	taddcc  %g7, %l0, %g4
    43c8:	89 01 c0 11 	taddcc  %g7, %l1, %g4
    43cc:	89 01 c0 12 	taddcc  %g7, %l2, %g4
    43d0:	89 01 c0 13 	taddcc  %g7, %l3, %g4
    43d4:	89 01 c0 14 	taddcc  %g7, %l4, %g4
    43d8:	89 01 c0 15 	taddcc  %g7, %l5, %g4
    43dc:	89 01 c0 16 	taddcc  %g7, %l6, %g4
    43e0:	89 01 c0 17 	taddcc  %g7, %l7, %g4
    43e4:	89 01 c0 18 	taddcc  %g7, %i0, %g4
    43e8:	89 01 c0 19 	taddcc  %g7, %i1, %g4
    43ec:	89 01 c0 1a 	taddcc  %g7, %i2, %g4
    43f0:	89 01 c0 1b 	taddcc  %g7, %i3, %g4
    43f4:	89 01 c0 1c 	taddcc  %g7, %i4, %g4
    43f8:	89 01 c0 1d 	taddcc  %g7, %i5, %g4
    43fc:	89 01 c0 1e 	taddcc  %g7, %fp, %g4
    4400:	89 01 c0 1f 	taddcc  %g7, %i7, %g4
    4404:	89 02 00 00 	taddcc  %o0, %g0, %g4
    4408:	89 02 00 01 	taddcc  %o0, %g1, %g4
    440c:	89 02 00 02 	taddcc  %o0, %g2, %g4
    4410:	89 02 00 03 	taddcc  %o0, %g3, %g4
    4414:	89 02 00 04 	taddcc  %o0, %g4, %g4
    4418:	89 02 00 05 	taddcc  %o0, %g5, %g4
    441c:	89 02 00 06 	taddcc  %o0, %g6, %g4
    4420:	89 02 00 07 	taddcc  %o0, %g7, %g4
    4424:	89 02 00 08 	taddcc  %o0, %o0, %g4
    4428:	89 02 00 09 	taddcc  %o0, %o1, %g4
    442c:	89 02 00 0a 	taddcc  %o0, %o2, %g4
    4430:	89 02 00 0b 	taddcc  %o0, %o3, %g4
    4434:	89 02 00 0c 	taddcc  %o0, %o4, %g4
    4438:	89 02 00 0d 	taddcc  %o0, %o5, %g4
    443c:	89 02 00 0e 	taddcc  %o0, %sp, %g4
    4440:	89 02 00 0f 	taddcc  %o0, %o7, %g4
    4444:	89 02 00 10 	taddcc  %o0, %l0, %g4
    4448:	89 02 00 11 	taddcc  %o0, %l1, %g4
    444c:	89 02 00 12 	taddcc  %o0, %l2, %g4
    4450:	89 02 00 13 	taddcc  %o0, %l3, %g4
    4454:	89 02 00 14 	taddcc  %o0, %l4, %g4
    4458:	89 02 00 15 	taddcc  %o0, %l5, %g4
    445c:	89 02 00 16 	taddcc  %o0, %l6, %g4
    4460:	89 02 00 17 	taddcc  %o0, %l7, %g4
    4464:	89 02 00 18 	taddcc  %o0, %i0, %g4
    4468:	89 02 00 19 	taddcc  %o0, %i1, %g4
    446c:	89 02 00 1a 	taddcc  %o0, %i2, %g4
    4470:	89 02 00 1b 	taddcc  %o0, %i3, %g4
    4474:	89 02 00 1c 	taddcc  %o0, %i4, %g4
    4478:	89 02 00 1d 	taddcc  %o0, %i5, %g4
    447c:	89 02 00 1e 	taddcc  %o0, %fp, %g4
    4480:	89 02 00 1f 	taddcc  %o0, %i7, %g4
    4484:	89 02 40 00 	taddcc  %o1, %g0, %g4
    4488:	89 02 40 01 	taddcc  %o1, %g1, %g4
    448c:	89 02 40 02 	taddcc  %o1, %g2, %g4
    4490:	89 02 40 03 	taddcc  %o1, %g3, %g4
    4494:	89 02 40 04 	taddcc  %o1, %g4, %g4
    4498:	89 02 40 05 	taddcc  %o1, %g5, %g4
    449c:	89 02 40 06 	taddcc  %o1, %g6, %g4
    44a0:	89 02 40 07 	taddcc  %o1, %g7, %g4
    44a4:	89 02 40 08 	taddcc  %o1, %o0, %g4
    44a8:	89 02 40 09 	taddcc  %o1, %o1, %g4
    44ac:	89 02 40 0a 	taddcc  %o1, %o2, %g4
    44b0:	89 02 40 0b 	taddcc  %o1, %o3, %g4
    44b4:	89 02 40 0c 	taddcc  %o1, %o4, %g4
    44b8:	89 02 40 0d 	taddcc  %o1, %o5, %g4
    44bc:	89 02 40 0e 	taddcc  %o1, %sp, %g4
    44c0:	89 02 40 0f 	taddcc  %o1, %o7, %g4
    44c4:	89 02 40 10 	taddcc  %o1, %l0, %g4
    44c8:	89 02 40 11 	taddcc  %o1, %l1, %g4
    44cc:	89 02 40 12 	taddcc  %o1, %l2, %g4
    44d0:	89 02 40 13 	taddcc  %o1, %l3, %g4
    44d4:	89 02 40 14 	taddcc  %o1, %l4, %g4
    44d8:	89 02 40 15 	taddcc  %o1, %l5, %g4
    44dc:	89 02 40 16 	taddcc  %o1, %l6, %g4
    44e0:	89 02 40 17 	taddcc  %o1, %l7, %g4
    44e4:	89 02 40 18 	taddcc  %o1, %i0, %g4
    44e8:	89 02 40 19 	taddcc  %o1, %i1, %g4
    44ec:	89 02 40 1a 	taddcc  %o1, %i2, %g4
    44f0:	89 02 40 1b 	taddcc  %o1, %i3, %g4
    44f4:	89 02 40 1c 	taddcc  %o1, %i4, %g4
    44f8:	89 02 40 1d 	taddcc  %o1, %i5, %g4
    44fc:	89 02 40 1e 	taddcc  %o1, %fp, %g4
    4500:	89 02 40 1f 	taddcc  %o1, %i7, %g4
    4504:	89 02 80 00 	taddcc  %o2, %g0, %g4
    4508:	89 02 80 01 	taddcc  %o2, %g1, %g4
    450c:	89 02 80 02 	taddcc  %o2, %g2, %g4
    4510:	89 02 80 03 	taddcc  %o2, %g3, %g4
    4514:	89 02 80 04 	taddcc  %o2, %g4, %g4
    4518:	89 02 80 05 	taddcc  %o2, %g5, %g4
    451c:	89 02 80 06 	taddcc  %o2, %g6, %g4
    4520:	89 02 80 07 	taddcc  %o2, %g7, %g4
    4524:	89 02 80 08 	taddcc  %o2, %o0, %g4
    4528:	89 02 80 09 	taddcc  %o2, %o1, %g4
    452c:	89 02 80 0a 	taddcc  %o2, %o2, %g4
    4530:	89 02 80 0b 	taddcc  %o2, %o3, %g4
    4534:	89 02 80 0c 	taddcc  %o2, %o4, %g4
    4538:	89 02 80 0d 	taddcc  %o2, %o5, %g4
    453c:	89 02 80 0e 	taddcc  %o2, %sp, %g4
    4540:	89 02 80 0f 	taddcc  %o2, %o7, %g4
    4544:	89 02 80 10 	taddcc  %o2, %l0, %g4
    4548:	89 02 80 11 	taddcc  %o2, %l1, %g4
    454c:	89 02 80 12 	taddcc  %o2, %l2, %g4
    4550:	89 02 80 13 	taddcc  %o2, %l3, %g4
    4554:	89 02 80 14 	taddcc  %o2, %l4, %g4
    4558:	89 02 80 15 	taddcc  %o2, %l5, %g4
    455c:	89 02 80 16 	taddcc  %o2, %l6, %g4
    4560:	89 02 80 17 	taddcc  %o2, %l7, %g4
    4564:	89 02 80 18 	taddcc  %o2, %i0, %g4
    4568:	89 02 80 19 	taddcc  %o2, %i1, %g4
    456c:	89 02 80 1a 	taddcc  %o2, %i2, %g4
    4570:	89 02 80 1b 	taddcc  %o2, %i3, %g4
    4574:	89 02 80 1c 	taddcc  %o2, %i4, %g4
    4578:	89 02 80 1d 	taddcc  %o2, %i5, %g4
    457c:	89 02 80 1e 	taddcc  %o2, %fp, %g4
    4580:	89 02 80 1f 	taddcc  %o2, %i7, %g4
    4584:	89 02 c0 00 	taddcc  %o3, %g0, %g4
    4588:	89 02 c0 01 	taddcc  %o3, %g1, %g4
    458c:	89 02 c0 02 	taddcc  %o3, %g2, %g4
    4590:	89 02 c0 03 	taddcc  %o3, %g3, %g4
    4594:	89 02 c0 04 	taddcc  %o3, %g4, %g4
    4598:	89 02 c0 05 	taddcc  %o3, %g5, %g4
    459c:	89 02 c0 06 	taddcc  %o3, %g6, %g4
    45a0:	89 02 c0 07 	taddcc  %o3, %g7, %g4
    45a4:	89 02 c0 08 	taddcc  %o3, %o0, %g4
    45a8:	89 02 c0 09 	taddcc  %o3, %o1, %g4
    45ac:	89 02 c0 0a 	taddcc  %o3, %o2, %g4
    45b0:	89 02 c0 0b 	taddcc  %o3, %o3, %g4
    45b4:	89 02 c0 0c 	taddcc  %o3, %o4, %g4
    45b8:	89 02 c0 0d 	taddcc  %o3, %o5, %g4
    45bc:	89 02 c0 0e 	taddcc  %o3, %sp, %g4
    45c0:	89 02 c0 0f 	taddcc  %o3, %o7, %g4
    45c4:	89 02 c0 10 	taddcc  %o3, %l0, %g4
    45c8:	89 02 c0 11 	taddcc  %o3, %l1, %g4
    45cc:	89 02 c0 12 	taddcc  %o3, %l2, %g4
    45d0:	89 02 c0 13 	taddcc  %o3, %l3, %g4
    45d4:	89 02 c0 14 	taddcc  %o3, %l4, %g4
    45d8:	89 02 c0 15 	taddcc  %o3, %l5, %g4
    45dc:	89 02 c0 16 	taddcc  %o3, %l6, %g4
    45e0:	89 02 c0 17 	taddcc  %o3, %l7, %g4
    45e4:	89 02 c0 18 	taddcc  %o3, %i0, %g4
    45e8:	89 02 c0 19 	taddcc  %o3, %i1, %g4
    45ec:	89 02 c0 1a 	taddcc  %o3, %i2, %g4
    45f0:	89 02 c0 1b 	taddcc  %o3, %i3, %g4
    45f4:	89 02 c0 1c 	taddcc  %o3, %i4, %g4
    45f8:	89 02 c0 1d 	taddcc  %o3, %i5, %g4
    45fc:	89 02 c0 1e 	taddcc  %o3, %fp, %g4
    4600:	89 02 c0 1f 	taddcc  %o3, %i7, %g4
    4604:	89 03 00 00 	taddcc  %o4, %g0, %g4
    4608:	89 03 00 01 	taddcc  %o4, %g1, %g4
    460c:	89 03 00 02 	taddcc  %o4, %g2, %g4
    4610:	89 03 00 03 	taddcc  %o4, %g3, %g4
    4614:	89 03 00 04 	taddcc  %o4, %g4, %g4
    4618:	89 03 00 05 	taddcc  %o4, %g5, %g4
    461c:	89 03 00 06 	taddcc  %o4, %g6, %g4
    4620:	89 03 00 07 	taddcc  %o4, %g7, %g4
    4624:	89 03 00 08 	taddcc  %o4, %o0, %g4
    4628:	89 03 00 09 	taddcc  %o4, %o1, %g4
    462c:	89 03 00 0a 	taddcc  %o4, %o2, %g4
    4630:	89 03 00 0b 	taddcc  %o4, %o3, %g4
    4634:	89 03 00 0c 	taddcc  %o4, %o4, %g4
    4638:	89 03 00 0d 	taddcc  %o4, %o5, %g4
    463c:	89 03 00 0e 	taddcc  %o4, %sp, %g4
    4640:	89 03 00 0f 	taddcc  %o4, %o7, %g4
    4644:	89 03 00 10 	taddcc  %o4, %l0, %g4
    4648:	89 03 00 11 	taddcc  %o4, %l1, %g4
    464c:	89 03 00 12 	taddcc  %o4, %l2, %g4
    4650:	89 03 00 13 	taddcc  %o4, %l3, %g4
    4654:	89 03 00 14 	taddcc  %o4, %l4, %g4
    4658:	89 03 00 15 	taddcc  %o4, %l5, %g4
    465c:	89 03 00 16 	taddcc  %o4, %l6, %g4
    4660:	89 03 00 17 	taddcc  %o4, %l7, %g4
    4664:	89 03 00 18 	taddcc  %o4, %i0, %g4
    4668:	89 03 00 19 	taddcc  %o4, %i1, %g4
    466c:	89 03 00 1a 	taddcc  %o4, %i2, %g4
    4670:	89 03 00 1b 	taddcc  %o4, %i3, %g4
    4674:	89 03 00 1c 	taddcc  %o4, %i4, %g4
    4678:	89 03 00 1d 	taddcc  %o4, %i5, %g4
    467c:	89 03 00 1e 	taddcc  %o4, %fp, %g4
    4680:	89 03 00 1f 	taddcc  %o4, %i7, %g4
    4684:	89 03 40 00 	taddcc  %o5, %g0, %g4
    4688:	89 03 40 01 	taddcc  %o5, %g1, %g4
    468c:	89 03 40 02 	taddcc  %o5, %g2, %g4
    4690:	89 03 40 03 	taddcc  %o5, %g3, %g4
    4694:	89 03 40 04 	taddcc  %o5, %g4, %g4
    4698:	89 03 40 05 	taddcc  %o5, %g5, %g4
    469c:	89 03 40 06 	taddcc  %o5, %g6, %g4
    46a0:	89 03 40 07 	taddcc  %o5, %g7, %g4
    46a4:	89 03 40 08 	taddcc  %o5, %o0, %g4
    46a8:	89 03 40 09 	taddcc  %o5, %o1, %g4
    46ac:	89 03 40 0a 	taddcc  %o5, %o2, %g4
    46b0:	89 03 40 0b 	taddcc  %o5, %o3, %g4
    46b4:	89 03 40 0c 	taddcc  %o5, %o4, %g4
    46b8:	89 03 40 0d 	taddcc  %o5, %o5, %g4
    46bc:	89 03 40 0e 	taddcc  %o5, %sp, %g4
    46c0:	89 03 40 0f 	taddcc  %o5, %o7, %g4
    46c4:	89 03 40 10 	taddcc  %o5, %l0, %g4
    46c8:	89 03 40 11 	taddcc  %o5, %l1, %g4
    46cc:	89 03 40 12 	taddcc  %o5, %l2, %g4
    46d0:	89 03 40 13 	taddcc  %o5, %l3, %g4
    46d4:	89 03 40 14 	taddcc  %o5, %l4, %g4
    46d8:	89 03 40 15 	taddcc  %o5, %l5, %g4
    46dc:	89 03 40 16 	taddcc  %o5, %l6, %g4
    46e0:	89 03 40 17 	taddcc  %o5, %l7, %g4
    46e4:	89 03 40 18 	taddcc  %o5, %i0, %g4
    46e8:	89 03 40 19 	taddcc  %o5, %i1, %g4
    46ec:	89 03 40 1a 	taddcc  %o5, %i2, %g4
    46f0:	89 03 40 1b 	taddcc  %o5, %i3, %g4
    46f4:	89 03 40 1c 	taddcc  %o5, %i4, %g4
    46f8:	89 03 40 1d 	taddcc  %o5, %i5, %g4
    46fc:	89 03 40 1e 	taddcc  %o5, %fp, %g4
    4700:	89 03 40 1f 	taddcc  %o5, %i7, %g4
    4704:	89 03 80 00 	taddcc  %sp, %g0, %g4
    4708:	89 03 80 01 	taddcc  %sp, %g1, %g4
    470c:	89 03 80 02 	taddcc  %sp, %g2, %g4
    4710:	89 03 80 03 	taddcc  %sp, %g3, %g4
    4714:	89 03 80 04 	taddcc  %sp, %g4, %g4
    4718:	89 03 80 05 	taddcc  %sp, %g5, %g4
    471c:	89 03 80 06 	taddcc  %sp, %g6, %g4
    4720:	89 03 80 07 	taddcc  %sp, %g7, %g4
    4724:	89 03 80 08 	taddcc  %sp, %o0, %g4
    4728:	89 03 80 09 	taddcc  %sp, %o1, %g4
    472c:	89 03 80 0a 	taddcc  %sp, %o2, %g4
    4730:	89 03 80 0b 	taddcc  %sp, %o3, %g4
    4734:	89 03 80 0c 	taddcc  %sp, %o4, %g4
    4738:	89 03 80 0d 	taddcc  %sp, %o5, %g4
    473c:	89 03 80 0e 	taddcc  %sp, %sp, %g4
    4740:	89 03 80 0f 	taddcc  %sp, %o7, %g4
    4744:	89 03 80 10 	taddcc  %sp, %l0, %g4
    4748:	89 03 80 11 	taddcc  %sp, %l1, %g4
    474c:	89 03 80 12 	taddcc  %sp, %l2, %g4
    4750:	89 03 80 13 	taddcc  %sp, %l3, %g4
    4754:	89 03 80 14 	taddcc  %sp, %l4, %g4
    4758:	89 03 80 15 	taddcc  %sp, %l5, %g4
    475c:	89 03 80 16 	taddcc  %sp, %l6, %g4
    4760:	89 03 80 17 	taddcc  %sp, %l7, %g4
    4764:	89 03 80 18 	taddcc  %sp, %i0, %g4
    4768:	89 03 80 19 	taddcc  %sp, %i1, %g4
    476c:	89 03 80 1a 	taddcc  %sp, %i2, %g4
    4770:	89 03 80 1b 	taddcc  %sp, %i3, %g4
    4774:	89 03 80 1c 	taddcc  %sp, %i4, %g4
    4778:	89 03 80 1d 	taddcc  %sp, %i5, %g4
    477c:	89 03 80 1e 	taddcc  %sp, %fp, %g4
    4780:	89 03 80 1f 	taddcc  %sp, %i7, %g4
    4784:	89 03 c0 00 	taddcc  %o7, %g0, %g4
    4788:	89 03 c0 01 	taddcc  %o7, %g1, %g4
    478c:	89 03 c0 02 	taddcc  %o7, %g2, %g4
    4790:	89 03 c0 03 	taddcc  %o7, %g3, %g4
    4794:	89 03 c0 04 	taddcc  %o7, %g4, %g4
    4798:	89 03 c0 05 	taddcc  %o7, %g5, %g4
    479c:	89 03 c0 06 	taddcc  %o7, %g6, %g4
    47a0:	89 03 c0 07 	taddcc  %o7, %g7, %g4
    47a4:	89 03 c0 08 	taddcc  %o7, %o0, %g4
    47a8:	89 03 c0 09 	taddcc  %o7, %o1, %g4
    47ac:	89 03 c0 0a 	taddcc  %o7, %o2, %g4
    47b0:	89 03 c0 0b 	taddcc  %o7, %o3, %g4
    47b4:	89 03 c0 0c 	taddcc  %o7, %o4, %g4
    47b8:	89 03 c0 0d 	taddcc  %o7, %o5, %g4
    47bc:	89 03 c0 0e 	taddcc  %o7, %sp, %g4
    47c0:	89 03 c0 0f 	taddcc  %o7, %o7, %g4
    47c4:	89 03 c0 10 	taddcc  %o7, %l0, %g4
    47c8:	89 03 c0 11 	taddcc  %o7, %l1, %g4
    47cc:	89 03 c0 12 	taddcc  %o7, %l2, %g4
    47d0:	89 03 c0 13 	taddcc  %o7, %l3, %g4
    47d4:	89 03 c0 14 	taddcc  %o7, %l4, %g4
    47d8:	89 03 c0 15 	taddcc  %o7, %l5, %g4
    47dc:	89 03 c0 16 	taddcc  %o7, %l6, %g4
    47e0:	89 03 c0 17 	taddcc  %o7, %l7, %g4
    47e4:	89 03 c0 18 	taddcc  %o7, %i0, %g4
    47e8:	89 03 c0 19 	taddcc  %o7, %i1, %g4
    47ec:	89 03 c0 1a 	taddcc  %o7, %i2, %g4
    47f0:	89 03 c0 1b 	taddcc  %o7, %i3, %g4
    47f4:	89 03 c0 1c 	taddcc  %o7, %i4, %g4
    47f8:	89 03 c0 1d 	taddcc  %o7, %i5, %g4
    47fc:	89 03 c0 1e 	taddcc  %o7, %fp, %g4
    4800:	89 03 c0 1f 	taddcc  %o7, %i7, %g4
    4804:	89 04 00 00 	taddcc  %l0, %g0, %g4
    4808:	89 04 00 01 	taddcc  %l0, %g1, %g4
    480c:	89 04 00 02 	taddcc  %l0, %g2, %g4
    4810:	89 04 00 03 	taddcc  %l0, %g3, %g4
    4814:	89 04 00 04 	taddcc  %l0, %g4, %g4
    4818:	89 04 00 05 	taddcc  %l0, %g5, %g4
    481c:	89 04 00 06 	taddcc  %l0, %g6, %g4
    4820:	89 04 00 07 	taddcc  %l0, %g7, %g4
    4824:	89 04 00 08 	taddcc  %l0, %o0, %g4
    4828:	89 04 00 09 	taddcc  %l0, %o1, %g4
    482c:	89 04 00 0a 	taddcc  %l0, %o2, %g4
    4830:	89 04 00 0b 	taddcc  %l0, %o3, %g4
    4834:	89 04 00 0c 	taddcc  %l0, %o4, %g4
    4838:	89 04 00 0d 	taddcc  %l0, %o5, %g4
    483c:	89 04 00 0e 	taddcc  %l0, %sp, %g4
    4840:	89 04 00 0f 	taddcc  %l0, %o7, %g4
    4844:	89 04 00 10 	taddcc  %l0, %l0, %g4
    4848:	89 04 00 11 	taddcc  %l0, %l1, %g4
    484c:	89 04 00 12 	taddcc  %l0, %l2, %g4
    4850:	89 04 00 13 	taddcc  %l0, %l3, %g4
    4854:	89 04 00 14 	taddcc  %l0, %l4, %g4
    4858:	89 04 00 15 	taddcc  %l0, %l5, %g4
    485c:	89 04 00 16 	taddcc  %l0, %l6, %g4
    4860:	89 04 00 17 	taddcc  %l0, %l7, %g4
    4864:	89 04 00 18 	taddcc  %l0, %i0, %g4
    4868:	89 04 00 19 	taddcc  %l0, %i1, %g4
    486c:	89 04 00 1a 	taddcc  %l0, %i2, %g4
    4870:	89 04 00 1b 	taddcc  %l0, %i3, %g4
    4874:	89 04 00 1c 	taddcc  %l0, %i4, %g4
    4878:	89 04 00 1d 	taddcc  %l0, %i5, %g4
    487c:	89 04 00 1e 	taddcc  %l0, %fp, %g4
    4880:	89 04 00 1f 	taddcc  %l0, %i7, %g4
    4884:	89 04 40 00 	taddcc  %l1, %g0, %g4
    4888:	89 04 40 01 	taddcc  %l1, %g1, %g4
    488c:	89 04 40 02 	taddcc  %l1, %g2, %g4
    4890:	89 04 40 03 	taddcc  %l1, %g3, %g4
    4894:	89 04 40 04 	taddcc  %l1, %g4, %g4
    4898:	89 04 40 05 	taddcc  %l1, %g5, %g4
    489c:	89 04 40 06 	taddcc  %l1, %g6, %g4
    48a0:	89 04 40 07 	taddcc  %l1, %g7, %g4
    48a4:	89 04 40 08 	taddcc  %l1, %o0, %g4
    48a8:	89 04 40 09 	taddcc  %l1, %o1, %g4
    48ac:	89 04 40 0a 	taddcc  %l1, %o2, %g4
    48b0:	89 04 40 0b 	taddcc  %l1, %o3, %g4
    48b4:	89 04 40 0c 	taddcc  %l1, %o4, %g4
    48b8:	89 04 40 0d 	taddcc  %l1, %o5, %g4
    48bc:	89 04 40 0e 	taddcc  %l1, %sp, %g4
    48c0:	89 04 40 0f 	taddcc  %l1, %o7, %g4
    48c4:	89 04 40 10 	taddcc  %l1, %l0, %g4
    48c8:	89 04 40 11 	taddcc  %l1, %l1, %g4
    48cc:	89 04 40 12 	taddcc  %l1, %l2, %g4
    48d0:	89 04 40 13 	taddcc  %l1, %l3, %g4
    48d4:	89 04 40 14 	taddcc  %l1, %l4, %g4
    48d8:	89 04 40 15 	taddcc  %l1, %l5, %g4
    48dc:	89 04 40 16 	taddcc  %l1, %l6, %g4
    48e0:	89 04 40 17 	taddcc  %l1, %l7, %g4
    48e4:	89 04 40 18 	taddcc  %l1, %i0, %g4
    48e8:	89 04 40 19 	taddcc  %l1, %i1, %g4
    48ec:	89 04 40 1a 	taddcc  %l1, %i2, %g4
    48f0:	89 04 40 1b 	taddcc  %l1, %i3, %g4
    48f4:	89 04 40 1c 	taddcc  %l1, %i4, %g4
    48f8:	89 04 40 1d 	taddcc  %l1, %i5, %g4
    48fc:	89 04 40 1e 	taddcc  %l1, %fp, %g4
    4900:	89 04 40 1f 	taddcc  %l1, %i7, %g4
    4904:	89 04 80 00 	taddcc  %l2, %g0, %g4
    4908:	89 04 80 01 	taddcc  %l2, %g1, %g4
    490c:	89 04 80 02 	taddcc  %l2, %g2, %g4
    4910:	89 04 80 03 	taddcc  %l2, %g3, %g4
    4914:	89 04 80 04 	taddcc  %l2, %g4, %g4
    4918:	89 04 80 05 	taddcc  %l2, %g5, %g4
    491c:	89 04 80 06 	taddcc  %l2, %g6, %g4
    4920:	89 04 80 07 	taddcc  %l2, %g7, %g4
    4924:	89 04 80 08 	taddcc  %l2, %o0, %g4
    4928:	89 04 80 09 	taddcc  %l2, %o1, %g4
    492c:	89 04 80 0a 	taddcc  %l2, %o2, %g4
    4930:	89 04 80 0b 	taddcc  %l2, %o3, %g4
    4934:	89 04 80 0c 	taddcc  %l2, %o4, %g4
    4938:	89 04 80 0d 	taddcc  %l2, %o5, %g4
    493c:	89 04 80 0e 	taddcc  %l2, %sp, %g4
    4940:	89 04 80 0f 	taddcc  %l2, %o7, %g4
    4944:	89 04 80 10 	taddcc  %l2, %l0, %g4
    4948:	89 04 80 11 	taddcc  %l2, %l1, %g4
    494c:	89 04 80 12 	taddcc  %l2, %l2, %g4
    4950:	89 04 80 13 	taddcc  %l2, %l3, %g4
    4954:	89 04 80 14 	taddcc  %l2, %l4, %g4
    4958:	89 04 80 15 	taddcc  %l2, %l5, %g4
    495c:	89 04 80 16 	taddcc  %l2, %l6, %g4
    4960:	89 04 80 17 	taddcc  %l2, %l7, %g4
    4964:	89 04 80 18 	taddcc  %l2, %i0, %g4
    4968:	89 04 80 19 	taddcc  %l2, %i1, %g4
    496c:	89 04 80 1a 	taddcc  %l2, %i2, %g4
    4970:	89 04 80 1b 	taddcc  %l2, %i3, %g4
    4974:	89 04 80 1c 	taddcc  %l2, %i4, %g4
    4978:	89 04 80 1d 	taddcc  %l2, %i5, %g4
    497c:	89 04 80 1e 	taddcc  %l2, %fp, %g4
    4980:	89 04 80 1f 	taddcc  %l2, %i7, %g4
    4984:	89 04 c0 00 	taddcc  %l3, %g0, %g4
    4988:	89 04 c0 01 	taddcc  %l3, %g1, %g4
    498c:	89 04 c0 02 	taddcc  %l3, %g2, %g4
    4990:	89 04 c0 03 	taddcc  %l3, %g3, %g4
    4994:	89 04 c0 04 	taddcc  %l3, %g4, %g4
    4998:	89 04 c0 05 	taddcc  %l3, %g5, %g4
    499c:	89 04 c0 06 	taddcc  %l3, %g6, %g4
    49a0:	89 04 c0 07 	taddcc  %l3, %g7, %g4
    49a4:	89 04 c0 08 	taddcc  %l3, %o0, %g4
    49a8:	89 04 c0 09 	taddcc  %l3, %o1, %g4
    49ac:	89 04 c0 0a 	taddcc  %l3, %o2, %g4
    49b0:	89 04 c0 0b 	taddcc  %l3, %o3, %g4
    49b4:	89 04 c0 0c 	taddcc  %l3, %o4, %g4
    49b8:	89 04 c0 0d 	taddcc  %l3, %o5, %g4
    49bc:	89 04 c0 0e 	taddcc  %l3, %sp, %g4
    49c0:	89 04 c0 0f 	taddcc  %l3, %o7, %g4
    49c4:	89 04 c0 10 	taddcc  %l3, %l0, %g4
    49c8:	89 04 c0 11 	taddcc  %l3, %l1, %g4
    49cc:	89 04 c0 12 	taddcc  %l3, %l2, %g4
    49d0:	89 04 c0 13 	taddcc  %l3, %l3, %g4
    49d4:	89 04 c0 14 	taddcc  %l3, %l4, %g4
    49d8:	89 04 c0 15 	taddcc  %l3, %l5, %g4
    49dc:	89 04 c0 16 	taddcc  %l3, %l6, %g4
    49e0:	89 04 c0 17 	taddcc  %l3, %l7, %g4
    49e4:	89 04 c0 18 	taddcc  %l3, %i0, %g4
    49e8:	89 04 c0 19 	taddcc  %l3, %i1, %g4
    49ec:	89 04 c0 1a 	taddcc  %l3, %i2, %g4
    49f0:	89 04 c0 1b 	taddcc  %l3, %i3, %g4
    49f4:	89 04 c0 1c 	taddcc  %l3, %i4, %g4
    49f8:	89 04 c0 1d 	taddcc  %l3, %i5, %g4
    49fc:	89 04 c0 1e 	taddcc  %l3, %fp, %g4
    4a00:	89 04 c0 1f 	taddcc  %l3, %i7, %g4
    4a04:	89 05 00 00 	taddcc  %l4, %g0, %g4
    4a08:	89 05 00 01 	taddcc  %l4, %g1, %g4
    4a0c:	89 05 00 02 	taddcc  %l4, %g2, %g4
    4a10:	89 05 00 03 	taddcc  %l4, %g3, %g4
    4a14:	89 05 00 04 	taddcc  %l4, %g4, %g4
    4a18:	89 05 00 05 	taddcc  %l4, %g5, %g4
    4a1c:	89 05 00 06 	taddcc  %l4, %g6, %g4
    4a20:	89 05 00 07 	taddcc  %l4, %g7, %g4
    4a24:	89 05 00 08 	taddcc  %l4, %o0, %g4
    4a28:	89 05 00 09 	taddcc  %l4, %o1, %g4
    4a2c:	89 05 00 0a 	taddcc  %l4, %o2, %g4
    4a30:	89 05 00 0b 	taddcc  %l4, %o3, %g4
    4a34:	89 05 00 0c 	taddcc  %l4, %o4, %g4
    4a38:	89 05 00 0d 	taddcc  %l4, %o5, %g4
    4a3c:	89 05 00 0e 	taddcc  %l4, %sp, %g4
    4a40:	89 05 00 0f 	taddcc  %l4, %o7, %g4
    4a44:	89 05 00 10 	taddcc  %l4, %l0, %g4
    4a48:	89 05 00 11 	taddcc  %l4, %l1, %g4
    4a4c:	89 05 00 12 	taddcc  %l4, %l2, %g4
    4a50:	89 05 00 13 	taddcc  %l4, %l3, %g4
    4a54:	89 05 00 14 	taddcc  %l4, %l4, %g4
    4a58:	89 05 00 15 	taddcc  %l4, %l5, %g4
    4a5c:	89 05 00 16 	taddcc  %l4, %l6, %g4
    4a60:	89 05 00 17 	taddcc  %l4, %l7, %g4
    4a64:	89 05 00 18 	taddcc  %l4, %i0, %g4
    4a68:	89 05 00 19 	taddcc  %l4, %i1, %g4
    4a6c:	89 05 00 1a 	taddcc  %l4, %i2, %g4
    4a70:	89 05 00 1b 	taddcc  %l4, %i3, %g4
    4a74:	89 05 00 1c 	taddcc  %l4, %i4, %g4
    4a78:	89 05 00 1d 	taddcc  %l4, %i5, %g4
    4a7c:	89 05 00 1e 	taddcc  %l4, %fp, %g4
    4a80:	89 05 00 1f 	taddcc  %l4, %i7, %g4
    4a84:	89 05 40 00 	taddcc  %l5, %g0, %g4
    4a88:	89 05 40 01 	taddcc  %l5, %g1, %g4
    4a8c:	89 05 40 02 	taddcc  %l5, %g2, %g4
    4a90:	89 05 40 03 	taddcc  %l5, %g3, %g4
    4a94:	89 05 40 04 	taddcc  %l5, %g4, %g4
    4a98:	89 05 40 05 	taddcc  %l5, %g5, %g4
    4a9c:	89 05 40 06 	taddcc  %l5, %g6, %g4
    4aa0:	89 05 40 07 	taddcc  %l5, %g7, %g4
    4aa4:	89 05 40 08 	taddcc  %l5, %o0, %g4
    4aa8:	89 05 40 09 	taddcc  %l5, %o1, %g4
    4aac:	89 05 40 0a 	taddcc  %l5, %o2, %g4
    4ab0:	89 05 40 0b 	taddcc  %l5, %o3, %g4
    4ab4:	89 05 40 0c 	taddcc  %l5, %o4, %g4
    4ab8:	89 05 40 0d 	taddcc  %l5, %o5, %g4
    4abc:	89 05 40 0e 	taddcc  %l5, %sp, %g4
    4ac0:	89 05 40 0f 	taddcc  %l5, %o7, %g4
    4ac4:	89 05 40 10 	taddcc  %l5, %l0, %g4
    4ac8:	89 05 40 11 	taddcc  %l5, %l1, %g4
    4acc:	89 05 40 12 	taddcc  %l5, %l2, %g4
    4ad0:	89 05 40 13 	taddcc  %l5, %l3, %g4
    4ad4:	89 05 40 14 	taddcc  %l5, %l4, %g4
    4ad8:	89 05 40 15 	taddcc  %l5, %l5, %g4
    4adc:	89 05 40 16 	taddcc  %l5, %l6, %g4
    4ae0:	89 05 40 17 	taddcc  %l5, %l7, %g4
    4ae4:	89 05 40 18 	taddcc  %l5, %i0, %g4
    4ae8:	89 05 40 19 	taddcc  %l5, %i1, %g4
    4aec:	89 05 40 1a 	taddcc  %l5, %i2, %g4
    4af0:	89 05 40 1b 	taddcc  %l5, %i3, %g4
    4af4:	89 05 40 1c 	taddcc  %l5, %i4, %g4
    4af8:	89 05 40 1d 	taddcc  %l5, %i5, %g4
    4afc:	89 05 40 1e 	taddcc  %l5, %fp, %g4
    4b00:	89 05 40 1f 	taddcc  %l5, %i7, %g4
    4b04:	89 05 80 00 	taddcc  %l6, %g0, %g4
    4b08:	89 05 80 01 	taddcc  %l6, %g1, %g4
    4b0c:	89 05 80 02 	taddcc  %l6, %g2, %g4
    4b10:	89 05 80 03 	taddcc  %l6, %g3, %g4
    4b14:	89 05 80 04 	taddcc  %l6, %g4, %g4
    4b18:	89 05 80 05 	taddcc  %l6, %g5, %g4
    4b1c:	89 05 80 06 	taddcc  %l6, %g6, %g4
    4b20:	89 05 80 07 	taddcc  %l6, %g7, %g4
    4b24:	89 05 80 08 	taddcc  %l6, %o0, %g4
    4b28:	89 05 80 09 	taddcc  %l6, %o1, %g4
    4b2c:	89 05 80 0a 	taddcc  %l6, %o2, %g4
    4b30:	89 05 80 0b 	taddcc  %l6, %o3, %g4
    4b34:	89 05 80 0c 	taddcc  %l6, %o4, %g4
    4b38:	89 05 80 0d 	taddcc  %l6, %o5, %g4
    4b3c:	89 05 80 0e 	taddcc  %l6, %sp, %g4
    4b40:	89 05 80 0f 	taddcc  %l6, %o7, %g4
    4b44:	89 05 80 10 	taddcc  %l6, %l0, %g4
    4b48:	89 05 80 11 	taddcc  %l6, %l1, %g4
    4b4c:	89 05 80 12 	taddcc  %l6, %l2, %g4
    4b50:	89 05 80 13 	taddcc  %l6, %l3, %g4
    4b54:	89 05 80 14 	taddcc  %l6, %l4, %g4
    4b58:	89 05 80 15 	taddcc  %l6, %l5, %g4
    4b5c:	89 05 80 16 	taddcc  %l6, %l6, %g4
    4b60:	89 05 80 17 	taddcc  %l6, %l7, %g4
    4b64:	89 05 80 18 	taddcc  %l6, %i0, %g4
    4b68:	89 05 80 19 	taddcc  %l6, %i1, %g4
    4b6c:	89 05 80 1a 	taddcc  %l6, %i2, %g4
    4b70:	89 05 80 1b 	taddcc  %l6, %i3, %g4
    4b74:	89 05 80 1c 	taddcc  %l6, %i4, %g4
    4b78:	89 05 80 1d 	taddcc  %l6, %i5, %g4
    4b7c:	89 05 80 1e 	taddcc  %l6, %fp, %g4
    4b80:	89 05 80 1f 	taddcc  %l6, %i7, %g4
    4b84:	89 05 c0 00 	taddcc  %l7, %g0, %g4
    4b88:	89 05 c0 01 	taddcc  %l7, %g1, %g4
    4b8c:	89 05 c0 02 	taddcc  %l7, %g2, %g4
    4b90:	89 05 c0 03 	taddcc  %l7, %g3, %g4
    4b94:	89 05 c0 04 	taddcc  %l7, %g4, %g4
    4b98:	89 05 c0 05 	taddcc  %l7, %g5, %g4
    4b9c:	89 05 c0 06 	taddcc  %l7, %g6, %g4
    4ba0:	89 05 c0 07 	taddcc  %l7, %g7, %g4
    4ba4:	89 05 c0 08 	taddcc  %l7, %o0, %g4
    4ba8:	89 05 c0 09 	taddcc  %l7, %o1, %g4
    4bac:	89 05 c0 0a 	taddcc  %l7, %o2, %g4
    4bb0:	89 05 c0 0b 	taddcc  %l7, %o3, %g4
    4bb4:	89 05 c0 0c 	taddcc  %l7, %o4, %g4
    4bb8:	89 05 c0 0d 	taddcc  %l7, %o5, %g4
    4bbc:	89 05 c0 0e 	taddcc  %l7, %sp, %g4
    4bc0:	89 05 c0 0f 	taddcc  %l7, %o7, %g4
    4bc4:	89 05 c0 10 	taddcc  %l7, %l0, %g4
    4bc8:	89 05 c0 11 	taddcc  %l7, %l1, %g4
    4bcc:	89 05 c0 12 	taddcc  %l7, %l2, %g4
    4bd0:	89 05 c0 13 	taddcc  %l7, %l3, %g4
    4bd4:	89 05 c0 14 	taddcc  %l7, %l4, %g4
    4bd8:	89 05 c0 15 	taddcc  %l7, %l5, %g4
    4bdc:	89 05 c0 16 	taddcc  %l7, %l6, %g4
    4be0:	89 05 c0 17 	taddcc  %l7, %l7, %g4
    4be4:	89 05 c0 18 	taddcc  %l7, %i0, %g4
    4be8:	89 05 c0 19 	taddcc  %l7, %i1, %g4
    4bec:	89 05 c0 1a 	taddcc  %l7, %i2, %g4
    4bf0:	89 05 c0 1b 	taddcc  %l7, %i3, %g4
    4bf4:	89 05 c0 1c 	taddcc  %l7, %i4, %g4
    4bf8:	89 05 c0 1d 	taddcc  %l7, %i5, %g4
    4bfc:	89 05 c0 1e 	taddcc  %l7, %fp, %g4
    4c00:	89 05 c0 1f 	taddcc  %l7, %i7, %g4
    4c04:	89 06 00 00 	taddcc  %i0, %g0, %g4
    4c08:	89 06 00 01 	taddcc  %i0, %g1, %g4
    4c0c:	89 06 00 02 	taddcc  %i0, %g2, %g4
    4c10:	89 06 00 03 	taddcc  %i0, %g3, %g4
    4c14:	89 06 00 04 	taddcc  %i0, %g4, %g4
    4c18:	89 06 00 05 	taddcc  %i0, %g5, %g4
    4c1c:	89 06 00 06 	taddcc  %i0, %g6, %g4
    4c20:	89 06 00 07 	taddcc  %i0, %g7, %g4
    4c24:	89 06 00 08 	taddcc  %i0, %o0, %g4
    4c28:	89 06 00 09 	taddcc  %i0, %o1, %g4
    4c2c:	89 06 00 0a 	taddcc  %i0, %o2, %g4
    4c30:	89 06 00 0b 	taddcc  %i0, %o3, %g4
    4c34:	89 06 00 0c 	taddcc  %i0, %o4, %g4
    4c38:	89 06 00 0d 	taddcc  %i0, %o5, %g4
    4c3c:	89 06 00 0e 	taddcc  %i0, %sp, %g4
    4c40:	89 06 00 0f 	taddcc  %i0, %o7, %g4
    4c44:	89 06 00 10 	taddcc  %i0, %l0, %g4
    4c48:	89 06 00 11 	taddcc  %i0, %l1, %g4
    4c4c:	89 06 00 12 	taddcc  %i0, %l2, %g4
    4c50:	89 06 00 13 	taddcc  %i0, %l3, %g4
    4c54:	89 06 00 14 	taddcc  %i0, %l4, %g4
    4c58:	89 06 00 15 	taddcc  %i0, %l5, %g4
    4c5c:	89 06 00 16 	taddcc  %i0, %l6, %g4
    4c60:	89 06 00 17 	taddcc  %i0, %l7, %g4
    4c64:	89 06 00 18 	taddcc  %i0, %i0, %g4
    4c68:	89 06 00 19 	taddcc  %i0, %i1, %g4
    4c6c:	89 06 00 1a 	taddcc  %i0, %i2, %g4
    4c70:	89 06 00 1b 	taddcc  %i0, %i3, %g4
    4c74:	89 06 00 1c 	taddcc  %i0, %i4, %g4
    4c78:	89 06 00 1d 	taddcc  %i0, %i5, %g4
    4c7c:	89 06 00 1e 	taddcc  %i0, %fp, %g4
    4c80:	89 06 00 1f 	taddcc  %i0, %i7, %g4
    4c84:	89 06 40 00 	taddcc  %i1, %g0, %g4
    4c88:	89 06 40 01 	taddcc  %i1, %g1, %g4
    4c8c:	89 06 40 02 	taddcc  %i1, %g2, %g4
    4c90:	89 06 40 03 	taddcc  %i1, %g3, %g4
    4c94:	89 06 40 04 	taddcc  %i1, %g4, %g4
    4c98:	89 06 40 05 	taddcc  %i1, %g5, %g4
    4c9c:	89 06 40 06 	taddcc  %i1, %g6, %g4
    4ca0:	89 06 40 07 	taddcc  %i1, %g7, %g4
    4ca4:	89 06 40 08 	taddcc  %i1, %o0, %g4
    4ca8:	89 06 40 09 	taddcc  %i1, %o1, %g4
    4cac:	89 06 40 0a 	taddcc  %i1, %o2, %g4
    4cb0:	89 06 40 0b 	taddcc  %i1, %o3, %g4
    4cb4:	89 06 40 0c 	taddcc  %i1, %o4, %g4
    4cb8:	89 06 40 0d 	taddcc  %i1, %o5, %g4
    4cbc:	89 06 40 0e 	taddcc  %i1, %sp, %g4
    4cc0:	89 06 40 0f 	taddcc  %i1, %o7, %g4
    4cc4:	89 06 40 10 	taddcc  %i1, %l0, %g4
    4cc8:	89 06 40 11 	taddcc  %i1, %l1, %g4
    4ccc:	89 06 40 12 	taddcc  %i1, %l2, %g4
    4cd0:	89 06 40 13 	taddcc  %i1, %l3, %g4
    4cd4:	89 06 40 14 	taddcc  %i1, %l4, %g4
    4cd8:	89 06 40 15 	taddcc  %i1, %l5, %g4
    4cdc:	89 06 40 16 	taddcc  %i1, %l6, %g4
    4ce0:	89 06 40 17 	taddcc  %i1, %l7, %g4
    4ce4:	89 06 40 18 	taddcc  %i1, %i0, %g4
    4ce8:	89 06 40 19 	taddcc  %i1, %i1, %g4
    4cec:	89 06 40 1a 	taddcc  %i1, %i2, %g4
    4cf0:	89 06 40 1b 	taddcc  %i1, %i3, %g4
    4cf4:	89 06 40 1c 	taddcc  %i1, %i4, %g4
    4cf8:	89 06 40 1d 	taddcc  %i1, %i5, %g4
    4cfc:	89 06 40 1e 	taddcc  %i1, %fp, %g4
    4d00:	89 06 40 1f 	taddcc  %i1, %i7, %g4
    4d04:	89 06 80 00 	taddcc  %i2, %g0, %g4
    4d08:	89 06 80 01 	taddcc  %i2, %g1, %g4
    4d0c:	89 06 80 02 	taddcc  %i2, %g2, %g4
    4d10:	89 06 80 03 	taddcc  %i2, %g3, %g4
    4d14:	89 06 80 04 	taddcc  %i2, %g4, %g4
    4d18:	89 06 80 05 	taddcc  %i2, %g5, %g4
    4d1c:	89 06 80 06 	taddcc  %i2, %g6, %g4
    4d20:	89 06 80 07 	taddcc  %i2, %g7, %g4
    4d24:	89 06 80 08 	taddcc  %i2, %o0, %g4
    4d28:	89 06 80 09 	taddcc  %i2, %o1, %g4
    4d2c:	89 06 80 0a 	taddcc  %i2, %o2, %g4
    4d30:	89 06 80 0b 	taddcc  %i2, %o3, %g4
    4d34:	89 06 80 0c 	taddcc  %i2, %o4, %g4
    4d38:	89 06 80 0d 	taddcc  %i2, %o5, %g4
    4d3c:	89 06 80 0e 	taddcc  %i2, %sp, %g4
    4d40:	89 06 80 0f 	taddcc  %i2, %o7, %g4
    4d44:	89 06 80 10 	taddcc  %i2, %l0, %g4
    4d48:	89 06 80 11 	taddcc  %i2, %l1, %g4
    4d4c:	89 06 80 12 	taddcc  %i2, %l2, %g4
    4d50:	89 06 80 13 	taddcc  %i2, %l3, %g4
    4d54:	89 06 80 14 	taddcc  %i2, %l4, %g4
    4d58:	89 06 80 15 	taddcc  %i2, %l5, %g4
    4d5c:	89 06 80 16 	taddcc  %i2, %l6, %g4
    4d60:	89 06 80 17 	taddcc  %i2, %l7, %g4
    4d64:	89 06 80 18 	taddcc  %i2, %i0, %g4
    4d68:	89 06 80 19 	taddcc  %i2, %i1, %g4
    4d6c:	89 06 80 1a 	taddcc  %i2, %i2, %g4
    4d70:	89 06 80 1b 	taddcc  %i2, %i3, %g4
    4d74:	89 06 80 1c 	taddcc  %i2, %i4, %g4
    4d78:	89 06 80 1d 	taddcc  %i2, %i5, %g4
    4d7c:	89 06 80 1e 	taddcc  %i2, %fp, %g4
    4d80:	89 06 80 1f 	taddcc  %i2, %i7, %g4
    4d84:	89 06 c0 00 	taddcc  %i3, %g0, %g4
    4d88:	89 06 c0 01 	taddcc  %i3, %g1, %g4
    4d8c:	89 06 c0 02 	taddcc  %i3, %g2, %g4
    4d90:	89 06 c0 03 	taddcc  %i3, %g3, %g4
    4d94:	89 06 c0 04 	taddcc  %i3, %g4, %g4
    4d98:	89 06 c0 05 	taddcc  %i3, %g5, %g4
    4d9c:	89 06 c0 06 	taddcc  %i3, %g6, %g4
    4da0:	89 06 c0 07 	taddcc  %i3, %g7, %g4
    4da4:	89 06 c0 08 	taddcc  %i3, %o0, %g4
    4da8:	89 06 c0 09 	taddcc  %i3, %o1, %g4
    4dac:	89 06 c0 0a 	taddcc  %i3, %o2, %g4
    4db0:	89 06 c0 0b 	taddcc  %i3, %o3, %g4
    4db4:	89 06 c0 0c 	taddcc  %i3, %o4, %g4
    4db8:	89 06 c0 0d 	taddcc  %i3, %o5, %g4
    4dbc:	89 06 c0 0e 	taddcc  %i3, %sp, %g4
    4dc0:	89 06 c0 0f 	taddcc  %i3, %o7, %g4
    4dc4:	89 06 c0 10 	taddcc  %i3, %l0, %g4
    4dc8:	89 06 c0 11 	taddcc  %i3, %l1, %g4
    4dcc:	89 06 c0 12 	taddcc  %i3, %l2, %g4
    4dd0:	89 06 c0 13 	taddcc  %i3, %l3, %g4
    4dd4:	89 06 c0 14 	taddcc  %i3, %l4, %g4
    4dd8:	89 06 c0 15 	taddcc  %i3, %l5, %g4
    4ddc:	89 06 c0 16 	taddcc  %i3, %l6, %g4
    4de0:	89 06 c0 17 	taddcc  %i3, %l7, %g4
    4de4:	89 06 c0 18 	taddcc  %i3, %i0, %g4
    4de8:	89 06 c0 19 	taddcc  %i3, %i1, %g4
    4dec:	89 06 c0 1a 	taddcc  %i3, %i2, %g4
    4df0:	89 06 c0 1b 	taddcc  %i3, %i3, %g4
    4df4:	89 06 c0 1c 	taddcc  %i3, %i4, %g4
    4df8:	89 06 c0 1d 	taddcc  %i3, %i5, %g4
    4dfc:	89 06 c0 1e 	taddcc  %i3, %fp, %g4
    4e00:	89 06 c0 1f 	taddcc  %i3, %i7, %g4
    4e04:	89 07 00 00 	taddcc  %i4, %g0, %g4
    4e08:	89 07 00 01 	taddcc  %i4, %g1, %g4
    4e0c:	89 07 00 02 	taddcc  %i4, %g2, %g4
    4e10:	89 07 00 03 	taddcc  %i4, %g3, %g4
    4e14:	89 07 00 04 	taddcc  %i4, %g4, %g4
    4e18:	89 07 00 05 	taddcc  %i4, %g5, %g4
    4e1c:	89 07 00 06 	taddcc  %i4, %g6, %g4
    4e20:	89 07 00 07 	taddcc  %i4, %g7, %g4
    4e24:	89 07 00 08 	taddcc  %i4, %o0, %g4
    4e28:	89 07 00 09 	taddcc  %i4, %o1, %g4
    4e2c:	89 07 00 0a 	taddcc  %i4, %o2, %g4
    4e30:	89 07 00 0b 	taddcc  %i4, %o3, %g4
    4e34:	89 07 00 0c 	taddcc  %i4, %o4, %g4
    4e38:	89 07 00 0d 	taddcc  %i4, %o5, %g4
    4e3c:	89 07 00 0e 	taddcc  %i4, %sp, %g4
    4e40:	89 07 00 0f 	taddcc  %i4, %o7, %g4
    4e44:	89 07 00 10 	taddcc  %i4, %l0, %g4
    4e48:	89 07 00 11 	taddcc  %i4, %l1, %g4
    4e4c:	89 07 00 12 	taddcc  %i4, %l2, %g4
    4e50:	89 07 00 13 	taddcc  %i4, %l3, %g4
    4e54:	89 07 00 14 	taddcc  %i4, %l4, %g4
    4e58:	89 07 00 15 	taddcc  %i4, %l5, %g4
    4e5c:	89 07 00 16 	taddcc  %i4, %l6, %g4
    4e60:	89 07 00 17 	taddcc  %i4, %l7, %g4
    4e64:	89 07 00 18 	taddcc  %i4, %i0, %g4
    4e68:	89 07 00 19 	taddcc  %i4, %i1, %g4
    4e6c:	89 07 00 1a 	taddcc  %i4, %i2, %g4
    4e70:	89 07 00 1b 	taddcc  %i4, %i3, %g4
    4e74:	89 07 00 1c 	taddcc  %i4, %i4, %g4
    4e78:	89 07 00 1d 	taddcc  %i4, %i5, %g4
    4e7c:	89 07 00 1e 	taddcc  %i4, %fp, %g4
    4e80:	89 07 00 1f 	taddcc  %i4, %i7, %g4
    4e84:	89 07 40 00 	taddcc  %i5, %g0, %g4
    4e88:	89 07 40 01 	taddcc  %i5, %g1, %g4
    4e8c:	89 07 40 02 	taddcc  %i5, %g2, %g4
    4e90:	89 07 40 03 	taddcc  %i5, %g3, %g4
    4e94:	89 07 40 04 	taddcc  %i5, %g4, %g4
    4e98:	89 07 40 05 	taddcc  %i5, %g5, %g4
    4e9c:	89 07 40 06 	taddcc  %i5, %g6, %g4
    4ea0:	89 07 40 07 	taddcc  %i5, %g7, %g4
    4ea4:	89 07 40 08 	taddcc  %i5, %o0, %g4
    4ea8:	89 07 40 09 	taddcc  %i5, %o1, %g4
    4eac:	89 07 40 0a 	taddcc  %i5, %o2, %g4
    4eb0:	89 07 40 0b 	taddcc  %i5, %o3, %g4
    4eb4:	89 07 40 0c 	taddcc  %i5, %o4, %g4
    4eb8:	89 07 40 0d 	taddcc  %i5, %o5, %g4
    4ebc:	89 07 40 0e 	taddcc  %i5, %sp, %g4
    4ec0:	89 07 40 0f 	taddcc  %i5, %o7, %g4
    4ec4:	89 07 40 10 	taddcc  %i5, %l0, %g4
    4ec8:	89 07 40 11 	taddcc  %i5, %l1, %g4
    4ecc:	89 07 40 12 	taddcc  %i5, %l2, %g4
    4ed0:	89 07 40 13 	taddcc  %i5, %l3, %g4
    4ed4:	89 07 40 14 	taddcc  %i5, %l4, %g4
    4ed8:	89 07 40 15 	taddcc  %i5, %l5, %g4
    4edc:	89 07 40 16 	taddcc  %i5, %l6, %g4
    4ee0:	89 07 40 17 	taddcc  %i5, %l7, %g4
    4ee4:	89 07 40 18 	taddcc  %i5, %i0, %g4
    4ee8:	89 07 40 19 	taddcc  %i5, %i1, %g4
    4eec:	89 07 40 1a 	taddcc  %i5, %i2, %g4
    4ef0:	89 07 40 1b 	taddcc  %i5, %i3, %g4
    4ef4:	89 07 40 1c 	taddcc  %i5, %i4, %g4
    4ef8:	89 07 40 1d 	taddcc  %i5, %i5, %g4
    4efc:	89 07 40 1e 	taddcc  %i5, %fp, %g4
    4f00:	89 07 40 1f 	taddcc  %i5, %i7, %g4
    4f04:	89 07 80 00 	taddcc  %fp, %g0, %g4
    4f08:	89 07 80 01 	taddcc  %fp, %g1, %g4
    4f0c:	89 07 80 02 	taddcc  %fp, %g2, %g4
    4f10:	89 07 80 03 	taddcc  %fp, %g3, %g4
    4f14:	89 07 80 04 	taddcc  %fp, %g4, %g4
    4f18:	89 07 80 05 	taddcc  %fp, %g5, %g4
    4f1c:	89 07 80 06 	taddcc  %fp, %g6, %g4
    4f20:	89 07 80 07 	taddcc  %fp, %g7, %g4
    4f24:	89 07 80 08 	taddcc  %fp, %o0, %g4
    4f28:	89 07 80 09 	taddcc  %fp, %o1, %g4
    4f2c:	89 07 80 0a 	taddcc  %fp, %o2, %g4
    4f30:	89 07 80 0b 	taddcc  %fp, %o3, %g4
    4f34:	89 07 80 0c 	taddcc  %fp, %o4, %g4
    4f38:	89 07 80 0d 	taddcc  %fp, %o5, %g4
    4f3c:	89 07 80 0e 	taddcc  %fp, %sp, %g4
    4f40:	89 07 80 0f 	taddcc  %fp, %o7, %g4
    4f44:	89 07 80 10 	taddcc  %fp, %l0, %g4
    4f48:	89 07 80 11 	taddcc  %fp, %l1, %g4
    4f4c:	89 07 80 12 	taddcc  %fp, %l2, %g4
    4f50:	89 07 80 13 	taddcc  %fp, %l3, %g4
    4f54:	89 07 80 14 	taddcc  %fp, %l4, %g4
    4f58:	89 07 80 15 	taddcc  %fp, %l5, %g4
    4f5c:	89 07 80 16 	taddcc  %fp, %l6, %g4
    4f60:	89 07 80 17 	taddcc  %fp, %l7, %g4
    4f64:	89 07 80 18 	taddcc  %fp, %i0, %g4
    4f68:	89 07 80 19 	taddcc  %fp, %i1, %g4
    4f6c:	89 07 80 1a 	taddcc  %fp, %i2, %g4
    4f70:	89 07 80 1b 	taddcc  %fp, %i3, %g4
    4f74:	89 07 80 1c 	taddcc  %fp, %i4, %g4
    4f78:	89 07 80 1d 	taddcc  %fp, %i5, %g4
    4f7c:	89 07 80 1e 	taddcc  %fp, %fp, %g4
    4f80:	89 07 80 1f 	taddcc  %fp, %i7, %g4
    4f84:	89 07 c0 00 	taddcc  %i7, %g0, %g4
    4f88:	89 07 c0 01 	taddcc  %i7, %g1, %g4
    4f8c:	89 07 c0 02 	taddcc  %i7, %g2, %g4
    4f90:	89 07 c0 03 	taddcc  %i7, %g3, %g4
    4f94:	89 07 c0 04 	taddcc  %i7, %g4, %g4
    4f98:	89 07 c0 05 	taddcc  %i7, %g5, %g4
    4f9c:	89 07 c0 06 	taddcc  %i7, %g6, %g4
    4fa0:	89 07 c0 07 	taddcc  %i7, %g7, %g4
    4fa4:	89 07 c0 08 	taddcc  %i7, %o0, %g4
    4fa8:	89 07 c0 09 	taddcc  %i7, %o1, %g4
    4fac:	89 07 c0 0a 	taddcc  %i7, %o2, %g4
    4fb0:	89 07 c0 0b 	taddcc  %i7, %o3, %g4
    4fb4:	89 07 c0 0c 	taddcc  %i7, %o4, %g4
    4fb8:	89 07 c0 0d 	taddcc  %i7, %o5, %g4
    4fbc:	89 07 c0 0e 	taddcc  %i7, %sp, %g4
    4fc0:	89 07 c0 0f 	taddcc  %i7, %o7, %g4
    4fc4:	89 07 c0 10 	taddcc  %i7, %l0, %g4
    4fc8:	89 07 c0 11 	taddcc  %i7, %l1, %g4
    4fcc:	89 07 c0 12 	taddcc  %i7, %l2, %g4
    4fd0:	89 07 c0 13 	taddcc  %i7, %l3, %g4
    4fd4:	89 07 c0 14 	taddcc  %i7, %l4, %g4
    4fd8:	89 07 c0 15 	taddcc  %i7, %l5, %g4
    4fdc:	89 07 c0 16 	taddcc  %i7, %l6, %g4
    4fe0:	89 07 c0 17 	taddcc  %i7, %l7, %g4
    4fe4:	89 07 c0 18 	taddcc  %i7, %i0, %g4
    4fe8:	89 07 c0 19 	taddcc  %i7, %i1, %g4
    4fec:	89 07 c0 1a 	taddcc  %i7, %i2, %g4
    4ff0:	89 07 c0 1b 	taddcc  %i7, %i3, %g4
    4ff4:	89 07 c0 1c 	taddcc  %i7, %i4, %g4
    4ff8:	89 07 c0 1d 	taddcc  %i7, %i5, %g4
    4ffc:	89 07 c0 1e 	taddcc  %i7, %fp, %g4
    5000:	89 07 c0 1f 	taddcc  %i7, %i7, %g4
    5004:	8b 00 00 00 	taddcc  %g0, %g0, %g5
    5008:	8b 00 00 01 	taddcc  %g0, %g1, %g5
    500c:	8b 00 00 02 	taddcc  %g0, %g2, %g5
    5010:	8b 00 00 03 	taddcc  %g0, %g3, %g5
    5014:	8b 00 00 04 	taddcc  %g0, %g4, %g5
    5018:	8b 00 00 05 	taddcc  %g0, %g5, %g5
    501c:	8b 00 00 06 	taddcc  %g0, %g6, %g5
    5020:	8b 00 00 07 	taddcc  %g0, %g7, %g5
    5024:	8b 00 00 08 	taddcc  %g0, %o0, %g5
    5028:	8b 00 00 09 	taddcc  %g0, %o1, %g5
    502c:	8b 00 00 0a 	taddcc  %g0, %o2, %g5
    5030:	8b 00 00 0b 	taddcc  %g0, %o3, %g5
    5034:	8b 00 00 0c 	taddcc  %g0, %o4, %g5
    5038:	8b 00 00 0d 	taddcc  %g0, %o5, %g5
    503c:	8b 00 00 0e 	taddcc  %g0, %sp, %g5
    5040:	8b 00 00 0f 	taddcc  %g0, %o7, %g5
    5044:	8b 00 00 10 	taddcc  %g0, %l0, %g5
    5048:	8b 00 00 11 	taddcc  %g0, %l1, %g5
    504c:	8b 00 00 12 	taddcc  %g0, %l2, %g5
    5050:	8b 00 00 13 	taddcc  %g0, %l3, %g5
    5054:	8b 00 00 14 	taddcc  %g0, %l4, %g5
    5058:	8b 00 00 15 	taddcc  %g0, %l5, %g5
    505c:	8b 00 00 16 	taddcc  %g0, %l6, %g5
    5060:	8b 00 00 17 	taddcc  %g0, %l7, %g5
    5064:	8b 00 00 18 	taddcc  %g0, %i0, %g5
    5068:	8b 00 00 19 	taddcc  %g0, %i1, %g5
    506c:	8b 00 00 1a 	taddcc  %g0, %i2, %g5
    5070:	8b 00 00 1b 	taddcc  %g0, %i3, %g5
    5074:	8b 00 00 1c 	taddcc  %g0, %i4, %g5
    5078:	8b 00 00 1d 	taddcc  %g0, %i5, %g5
    507c:	8b 00 00 1e 	taddcc  %g0, %fp, %g5
    5080:	8b 00 00 1f 	taddcc  %g0, %i7, %g5
    5084:	8b 00 40 00 	taddcc  %g1, %g0, %g5
    5088:	8b 00 40 01 	taddcc  %g1, %g1, %g5
    508c:	8b 00 40 02 	taddcc  %g1, %g2, %g5
    5090:	8b 00 40 03 	taddcc  %g1, %g3, %g5
    5094:	8b 00 40 04 	taddcc  %g1, %g4, %g5
    5098:	8b 00 40 05 	taddcc  %g1, %g5, %g5
    509c:	8b 00 40 06 	taddcc  %g1, %g6, %g5
    50a0:	8b 00 40 07 	taddcc  %g1, %g7, %g5
    50a4:	8b 00 40 08 	taddcc  %g1, %o0, %g5
    50a8:	8b 00 40 09 	taddcc  %g1, %o1, %g5
    50ac:	8b 00 40 0a 	taddcc  %g1, %o2, %g5
    50b0:	8b 00 40 0b 	taddcc  %g1, %o3, %g5
    50b4:	8b 00 40 0c 	taddcc  %g1, %o4, %g5
    50b8:	8b 00 40 0d 	taddcc  %g1, %o5, %g5
    50bc:	8b 00 40 0e 	taddcc  %g1, %sp, %g5
    50c0:	8b 00 40 0f 	taddcc  %g1, %o7, %g5
    50c4:	8b 00 40 10 	taddcc  %g1, %l0, %g5
    50c8:	8b 00 40 11 	taddcc  %g1, %l1, %g5
    50cc:	8b 00 40 12 	taddcc  %g1, %l2, %g5
    50d0:	8b 00 40 13 	taddcc  %g1, %l3, %g5
    50d4:	8b 00 40 14 	taddcc  %g1, %l4, %g5
    50d8:	8b 00 40 15 	taddcc  %g1, %l5, %g5
    50dc:	8b 00 40 16 	taddcc  %g1, %l6, %g5
    50e0:	8b 00 40 17 	taddcc  %g1, %l7, %g5
    50e4:	8b 00 40 18 	taddcc  %g1, %i0, %g5
    50e8:	8b 00 40 19 	taddcc  %g1, %i1, %g5
    50ec:	8b 00 40 1a 	taddcc  %g1, %i2, %g5
    50f0:	8b 00 40 1b 	taddcc  %g1, %i3, %g5
    50f4:	8b 00 40 1c 	taddcc  %g1, %i4, %g5
    50f8:	8b 00 40 1d 	taddcc  %g1, %i5, %g5
    50fc:	8b 00 40 1e 	taddcc  %g1, %fp, %g5
    5100:	8b 00 40 1f 	taddcc  %g1, %i7, %g5
    5104:	8b 00 80 00 	taddcc  %g2, %g0, %g5
    5108:	8b 00 80 01 	taddcc  %g2, %g1, %g5
    510c:	8b 00 80 02 	taddcc  %g2, %g2, %g5
    5110:	8b 00 80 03 	taddcc  %g2, %g3, %g5
    5114:	8b 00 80 04 	taddcc  %g2, %g4, %g5
    5118:	8b 00 80 05 	taddcc  %g2, %g5, %g5
    511c:	8b 00 80 06 	taddcc  %g2, %g6, %g5
    5120:	8b 00 80 07 	taddcc  %g2, %g7, %g5
    5124:	8b 00 80 08 	taddcc  %g2, %o0, %g5
    5128:	8b 00 80 09 	taddcc  %g2, %o1, %g5
    512c:	8b 00 80 0a 	taddcc  %g2, %o2, %g5
    5130:	8b 00 80 0b 	taddcc  %g2, %o3, %g5
    5134:	8b 00 80 0c 	taddcc  %g2, %o4, %g5
    5138:	8b 00 80 0d 	taddcc  %g2, %o5, %g5
    513c:	8b 00 80 0e 	taddcc  %g2, %sp, %g5
    5140:	8b 00 80 0f 	taddcc  %g2, %o7, %g5
    5144:	8b 00 80 10 	taddcc  %g2, %l0, %g5
    5148:	8b 00 80 11 	taddcc  %g2, %l1, %g5
    514c:	8b 00 80 12 	taddcc  %g2, %l2, %g5
    5150:	8b 00 80 13 	taddcc  %g2, %l3, %g5
    5154:	8b 00 80 14 	taddcc  %g2, %l4, %g5
    5158:	8b 00 80 15 	taddcc  %g2, %l5, %g5
    515c:	8b 00 80 16 	taddcc  %g2, %l6, %g5
    5160:	8b 00 80 17 	taddcc  %g2, %l7, %g5
    5164:	8b 00 80 18 	taddcc  %g2, %i0, %g5
    5168:	8b 00 80 19 	taddcc  %g2, %i1, %g5
    516c:	8b 00 80 1a 	taddcc  %g2, %i2, %g5
    5170:	8b 00 80 1b 	taddcc  %g2, %i3, %g5
    5174:	8b 00 80 1c 	taddcc  %g2, %i4, %g5
    5178:	8b 00 80 1d 	taddcc  %g2, %i5, %g5
    517c:	8b 00 80 1e 	taddcc  %g2, %fp, %g5
    5180:	8b 00 80 1f 	taddcc  %g2, %i7, %g5
    5184:	8b 00 c0 00 	taddcc  %g3, %g0, %g5
    5188:	8b 00 c0 01 	taddcc  %g3, %g1, %g5
    518c:	8b 00 c0 02 	taddcc  %g3, %g2, %g5
    5190:	8b 00 c0 03 	taddcc  %g3, %g3, %g5
    5194:	8b 00 c0 04 	taddcc  %g3, %g4, %g5
    5198:	8b 00 c0 05 	taddcc  %g3, %g5, %g5
    519c:	8b 00 c0 06 	taddcc  %g3, %g6, %g5
    51a0:	8b 00 c0 07 	taddcc  %g3, %g7, %g5
    51a4:	8b 00 c0 08 	taddcc  %g3, %o0, %g5
    51a8:	8b 00 c0 09 	taddcc  %g3, %o1, %g5
    51ac:	8b 00 c0 0a 	taddcc  %g3, %o2, %g5
    51b0:	8b 00 c0 0b 	taddcc  %g3, %o3, %g5
    51b4:	8b 00 c0 0c 	taddcc  %g3, %o4, %g5
    51b8:	8b 00 c0 0d 	taddcc  %g3, %o5, %g5
    51bc:	8b 00 c0 0e 	taddcc  %g3, %sp, %g5
    51c0:	8b 00 c0 0f 	taddcc  %g3, %o7, %g5
    51c4:	8b 00 c0 10 	taddcc  %g3, %l0, %g5
    51c8:	8b 00 c0 11 	taddcc  %g3, %l1, %g5
    51cc:	8b 00 c0 12 	taddcc  %g3, %l2, %g5
    51d0:	8b 00 c0 13 	taddcc  %g3, %l3, %g5
    51d4:	8b 00 c0 14 	taddcc  %g3, %l4, %g5
    51d8:	8b 00 c0 15 	taddcc  %g3, %l5, %g5
    51dc:	8b 00 c0 16 	taddcc  %g3, %l6, %g5
    51e0:	8b 00 c0 17 	taddcc  %g3, %l7, %g5
    51e4:	8b 00 c0 18 	taddcc  %g3, %i0, %g5
    51e8:	8b 00 c0 19 	taddcc  %g3, %i1, %g5
    51ec:	8b 00 c0 1a 	taddcc  %g3, %i2, %g5
    51f0:	8b 00 c0 1b 	taddcc  %g3, %i3, %g5
    51f4:	8b 00 c0 1c 	taddcc  %g3, %i4, %g5
    51f8:	8b 00 c0 1d 	taddcc  %g3, %i5, %g5
    51fc:	8b 00 c0 1e 	taddcc  %g3, %fp, %g5
    5200:	8b 00 c0 1f 	taddcc  %g3, %i7, %g5
    5204:	8b 01 00 00 	taddcc  %g4, %g0, %g5
    5208:	8b 01 00 01 	taddcc  %g4, %g1, %g5
    520c:	8b 01 00 02 	taddcc  %g4, %g2, %g5
    5210:	8b 01 00 03 	taddcc  %g4, %g3, %g5
    5214:	8b 01 00 04 	taddcc  %g4, %g4, %g5
    5218:	8b 01 00 05 	taddcc  %g4, %g5, %g5
    521c:	8b 01 00 06 	taddcc  %g4, %g6, %g5
    5220:	8b 01 00 07 	taddcc  %g4, %g7, %g5
    5224:	8b 01 00 08 	taddcc  %g4, %o0, %g5
    5228:	8b 01 00 09 	taddcc  %g4, %o1, %g5
    522c:	8b 01 00 0a 	taddcc  %g4, %o2, %g5
    5230:	8b 01 00 0b 	taddcc  %g4, %o3, %g5
    5234:	8b 01 00 0c 	taddcc  %g4, %o4, %g5
    5238:	8b 01 00 0d 	taddcc  %g4, %o5, %g5
    523c:	8b 01 00 0e 	taddcc  %g4, %sp, %g5
    5240:	8b 01 00 0f 	taddcc  %g4, %o7, %g5
    5244:	8b 01 00 10 	taddcc  %g4, %l0, %g5
    5248:	8b 01 00 11 	taddcc  %g4, %l1, %g5
    524c:	8b 01 00 12 	taddcc  %g4, %l2, %g5
    5250:	8b 01 00 13 	taddcc  %g4, %l3, %g5
    5254:	8b 01 00 14 	taddcc  %g4, %l4, %g5
    5258:	8b 01 00 15 	taddcc  %g4, %l5, %g5
    525c:	8b 01 00 16 	taddcc  %g4, %l6, %g5
    5260:	8b 01 00 17 	taddcc  %g4, %l7, %g5
    5264:	8b 01 00 18 	taddcc  %g4, %i0, %g5
    5268:	8b 01 00 19 	taddcc  %g4, %i1, %g5
    526c:	8b 01 00 1a 	taddcc  %g4, %i2, %g5
    5270:	8b 01 00 1b 	taddcc  %g4, %i3, %g5
    5274:	8b 01 00 1c 	taddcc  %g4, %i4, %g5
    5278:	8b 01 00 1d 	taddcc  %g4, %i5, %g5
    527c:	8b 01 00 1e 	taddcc  %g4, %fp, %g5
    5280:	8b 01 00 1f 	taddcc  %g4, %i7, %g5
    5284:	8b 01 40 00 	taddcc  %g5, %g0, %g5
    5288:	8b 01 40 01 	taddcc  %g5, %g1, %g5
    528c:	8b 01 40 02 	taddcc  %g5, %g2, %g5
    5290:	8b 01 40 03 	taddcc  %g5, %g3, %g5
    5294:	8b 01 40 04 	taddcc  %g5, %g4, %g5
    5298:	8b 01 40 05 	taddcc  %g5, %g5, %g5
    529c:	8b 01 40 06 	taddcc  %g5, %g6, %g5
    52a0:	8b 01 40 07 	taddcc  %g5, %g7, %g5
    52a4:	8b 01 40 08 	taddcc  %g5, %o0, %g5
    52a8:	8b 01 40 09 	taddcc  %g5, %o1, %g5
    52ac:	8b 01 40 0a 	taddcc  %g5, %o2, %g5
    52b0:	8b 01 40 0b 	taddcc  %g5, %o3, %g5
    52b4:	8b 01 40 0c 	taddcc  %g5, %o4, %g5
    52b8:	8b 01 40 0d 	taddcc  %g5, %o5, %g5
    52bc:	8b 01 40 0e 	taddcc  %g5, %sp, %g5
    52c0:	8b 01 40 0f 	taddcc  %g5, %o7, %g5
    52c4:	8b 01 40 10 	taddcc  %g5, %l0, %g5
    52c8:	8b 01 40 11 	taddcc  %g5, %l1, %g5
    52cc:	8b 01 40 12 	taddcc  %g5, %l2, %g5
    52d0:	8b 01 40 13 	taddcc  %g5, %l3, %g5
    52d4:	8b 01 40 14 	taddcc  %g5, %l4, %g5
    52d8:	8b 01 40 15 	taddcc  %g5, %l5, %g5
    52dc:	8b 01 40 16 	taddcc  %g5, %l6, %g5
    52e0:	8b 01 40 17 	taddcc  %g5, %l7, %g5
    52e4:	8b 01 40 18 	taddcc  %g5, %i0, %g5
    52e8:	8b 01 40 19 	taddcc  %g5, %i1, %g5
    52ec:	8b 01 40 1a 	taddcc  %g5, %i2, %g5
    52f0:	8b 01 40 1b 	taddcc  %g5, %i3, %g5
    52f4:	8b 01 40 1c 	taddcc  %g5, %i4, %g5
    52f8:	8b 01 40 1d 	taddcc  %g5, %i5, %g5
    52fc:	8b 01 40 1e 	taddcc  %g5, %fp, %g5
    5300:	8b 01 40 1f 	taddcc  %g5, %i7, %g5
    5304:	8b 01 80 00 	taddcc  %g6, %g0, %g5
    5308:	8b 01 80 01 	taddcc  %g6, %g1, %g5
    530c:	8b 01 80 02 	taddcc  %g6, %g2, %g5
    5310:	8b 01 80 03 	taddcc  %g6, %g3, %g5
    5314:	8b 01 80 04 	taddcc  %g6, %g4, %g5
    5318:	8b 01 80 05 	taddcc  %g6, %g5, %g5
    531c:	8b 01 80 06 	taddcc  %g6, %g6, %g5
    5320:	8b 01 80 07 	taddcc  %g6, %g7, %g5
    5324:	8b 01 80 08 	taddcc  %g6, %o0, %g5
    5328:	8b 01 80 09 	taddcc  %g6, %o1, %g5
    532c:	8b 01 80 0a 	taddcc  %g6, %o2, %g5
    5330:	8b 01 80 0b 	taddcc  %g6, %o3, %g5
    5334:	8b 01 80 0c 	taddcc  %g6, %o4, %g5
    5338:	8b 01 80 0d 	taddcc  %g6, %o5, %g5
    533c:	8b 01 80 0e 	taddcc  %g6, %sp, %g5
    5340:	8b 01 80 0f 	taddcc  %g6, %o7, %g5
    5344:	8b 01 80 10 	taddcc  %g6, %l0, %g5
    5348:	8b 01 80 11 	taddcc  %g6, %l1, %g5
    534c:	8b 01 80 12 	taddcc  %g6, %l2, %g5
    5350:	8b 01 80 13 	taddcc  %g6, %l3, %g5
    5354:	8b 01 80 14 	taddcc  %g6, %l4, %g5
    5358:	8b 01 80 15 	taddcc  %g6, %l5, %g5
    535c:	8b 01 80 16 	taddcc  %g6, %l6, %g5
    5360:	8b 01 80 17 	taddcc  %g6, %l7, %g5
    5364:	8b 01 80 18 	taddcc  %g6, %i0, %g5
    5368:	8b 01 80 19 	taddcc  %g6, %i1, %g5
    536c:	8b 01 80 1a 	taddcc  %g6, %i2, %g5
    5370:	8b 01 80 1b 	taddcc  %g6, %i3, %g5
    5374:	8b 01 80 1c 	taddcc  %g6, %i4, %g5
    5378:	8b 01 80 1d 	taddcc  %g6, %i5, %g5
    537c:	8b 01 80 1e 	taddcc  %g6, %fp, %g5
    5380:	8b 01 80 1f 	taddcc  %g6, %i7, %g5
    5384:	8b 01 c0 00 	taddcc  %g7, %g0, %g5
    5388:	8b 01 c0 01 	taddcc  %g7, %g1, %g5
    538c:	8b 01 c0 02 	taddcc  %g7, %g2, %g5
    5390:	8b 01 c0 03 	taddcc  %g7, %g3, %g5
    5394:	8b 01 c0 04 	taddcc  %g7, %g4, %g5
    5398:	8b 01 c0 05 	taddcc  %g7, %g5, %g5
    539c:	8b 01 c0 06 	taddcc  %g7, %g6, %g5
    53a0:	8b 01 c0 07 	taddcc  %g7, %g7, %g5
    53a4:	8b 01 c0 08 	taddcc  %g7, %o0, %g5
    53a8:	8b 01 c0 09 	taddcc  %g7, %o1, %g5
    53ac:	8b 01 c0 0a 	taddcc  %g7, %o2, %g5
    53b0:	8b 01 c0 0b 	taddcc  %g7, %o3, %g5
    53b4:	8b 01 c0 0c 	taddcc  %g7, %o4, %g5
    53b8:	8b 01 c0 0d 	taddcc  %g7, %o5, %g5
    53bc:	8b 01 c0 0e 	taddcc  %g7, %sp, %g5
    53c0:	8b 01 c0 0f 	taddcc  %g7, %o7, %g5
    53c4:	8b 01 c0 10 	taddcc  %g7, %l0, %g5
    53c8:	8b 01 c0 11 	taddcc  %g7, %l1, %g5
    53cc:	8b 01 c0 12 	taddcc  %g7, %l2, %g5
    53d0:	8b 01 c0 13 	taddcc  %g7, %l3, %g5
    53d4:	8b 01 c0 14 	taddcc  %g7, %l4, %g5
    53d8:	8b 01 c0 15 	taddcc  %g7, %l5, %g5
    53dc:	8b 01 c0 16 	taddcc  %g7, %l6, %g5
    53e0:	8b 01 c0 17 	taddcc  %g7, %l7, %g5
    53e4:	8b 01 c0 18 	taddcc  %g7, %i0, %g5
    53e8:	8b 01 c0 19 	taddcc  %g7, %i1, %g5
    53ec:	8b 01 c0 1a 	taddcc  %g7, %i2, %g5
    53f0:	8b 01 c0 1b 	taddcc  %g7, %i3, %g5
    53f4:	8b 01 c0 1c 	taddcc  %g7, %i4, %g5
    53f8:	8b 01 c0 1d 	taddcc  %g7, %i5, %g5
    53fc:	8b 01 c0 1e 	taddcc  %g7, %fp, %g5
    5400:	8b 01 c0 1f 	taddcc  %g7, %i7, %g5
    5404:	8b 02 00 00 	taddcc  %o0, %g0, %g5
    5408:	8b 02 00 01 	taddcc  %o0, %g1, %g5
    540c:	8b 02 00 02 	taddcc  %o0, %g2, %g5
    5410:	8b 02 00 03 	taddcc  %o0, %g3, %g5
    5414:	8b 02 00 04 	taddcc  %o0, %g4, %g5
    5418:	8b 02 00 05 	taddcc  %o0, %g5, %g5
    541c:	8b 02 00 06 	taddcc  %o0, %g6, %g5
    5420:	8b 02 00 07 	taddcc  %o0, %g7, %g5
    5424:	8b 02 00 08 	taddcc  %o0, %o0, %g5
    5428:	8b 02 00 09 	taddcc  %o0, %o1, %g5
    542c:	8b 02 00 0a 	taddcc  %o0, %o2, %g5
    5430:	8b 02 00 0b 	taddcc  %o0, %o3, %g5
    5434:	8b 02 00 0c 	taddcc  %o0, %o4, %g5
    5438:	8b 02 00 0d 	taddcc  %o0, %o5, %g5
    543c:	8b 02 00 0e 	taddcc  %o0, %sp, %g5
    5440:	8b 02 00 0f 	taddcc  %o0, %o7, %g5
    5444:	8b 02 00 10 	taddcc  %o0, %l0, %g5
    5448:	8b 02 00 11 	taddcc  %o0, %l1, %g5
    544c:	8b 02 00 12 	taddcc  %o0, %l2, %g5
    5450:	8b 02 00 13 	taddcc  %o0, %l3, %g5
    5454:	8b 02 00 14 	taddcc  %o0, %l4, %g5
    5458:	8b 02 00 15 	taddcc  %o0, %l5, %g5
    545c:	8b 02 00 16 	taddcc  %o0, %l6, %g5
    5460:	8b 02 00 17 	taddcc  %o0, %l7, %g5
    5464:	8b 02 00 18 	taddcc  %o0, %i0, %g5
    5468:	8b 02 00 19 	taddcc  %o0, %i1, %g5
    546c:	8b 02 00 1a 	taddcc  %o0, %i2, %g5
    5470:	8b 02 00 1b 	taddcc  %o0, %i3, %g5
    5474:	8b 02 00 1c 	taddcc  %o0, %i4, %g5
    5478:	8b 02 00 1d 	taddcc  %o0, %i5, %g5
    547c:	8b 02 00 1e 	taddcc  %o0, %fp, %g5
    5480:	8b 02 00 1f 	taddcc  %o0, %i7, %g5
    5484:	8b 02 40 00 	taddcc  %o1, %g0, %g5
    5488:	8b 02 40 01 	taddcc  %o1, %g1, %g5
    548c:	8b 02 40 02 	taddcc  %o1, %g2, %g5
    5490:	8b 02 40 03 	taddcc  %o1, %g3, %g5
    5494:	8b 02 40 04 	taddcc  %o1, %g4, %g5
    5498:	8b 02 40 05 	taddcc  %o1, %g5, %g5
    549c:	8b 02 40 06 	taddcc  %o1, %g6, %g5
    54a0:	8b 02 40 07 	taddcc  %o1, %g7, %g5
    54a4:	8b 02 40 08 	taddcc  %o1, %o0, %g5
    54a8:	8b 02 40 09 	taddcc  %o1, %o1, %g5
    54ac:	8b 02 40 0a 	taddcc  %o1, %o2, %g5
    54b0:	8b 02 40 0b 	taddcc  %o1, %o3, %g5
    54b4:	8b 02 40 0c 	taddcc  %o1, %o4, %g5
    54b8:	8b 02 40 0d 	taddcc  %o1, %o5, %g5
    54bc:	8b 02 40 0e 	taddcc  %o1, %sp, %g5
    54c0:	8b 02 40 0f 	taddcc  %o1, %o7, %g5
    54c4:	8b 02 40 10 	taddcc  %o1, %l0, %g5
    54c8:	8b 02 40 11 	taddcc  %o1, %l1, %g5
    54cc:	8b 02 40 12 	taddcc  %o1, %l2, %g5
    54d0:	8b 02 40 13 	taddcc  %o1, %l3, %g5
    54d4:	8b 02 40 14 	taddcc  %o1, %l4, %g5
    54d8:	8b 02 40 15 	taddcc  %o1, %l5, %g5
    54dc:	8b 02 40 16 	taddcc  %o1, %l6, %g5
    54e0:	8b 02 40 17 	taddcc  %o1, %l7, %g5
    54e4:	8b 02 40 18 	taddcc  %o1, %i0, %g5
    54e8:	8b 02 40 19 	taddcc  %o1, %i1, %g5
    54ec:	8b 02 40 1a 	taddcc  %o1, %i2, %g5
    54f0:	8b 02 40 1b 	taddcc  %o1, %i3, %g5
    54f4:	8b 02 40 1c 	taddcc  %o1, %i4, %g5
    54f8:	8b 02 40 1d 	taddcc  %o1, %i5, %g5
    54fc:	8b 02 40 1e 	taddcc  %o1, %fp, %g5
    5500:	8b 02 40 1f 	taddcc  %o1, %i7, %g5
    5504:	8b 02 80 00 	taddcc  %o2, %g0, %g5
    5508:	8b 02 80 01 	taddcc  %o2, %g1, %g5
    550c:	8b 02 80 02 	taddcc  %o2, %g2, %g5
    5510:	8b 02 80 03 	taddcc  %o2, %g3, %g5
    5514:	8b 02 80 04 	taddcc  %o2, %g4, %g5
    5518:	8b 02 80 05 	taddcc  %o2, %g5, %g5
    551c:	8b 02 80 06 	taddcc  %o2, %g6, %g5
    5520:	8b 02 80 07 	taddcc  %o2, %g7, %g5
    5524:	8b 02 80 08 	taddcc  %o2, %o0, %g5
    5528:	8b 02 80 09 	taddcc  %o2, %o1, %g5
    552c:	8b 02 80 0a 	taddcc  %o2, %o2, %g5
    5530:	8b 02 80 0b 	taddcc  %o2, %o3, %g5
    5534:	8b 02 80 0c 	taddcc  %o2, %o4, %g5
    5538:	8b 02 80 0d 	taddcc  %o2, %o5, %g5
    553c:	8b 02 80 0e 	taddcc  %o2, %sp, %g5
    5540:	8b 02 80 0f 	taddcc  %o2, %o7, %g5
    5544:	8b 02 80 10 	taddcc  %o2, %l0, %g5
    5548:	8b 02 80 11 	taddcc  %o2, %l1, %g5
    554c:	8b 02 80 12 	taddcc  %o2, %l2, %g5
    5550:	8b 02 80 13 	taddcc  %o2, %l3, %g5
    5554:	8b 02 80 14 	taddcc  %o2, %l4, %g5
    5558:	8b 02 80 15 	taddcc  %o2, %l5, %g5
    555c:	8b 02 80 16 	taddcc  %o2, %l6, %g5
    5560:	8b 02 80 17 	taddcc  %o2, %l7, %g5
    5564:	8b 02 80 18 	taddcc  %o2, %i0, %g5
    5568:	8b 02 80 19 	taddcc  %o2, %i1, %g5
    556c:	8b 02 80 1a 	taddcc  %o2, %i2, %g5
    5570:	8b 02 80 1b 	taddcc  %o2, %i3, %g5
    5574:	8b 02 80 1c 	taddcc  %o2, %i4, %g5
    5578:	8b 02 80 1d 	taddcc  %o2, %i5, %g5
    557c:	8b 02 80 1e 	taddcc  %o2, %fp, %g5
    5580:	8b 02 80 1f 	taddcc  %o2, %i7, %g5
    5584:	8b 02 c0 00 	taddcc  %o3, %g0, %g5
    5588:	8b 02 c0 01 	taddcc  %o3, %g1, %g5
    558c:	8b 02 c0 02 	taddcc  %o3, %g2, %g5
    5590:	8b 02 c0 03 	taddcc  %o3, %g3, %g5
    5594:	8b 02 c0 04 	taddcc  %o3, %g4, %g5
    5598:	8b 02 c0 05 	taddcc  %o3, %g5, %g5
    559c:	8b 02 c0 06 	taddcc  %o3, %g6, %g5
    55a0:	8b 02 c0 07 	taddcc  %o3, %g7, %g5
    55a4:	8b 02 c0 08 	taddcc  %o3, %o0, %g5
    55a8:	8b 02 c0 09 	taddcc  %o3, %o1, %g5
    55ac:	8b 02 c0 0a 	taddcc  %o3, %o2, %g5
    55b0:	8b 02 c0 0b 	taddcc  %o3, %o3, %g5
    55b4:	8b 02 c0 0c 	taddcc  %o3, %o4, %g5
    55b8:	8b 02 c0 0d 	taddcc  %o3, %o5, %g5
    55bc:	8b 02 c0 0e 	taddcc  %o3, %sp, %g5
    55c0:	8b 02 c0 0f 	taddcc  %o3, %o7, %g5
    55c4:	8b 02 c0 10 	taddcc  %o3, %l0, %g5
    55c8:	8b 02 c0 11 	taddcc  %o3, %l1, %g5
    55cc:	8b 02 c0 12 	taddcc  %o3, %l2, %g5
    55d0:	8b 02 c0 13 	taddcc  %o3, %l3, %g5
    55d4:	8b 02 c0 14 	taddcc  %o3, %l4, %g5
    55d8:	8b 02 c0 15 	taddcc  %o3, %l5, %g5
    55dc:	8b 02 c0 16 	taddcc  %o3, %l6, %g5
    55e0:	8b 02 c0 17 	taddcc  %o3, %l7, %g5
    55e4:	8b 02 c0 18 	taddcc  %o3, %i0, %g5
    55e8:	8b 02 c0 19 	taddcc  %o3, %i1, %g5
    55ec:	8b 02 c0 1a 	taddcc  %o3, %i2, %g5
    55f0:	8b 02 c0 1b 	taddcc  %o3, %i3, %g5
    55f4:	8b 02 c0 1c 	taddcc  %o3, %i4, %g5
    55f8:	8b 02 c0 1d 	taddcc  %o3, %i5, %g5
    55fc:	8b 02 c0 1e 	taddcc  %o3, %fp, %g5
    5600:	8b 02 c0 1f 	taddcc  %o3, %i7, %g5
    5604:	8b 03 00 00 	taddcc  %o4, %g0, %g5
    5608:	8b 03 00 01 	taddcc  %o4, %g1, %g5
    560c:	8b 03 00 02 	taddcc  %o4, %g2, %g5
    5610:	8b 03 00 03 	taddcc  %o4, %g3, %g5
    5614:	8b 03 00 04 	taddcc  %o4, %g4, %g5
    5618:	8b 03 00 05 	taddcc  %o4, %g5, %g5
    561c:	8b 03 00 06 	taddcc  %o4, %g6, %g5
    5620:	8b 03 00 07 	taddcc  %o4, %g7, %g5
    5624:	8b 03 00 08 	taddcc  %o4, %o0, %g5
    5628:	8b 03 00 09 	taddcc  %o4, %o1, %g5
    562c:	8b 03 00 0a 	taddcc  %o4, %o2, %g5
    5630:	8b 03 00 0b 	taddcc  %o4, %o3, %g5
    5634:	8b 03 00 0c 	taddcc  %o4, %o4, %g5
    5638:	8b 03 00 0d 	taddcc  %o4, %o5, %g5
    563c:	8b 03 00 0e 	taddcc  %o4, %sp, %g5
    5640:	8b 03 00 0f 	taddcc  %o4, %o7, %g5
    5644:	8b 03 00 10 	taddcc  %o4, %l0, %g5
    5648:	8b 03 00 11 	taddcc  %o4, %l1, %g5
    564c:	8b 03 00 12 	taddcc  %o4, %l2, %g5
    5650:	8b 03 00 13 	taddcc  %o4, %l3, %g5
    5654:	8b 03 00 14 	taddcc  %o4, %l4, %g5
    5658:	8b 03 00 15 	taddcc  %o4, %l5, %g5
    565c:	8b 03 00 16 	taddcc  %o4, %l6, %g5
    5660:	8b 03 00 17 	taddcc  %o4, %l7, %g5
    5664:	8b 03 00 18 	taddcc  %o4, %i0, %g5
    5668:	8b 03 00 19 	taddcc  %o4, %i1, %g5
    566c:	8b 03 00 1a 	taddcc  %o4, %i2, %g5
    5670:	8b 03 00 1b 	taddcc  %o4, %i3, %g5
    5674:	8b 03 00 1c 	taddcc  %o4, %i4, %g5
    5678:	8b 03 00 1d 	taddcc  %o4, %i5, %g5
    567c:	8b 03 00 1e 	taddcc  %o4, %fp, %g5
    5680:	8b 03 00 1f 	taddcc  %o4, %i7, %g5
    5684:	8b 03 40 00 	taddcc  %o5, %g0, %g5
    5688:	8b 03 40 01 	taddcc  %o5, %g1, %g5
    568c:	8b 03 40 02 	taddcc  %o5, %g2, %g5
    5690:	8b 03 40 03 	taddcc  %o5, %g3, %g5
    5694:	8b 03 40 04 	taddcc  %o5, %g4, %g5
    5698:	8b 03 40 05 	taddcc  %o5, %g5, %g5
    569c:	8b 03 40 06 	taddcc  %o5, %g6, %g5
    56a0:	8b 03 40 07 	taddcc  %o5, %g7, %g5
    56a4:	8b 03 40 08 	taddcc  %o5, %o0, %g5
    56a8:	8b 03 40 09 	taddcc  %o5, %o1, %g5
    56ac:	8b 03 40 0a 	taddcc  %o5, %o2, %g5
    56b0:	8b 03 40 0b 	taddcc  %o5, %o3, %g5
    56b4:	8b 03 40 0c 	taddcc  %o5, %o4, %g5
