
/lindata/My-work/Professional/iitb/development/isa-v2-branch/ajit-toolchain/as-dis-test/asmgen/runs/Monday-March-15-2021-13-27-26/objs/xnord.o:     file format elf32-sparc


Disassembly of section .text:

00000000 <main>:
       0:	01 00 00 00 	nop 
       4:	80 38 00 20 	xnord  %g0, %g0, %g0
       8:	80 38 00 21 	xnord  %g0, %g1, %g0
       c:	80 38 00 22 	xnord  %g0, %g2, %g0
      10:	80 38 00 23 	xnord  %g0, %g3, %g0
      14:	80 38 00 24 	xnord  %g0, %g4, %g0
      18:	80 38 00 25 	xnord  %g0, %g5, %g0
      1c:	80 38 00 26 	xnord  %g0, %g6, %g0
      20:	80 38 00 27 	xnord  %g0, %g7, %g0
      24:	80 38 00 28 	xnord  %g0, %o0, %g0
      28:	80 38 00 29 	xnord  %g0, %o1, %g0
      2c:	80 38 00 2a 	xnord  %g0, %o2, %g0
      30:	80 38 00 2b 	xnord  %g0, %o3, %g0
      34:	80 38 00 2c 	xnord  %g0, %o4, %g0
      38:	80 38 00 2d 	xnord  %g0, %o5, %g0
      3c:	80 38 00 2e 	xnord  %g0, %sp, %g0
      40:	80 38 00 2f 	xnord  %g0, %o7, %g0
      44:	80 38 00 30 	xnord  %g0, %l0, %g0
      48:	80 38 00 31 	xnord  %g0, %l1, %g0
      4c:	80 38 00 32 	xnord  %g0, %l2, %g0
      50:	80 38 00 33 	xnord  %g0, %l3, %g0
      54:	80 38 00 34 	xnord  %g0, %l4, %g0
      58:	80 38 00 35 	xnord  %g0, %l5, %g0
      5c:	80 38 00 36 	xnord  %g0, %l6, %g0
      60:	80 38 00 37 	xnord  %g0, %l7, %g0
      64:	80 38 00 38 	xnord  %g0, %i0, %g0
      68:	80 38 00 39 	xnord  %g0, %i1, %g0
      6c:	80 38 00 3a 	xnord  %g0, %i2, %g0
      70:	80 38 00 3b 	xnord  %g0, %i3, %g0
      74:	80 38 00 3c 	xnord  %g0, %i4, %g0
      78:	80 38 00 3d 	xnord  %g0, %i5, %g0
      7c:	80 38 00 3e 	xnord  %g0, %fp, %g0
      80:	80 38 00 3f 	xnord  %g0, %i7, %g0
      84:	80 38 40 20 	xnord  %g1, %g0, %g0
      88:	80 38 40 21 	xnord  %g1, %g1, %g0
      8c:	80 38 40 22 	xnord  %g1, %g2, %g0
      90:	80 38 40 23 	xnord  %g1, %g3, %g0
      94:	80 38 40 24 	xnord  %g1, %g4, %g0
      98:	80 38 40 25 	xnord  %g1, %g5, %g0
      9c:	80 38 40 26 	xnord  %g1, %g6, %g0
      a0:	80 38 40 27 	xnord  %g1, %g7, %g0
      a4:	80 38 40 28 	xnord  %g1, %o0, %g0
      a8:	80 38 40 29 	xnord  %g1, %o1, %g0
      ac:	80 38 40 2a 	xnord  %g1, %o2, %g0
      b0:	80 38 40 2b 	xnord  %g1, %o3, %g0
      b4:	80 38 40 2c 	xnord  %g1, %o4, %g0
      b8:	80 38 40 2d 	xnord  %g1, %o5, %g0
      bc:	80 38 40 2e 	xnord  %g1, %sp, %g0
      c0:	80 38 40 2f 	xnord  %g1, %o7, %g0
      c4:	80 38 40 30 	xnord  %g1, %l0, %g0
      c8:	80 38 40 31 	xnord  %g1, %l1, %g0
      cc:	80 38 40 32 	xnord  %g1, %l2, %g0
      d0:	80 38 40 33 	xnord  %g1, %l3, %g0
      d4:	80 38 40 34 	xnord  %g1, %l4, %g0
      d8:	80 38 40 35 	xnord  %g1, %l5, %g0
      dc:	80 38 40 36 	xnord  %g1, %l6, %g0
      e0:	80 38 40 37 	xnord  %g1, %l7, %g0
      e4:	80 38 40 38 	xnord  %g1, %i0, %g0
      e8:	80 38 40 39 	xnord  %g1, %i1, %g0
      ec:	80 38 40 3a 	xnord  %g1, %i2, %g0
      f0:	80 38 40 3b 	xnord  %g1, %i3, %g0
      f4:	80 38 40 3c 	xnord  %g1, %i4, %g0
      f8:	80 38 40 3d 	xnord  %g1, %i5, %g0
      fc:	80 38 40 3e 	xnord  %g1, %fp, %g0
     100:	80 38 40 3f 	xnord  %g1, %i7, %g0
     104:	80 38 80 20 	xnord  %g2, %g0, %g0
     108:	80 38 80 21 	xnord  %g2, %g1, %g0
     10c:	80 38 80 22 	xnord  %g2, %g2, %g0
     110:	80 38 80 23 	xnord  %g2, %g3, %g0
     114:	80 38 80 24 	xnord  %g2, %g4, %g0
     118:	80 38 80 25 	xnord  %g2, %g5, %g0
     11c:	80 38 80 26 	xnord  %g2, %g6, %g0
     120:	80 38 80 27 	xnord  %g2, %g7, %g0
     124:	80 38 80 28 	xnord  %g2, %o0, %g0
     128:	80 38 80 29 	xnord  %g2, %o1, %g0
     12c:	80 38 80 2a 	xnord  %g2, %o2, %g0
     130:	80 38 80 2b 	xnord  %g2, %o3, %g0
     134:	80 38 80 2c 	xnord  %g2, %o4, %g0
     138:	80 38 80 2d 	xnord  %g2, %o5, %g0
     13c:	80 38 80 2e 	xnord  %g2, %sp, %g0
     140:	80 38 80 2f 	xnord  %g2, %o7, %g0
     144:	80 38 80 30 	xnord  %g2, %l0, %g0
     148:	80 38 80 31 	xnord  %g2, %l1, %g0
     14c:	80 38 80 32 	xnord  %g2, %l2, %g0
     150:	80 38 80 33 	xnord  %g2, %l3, %g0
     154:	80 38 80 34 	xnord  %g2, %l4, %g0
     158:	80 38 80 35 	xnord  %g2, %l5, %g0
     15c:	80 38 80 36 	xnord  %g2, %l6, %g0
     160:	80 38 80 37 	xnord  %g2, %l7, %g0
     164:	80 38 80 38 	xnord  %g2, %i0, %g0
     168:	80 38 80 39 	xnord  %g2, %i1, %g0
     16c:	80 38 80 3a 	xnord  %g2, %i2, %g0
     170:	80 38 80 3b 	xnord  %g2, %i3, %g0
     174:	80 38 80 3c 	xnord  %g2, %i4, %g0
     178:	80 38 80 3d 	xnord  %g2, %i5, %g0
     17c:	80 38 80 3e 	xnord  %g2, %fp, %g0
     180:	80 38 80 3f 	xnord  %g2, %i7, %g0
     184:	80 38 c0 20 	xnord  %g3, %g0, %g0
     188:	80 38 c0 21 	xnord  %g3, %g1, %g0
     18c:	80 38 c0 22 	xnord  %g3, %g2, %g0
     190:	80 38 c0 23 	xnord  %g3, %g3, %g0
     194:	80 38 c0 24 	xnord  %g3, %g4, %g0
     198:	80 38 c0 25 	xnord  %g3, %g5, %g0
     19c:	80 38 c0 26 	xnord  %g3, %g6, %g0
     1a0:	80 38 c0 27 	xnord  %g3, %g7, %g0
     1a4:	80 38 c0 28 	xnord  %g3, %o0, %g0
     1a8:	80 38 c0 29 	xnord  %g3, %o1, %g0
     1ac:	80 38 c0 2a 	xnord  %g3, %o2, %g0
     1b0:	80 38 c0 2b 	xnord  %g3, %o3, %g0
     1b4:	80 38 c0 2c 	xnord  %g3, %o4, %g0
     1b8:	80 38 c0 2d 	xnord  %g3, %o5, %g0
     1bc:	80 38 c0 2e 	xnord  %g3, %sp, %g0
     1c0:	80 38 c0 2f 	xnord  %g3, %o7, %g0
     1c4:	80 38 c0 30 	xnord  %g3, %l0, %g0
     1c8:	80 38 c0 31 	xnord  %g3, %l1, %g0
     1cc:	80 38 c0 32 	xnord  %g3, %l2, %g0
     1d0:	80 38 c0 33 	xnord  %g3, %l3, %g0
     1d4:	80 38 c0 34 	xnord  %g3, %l4, %g0
     1d8:	80 38 c0 35 	xnord  %g3, %l5, %g0
     1dc:	80 38 c0 36 	xnord  %g3, %l6, %g0
     1e0:	80 38 c0 37 	xnord  %g3, %l7, %g0
     1e4:	80 38 c0 38 	xnord  %g3, %i0, %g0
     1e8:	80 38 c0 39 	xnord  %g3, %i1, %g0
     1ec:	80 38 c0 3a 	xnord  %g3, %i2, %g0
     1f0:	80 38 c0 3b 	xnord  %g3, %i3, %g0
     1f4:	80 38 c0 3c 	xnord  %g3, %i4, %g0
     1f8:	80 38 c0 3d 	xnord  %g3, %i5, %g0
     1fc:	80 38 c0 3e 	xnord  %g3, %fp, %g0
     200:	80 38 c0 3f 	xnord  %g3, %i7, %g0
     204:	80 39 00 20 	xnord  %g4, %g0, %g0
     208:	80 39 00 21 	xnord  %g4, %g1, %g0
     20c:	80 39 00 22 	xnord  %g4, %g2, %g0
     210:	80 39 00 23 	xnord  %g4, %g3, %g0
     214:	80 39 00 24 	xnord  %g4, %g4, %g0
     218:	80 39 00 25 	xnord  %g4, %g5, %g0
     21c:	80 39 00 26 	xnord  %g4, %g6, %g0
     220:	80 39 00 27 	xnord  %g4, %g7, %g0
     224:	80 39 00 28 	xnord  %g4, %o0, %g0
     228:	80 39 00 29 	xnord  %g4, %o1, %g0
     22c:	80 39 00 2a 	xnord  %g4, %o2, %g0
     230:	80 39 00 2b 	xnord  %g4, %o3, %g0
     234:	80 39 00 2c 	xnord  %g4, %o4, %g0
     238:	80 39 00 2d 	xnord  %g4, %o5, %g0
     23c:	80 39 00 2e 	xnord  %g4, %sp, %g0
     240:	80 39 00 2f 	xnord  %g4, %o7, %g0
     244:	80 39 00 30 	xnord  %g4, %l0, %g0
     248:	80 39 00 31 	xnord  %g4, %l1, %g0
     24c:	80 39 00 32 	xnord  %g4, %l2, %g0
     250:	80 39 00 33 	xnord  %g4, %l3, %g0
     254:	80 39 00 34 	xnord  %g4, %l4, %g0
     258:	80 39 00 35 	xnord  %g4, %l5, %g0
     25c:	80 39 00 36 	xnord  %g4, %l6, %g0
     260:	80 39 00 37 	xnord  %g4, %l7, %g0
     264:	80 39 00 38 	xnord  %g4, %i0, %g0
     268:	80 39 00 39 	xnord  %g4, %i1, %g0
     26c:	80 39 00 3a 	xnord  %g4, %i2, %g0
     270:	80 39 00 3b 	xnord  %g4, %i3, %g0
     274:	80 39 00 3c 	xnord  %g4, %i4, %g0
     278:	80 39 00 3d 	xnord  %g4, %i5, %g0
     27c:	80 39 00 3e 	xnord  %g4, %fp, %g0
     280:	80 39 00 3f 	xnord  %g4, %i7, %g0
     284:	80 39 40 20 	xnord  %g5, %g0, %g0
     288:	80 39 40 21 	xnord  %g5, %g1, %g0
     28c:	80 39 40 22 	xnord  %g5, %g2, %g0
     290:	80 39 40 23 	xnord  %g5, %g3, %g0
     294:	80 39 40 24 	xnord  %g5, %g4, %g0
     298:	80 39 40 25 	xnord  %g5, %g5, %g0
     29c:	80 39 40 26 	xnord  %g5, %g6, %g0
     2a0:	80 39 40 27 	xnord  %g5, %g7, %g0
     2a4:	80 39 40 28 	xnord  %g5, %o0, %g0
     2a8:	80 39 40 29 	xnord  %g5, %o1, %g0
     2ac:	80 39 40 2a 	xnord  %g5, %o2, %g0
     2b0:	80 39 40 2b 	xnord  %g5, %o3, %g0
     2b4:	80 39 40 2c 	xnord  %g5, %o4, %g0
     2b8:	80 39 40 2d 	xnord  %g5, %o5, %g0
     2bc:	80 39 40 2e 	xnord  %g5, %sp, %g0
     2c0:	80 39 40 2f 	xnord  %g5, %o7, %g0
     2c4:	80 39 40 30 	xnord  %g5, %l0, %g0
     2c8:	80 39 40 31 	xnord  %g5, %l1, %g0
     2cc:	80 39 40 32 	xnord  %g5, %l2, %g0
     2d0:	80 39 40 33 	xnord  %g5, %l3, %g0
     2d4:	80 39 40 34 	xnord  %g5, %l4, %g0
     2d8:	80 39 40 35 	xnord  %g5, %l5, %g0
     2dc:	80 39 40 36 	xnord  %g5, %l6, %g0
     2e0:	80 39 40 37 	xnord  %g5, %l7, %g0
     2e4:	80 39 40 38 	xnord  %g5, %i0, %g0
     2e8:	80 39 40 39 	xnord  %g5, %i1, %g0
     2ec:	80 39 40 3a 	xnord  %g5, %i2, %g0
     2f0:	80 39 40 3b 	xnord  %g5, %i3, %g0
     2f4:	80 39 40 3c 	xnord  %g5, %i4, %g0
     2f8:	80 39 40 3d 	xnord  %g5, %i5, %g0
     2fc:	80 39 40 3e 	xnord  %g5, %fp, %g0
     300:	80 39 40 3f 	xnord  %g5, %i7, %g0
     304:	80 39 80 20 	xnord  %g6, %g0, %g0
     308:	80 39 80 21 	xnord  %g6, %g1, %g0
     30c:	80 39 80 22 	xnord  %g6, %g2, %g0
     310:	80 39 80 23 	xnord  %g6, %g3, %g0
     314:	80 39 80 24 	xnord  %g6, %g4, %g0
     318:	80 39 80 25 	xnord  %g6, %g5, %g0
     31c:	80 39 80 26 	xnord  %g6, %g6, %g0
     320:	80 39 80 27 	xnord  %g6, %g7, %g0
     324:	80 39 80 28 	xnord  %g6, %o0, %g0
     328:	80 39 80 29 	xnord  %g6, %o1, %g0
     32c:	80 39 80 2a 	xnord  %g6, %o2, %g0
     330:	80 39 80 2b 	xnord  %g6, %o3, %g0
     334:	80 39 80 2c 	xnord  %g6, %o4, %g0
     338:	80 39 80 2d 	xnord  %g6, %o5, %g0
     33c:	80 39 80 2e 	xnord  %g6, %sp, %g0
     340:	80 39 80 2f 	xnord  %g6, %o7, %g0
     344:	80 39 80 30 	xnord  %g6, %l0, %g0
     348:	80 39 80 31 	xnord  %g6, %l1, %g0
     34c:	80 39 80 32 	xnord  %g6, %l2, %g0
     350:	80 39 80 33 	xnord  %g6, %l3, %g0
     354:	80 39 80 34 	xnord  %g6, %l4, %g0
     358:	80 39 80 35 	xnord  %g6, %l5, %g0
     35c:	80 39 80 36 	xnord  %g6, %l6, %g0
     360:	80 39 80 37 	xnord  %g6, %l7, %g0
     364:	80 39 80 38 	xnord  %g6, %i0, %g0
     368:	80 39 80 39 	xnord  %g6, %i1, %g0
     36c:	80 39 80 3a 	xnord  %g6, %i2, %g0
     370:	80 39 80 3b 	xnord  %g6, %i3, %g0
     374:	80 39 80 3c 	xnord  %g6, %i4, %g0
     378:	80 39 80 3d 	xnord  %g6, %i5, %g0
     37c:	80 39 80 3e 	xnord  %g6, %fp, %g0
     380:	80 39 80 3f 	xnord  %g6, %i7, %g0
     384:	80 39 c0 20 	xnord  %g7, %g0, %g0
     388:	80 39 c0 21 	xnord  %g7, %g1, %g0
     38c:	80 39 c0 22 	xnord  %g7, %g2, %g0
     390:	80 39 c0 23 	xnord  %g7, %g3, %g0
     394:	80 39 c0 24 	xnord  %g7, %g4, %g0
     398:	80 39 c0 25 	xnord  %g7, %g5, %g0
     39c:	80 39 c0 26 	xnord  %g7, %g6, %g0
     3a0:	80 39 c0 27 	xnord  %g7, %g7, %g0
     3a4:	80 39 c0 28 	xnord  %g7, %o0, %g0
     3a8:	80 39 c0 29 	xnord  %g7, %o1, %g0
     3ac:	80 39 c0 2a 	xnord  %g7, %o2, %g0
     3b0:	80 39 c0 2b 	xnord  %g7, %o3, %g0
     3b4:	80 39 c0 2c 	xnord  %g7, %o4, %g0
     3b8:	80 39 c0 2d 	xnord  %g7, %o5, %g0
     3bc:	80 39 c0 2e 	xnord  %g7, %sp, %g0
     3c0:	80 39 c0 2f 	xnord  %g7, %o7, %g0
     3c4:	80 39 c0 30 	xnord  %g7, %l0, %g0
     3c8:	80 39 c0 31 	xnord  %g7, %l1, %g0
     3cc:	80 39 c0 32 	xnord  %g7, %l2, %g0
     3d0:	80 39 c0 33 	xnord  %g7, %l3, %g0
     3d4:	80 39 c0 34 	xnord  %g7, %l4, %g0
     3d8:	80 39 c0 35 	xnord  %g7, %l5, %g0
     3dc:	80 39 c0 36 	xnord  %g7, %l6, %g0
     3e0:	80 39 c0 37 	xnord  %g7, %l7, %g0
     3e4:	80 39 c0 38 	xnord  %g7, %i0, %g0
     3e8:	80 39 c0 39 	xnord  %g7, %i1, %g0
     3ec:	80 39 c0 3a 	xnord  %g7, %i2, %g0
     3f0:	80 39 c0 3b 	xnord  %g7, %i3, %g0
     3f4:	80 39 c0 3c 	xnord  %g7, %i4, %g0
     3f8:	80 39 c0 3d 	xnord  %g7, %i5, %g0
     3fc:	80 39 c0 3e 	xnord  %g7, %fp, %g0
     400:	80 39 c0 3f 	xnord  %g7, %i7, %g0
     404:	80 3a 00 20 	xnord  %o0, %g0, %g0
     408:	80 3a 00 21 	xnord  %o0, %g1, %g0
     40c:	80 3a 00 22 	xnord  %o0, %g2, %g0
     410:	80 3a 00 23 	xnord  %o0, %g3, %g0
     414:	80 3a 00 24 	xnord  %o0, %g4, %g0
     418:	80 3a 00 25 	xnord  %o0, %g5, %g0
     41c:	80 3a 00 26 	xnord  %o0, %g6, %g0
     420:	80 3a 00 27 	xnord  %o0, %g7, %g0
     424:	80 3a 00 28 	xnord  %o0, %o0, %g0
     428:	80 3a 00 29 	xnord  %o0, %o1, %g0
     42c:	80 3a 00 2a 	xnord  %o0, %o2, %g0
     430:	80 3a 00 2b 	xnord  %o0, %o3, %g0
     434:	80 3a 00 2c 	xnord  %o0, %o4, %g0
     438:	80 3a 00 2d 	xnord  %o0, %o5, %g0
     43c:	80 3a 00 2e 	xnord  %o0, %sp, %g0
     440:	80 3a 00 2f 	xnord  %o0, %o7, %g0
     444:	80 3a 00 30 	xnord  %o0, %l0, %g0
     448:	80 3a 00 31 	xnord  %o0, %l1, %g0
     44c:	80 3a 00 32 	xnord  %o0, %l2, %g0
     450:	80 3a 00 33 	xnord  %o0, %l3, %g0
     454:	80 3a 00 34 	xnord  %o0, %l4, %g0
     458:	80 3a 00 35 	xnord  %o0, %l5, %g0
     45c:	80 3a 00 36 	xnord  %o0, %l6, %g0
     460:	80 3a 00 37 	xnord  %o0, %l7, %g0
     464:	80 3a 00 38 	xnord  %o0, %i0, %g0
     468:	80 3a 00 39 	xnord  %o0, %i1, %g0
     46c:	80 3a 00 3a 	xnord  %o0, %i2, %g0
     470:	80 3a 00 3b 	xnord  %o0, %i3, %g0
     474:	80 3a 00 3c 	xnord  %o0, %i4, %g0
     478:	80 3a 00 3d 	xnord  %o0, %i5, %g0
     47c:	80 3a 00 3e 	xnord  %o0, %fp, %g0
     480:	80 3a 00 3f 	xnord  %o0, %i7, %g0
     484:	80 3a 40 20 	xnord  %o1, %g0, %g0
     488:	80 3a 40 21 	xnord  %o1, %g1, %g0
     48c:	80 3a 40 22 	xnord  %o1, %g2, %g0
     490:	80 3a 40 23 	xnord  %o1, %g3, %g0
     494:	80 3a 40 24 	xnord  %o1, %g4, %g0
     498:	80 3a 40 25 	xnord  %o1, %g5, %g0
     49c:	80 3a 40 26 	xnord  %o1, %g6, %g0
     4a0:	80 3a 40 27 	xnord  %o1, %g7, %g0
     4a4:	80 3a 40 28 	xnord  %o1, %o0, %g0
     4a8:	80 3a 40 29 	xnord  %o1, %o1, %g0
     4ac:	80 3a 40 2a 	xnord  %o1, %o2, %g0
     4b0:	80 3a 40 2b 	xnord  %o1, %o3, %g0
     4b4:	80 3a 40 2c 	xnord  %o1, %o4, %g0
     4b8:	80 3a 40 2d 	xnord  %o1, %o5, %g0
     4bc:	80 3a 40 2e 	xnord  %o1, %sp, %g0
     4c0:	80 3a 40 2f 	xnord  %o1, %o7, %g0
     4c4:	80 3a 40 30 	xnord  %o1, %l0, %g0
     4c8:	80 3a 40 31 	xnord  %o1, %l1, %g0
     4cc:	80 3a 40 32 	xnord  %o1, %l2, %g0
     4d0:	80 3a 40 33 	xnord  %o1, %l3, %g0
     4d4:	80 3a 40 34 	xnord  %o1, %l4, %g0
     4d8:	80 3a 40 35 	xnord  %o1, %l5, %g0
     4dc:	80 3a 40 36 	xnord  %o1, %l6, %g0
     4e0:	80 3a 40 37 	xnord  %o1, %l7, %g0
     4e4:	80 3a 40 38 	xnord  %o1, %i0, %g0
     4e8:	80 3a 40 39 	xnord  %o1, %i1, %g0
     4ec:	80 3a 40 3a 	xnord  %o1, %i2, %g0
     4f0:	80 3a 40 3b 	xnord  %o1, %i3, %g0
     4f4:	80 3a 40 3c 	xnord  %o1, %i4, %g0
     4f8:	80 3a 40 3d 	xnord  %o1, %i5, %g0
     4fc:	80 3a 40 3e 	xnord  %o1, %fp, %g0
     500:	80 3a 40 3f 	xnord  %o1, %i7, %g0
     504:	80 3a 80 20 	xnord  %o2, %g0, %g0
     508:	80 3a 80 21 	xnord  %o2, %g1, %g0
     50c:	80 3a 80 22 	xnord  %o2, %g2, %g0
     510:	80 3a 80 23 	xnord  %o2, %g3, %g0
     514:	80 3a 80 24 	xnord  %o2, %g4, %g0
     518:	80 3a 80 25 	xnord  %o2, %g5, %g0
     51c:	80 3a 80 26 	xnord  %o2, %g6, %g0
     520:	80 3a 80 27 	xnord  %o2, %g7, %g0
     524:	80 3a 80 28 	xnord  %o2, %o0, %g0
     528:	80 3a 80 29 	xnord  %o2, %o1, %g0
     52c:	80 3a 80 2a 	xnord  %o2, %o2, %g0
     530:	80 3a 80 2b 	xnord  %o2, %o3, %g0
     534:	80 3a 80 2c 	xnord  %o2, %o4, %g0
     538:	80 3a 80 2d 	xnord  %o2, %o5, %g0
     53c:	80 3a 80 2e 	xnord  %o2, %sp, %g0
     540:	80 3a 80 2f 	xnord  %o2, %o7, %g0
     544:	80 3a 80 30 	xnord  %o2, %l0, %g0
     548:	80 3a 80 31 	xnord  %o2, %l1, %g0
     54c:	80 3a 80 32 	xnord  %o2, %l2, %g0
     550:	80 3a 80 33 	xnord  %o2, %l3, %g0
     554:	80 3a 80 34 	xnord  %o2, %l4, %g0
     558:	80 3a 80 35 	xnord  %o2, %l5, %g0
     55c:	80 3a 80 36 	xnord  %o2, %l6, %g0
     560:	80 3a 80 37 	xnord  %o2, %l7, %g0
     564:	80 3a 80 38 	xnord  %o2, %i0, %g0
     568:	80 3a 80 39 	xnord  %o2, %i1, %g0
     56c:	80 3a 80 3a 	xnord  %o2, %i2, %g0
     570:	80 3a 80 3b 	xnord  %o2, %i3, %g0
     574:	80 3a 80 3c 	xnord  %o2, %i4, %g0
     578:	80 3a 80 3d 	xnord  %o2, %i5, %g0
     57c:	80 3a 80 3e 	xnord  %o2, %fp, %g0
     580:	80 3a 80 3f 	xnord  %o2, %i7, %g0
     584:	80 3a c0 20 	xnord  %o3, %g0, %g0
     588:	80 3a c0 21 	xnord  %o3, %g1, %g0
     58c:	80 3a c0 22 	xnord  %o3, %g2, %g0
     590:	80 3a c0 23 	xnord  %o3, %g3, %g0
     594:	80 3a c0 24 	xnord  %o3, %g4, %g0
     598:	80 3a c0 25 	xnord  %o3, %g5, %g0
     59c:	80 3a c0 26 	xnord  %o3, %g6, %g0
     5a0:	80 3a c0 27 	xnord  %o3, %g7, %g0
     5a4:	80 3a c0 28 	xnord  %o3, %o0, %g0
     5a8:	80 3a c0 29 	xnord  %o3, %o1, %g0
     5ac:	80 3a c0 2a 	xnord  %o3, %o2, %g0
     5b0:	80 3a c0 2b 	xnord  %o3, %o3, %g0
     5b4:	80 3a c0 2c 	xnord  %o3, %o4, %g0
     5b8:	80 3a c0 2d 	xnord  %o3, %o5, %g0
     5bc:	80 3a c0 2e 	xnord  %o3, %sp, %g0
     5c0:	80 3a c0 2f 	xnord  %o3, %o7, %g0
     5c4:	80 3a c0 30 	xnord  %o3, %l0, %g0
     5c8:	80 3a c0 31 	xnord  %o3, %l1, %g0
     5cc:	80 3a c0 32 	xnord  %o3, %l2, %g0
     5d0:	80 3a c0 33 	xnord  %o3, %l3, %g0
     5d4:	80 3a c0 34 	xnord  %o3, %l4, %g0
     5d8:	80 3a c0 35 	xnord  %o3, %l5, %g0
     5dc:	80 3a c0 36 	xnord  %o3, %l6, %g0
     5e0:	80 3a c0 37 	xnord  %o3, %l7, %g0
     5e4:	80 3a c0 38 	xnord  %o3, %i0, %g0
     5e8:	80 3a c0 39 	xnord  %o3, %i1, %g0
     5ec:	80 3a c0 3a 	xnord  %o3, %i2, %g0
     5f0:	80 3a c0 3b 	xnord  %o3, %i3, %g0
     5f4:	80 3a c0 3c 	xnord  %o3, %i4, %g0
     5f8:	80 3a c0 3d 	xnord  %o3, %i5, %g0
     5fc:	80 3a c0 3e 	xnord  %o3, %fp, %g0
     600:	80 3a c0 3f 	xnord  %o3, %i7, %g0
     604:	80 3b 00 20 	xnord  %o4, %g0, %g0
     608:	80 3b 00 21 	xnord  %o4, %g1, %g0
     60c:	80 3b 00 22 	xnord  %o4, %g2, %g0
     610:	80 3b 00 23 	xnord  %o4, %g3, %g0
     614:	80 3b 00 24 	xnord  %o4, %g4, %g0
     618:	80 3b 00 25 	xnord  %o4, %g5, %g0
     61c:	80 3b 00 26 	xnord  %o4, %g6, %g0
     620:	80 3b 00 27 	xnord  %o4, %g7, %g0
     624:	80 3b 00 28 	xnord  %o4, %o0, %g0
     628:	80 3b 00 29 	xnord  %o4, %o1, %g0
     62c:	80 3b 00 2a 	xnord  %o4, %o2, %g0
     630:	80 3b 00 2b 	xnord  %o4, %o3, %g0
     634:	80 3b 00 2c 	xnord  %o4, %o4, %g0
     638:	80 3b 00 2d 	xnord  %o4, %o5, %g0
     63c:	80 3b 00 2e 	xnord  %o4, %sp, %g0
     640:	80 3b 00 2f 	xnord  %o4, %o7, %g0
     644:	80 3b 00 30 	xnord  %o4, %l0, %g0
     648:	80 3b 00 31 	xnord  %o4, %l1, %g0
     64c:	80 3b 00 32 	xnord  %o4, %l2, %g0
     650:	80 3b 00 33 	xnord  %o4, %l3, %g0
     654:	80 3b 00 34 	xnord  %o4, %l4, %g0
     658:	80 3b 00 35 	xnord  %o4, %l5, %g0
     65c:	80 3b 00 36 	xnord  %o4, %l6, %g0
     660:	80 3b 00 37 	xnord  %o4, %l7, %g0
     664:	80 3b 00 38 	xnord  %o4, %i0, %g0
     668:	80 3b 00 39 	xnord  %o4, %i1, %g0
     66c:	80 3b 00 3a 	xnord  %o4, %i2, %g0
     670:	80 3b 00 3b 	xnord  %o4, %i3, %g0
     674:	80 3b 00 3c 	xnord  %o4, %i4, %g0
     678:	80 3b 00 3d 	xnord  %o4, %i5, %g0
     67c:	80 3b 00 3e 	xnord  %o4, %fp, %g0
     680:	80 3b 00 3f 	xnord  %o4, %i7, %g0
     684:	80 3b 40 20 	xnord  %o5, %g0, %g0
     688:	80 3b 40 21 	xnord  %o5, %g1, %g0
     68c:	80 3b 40 22 	xnord  %o5, %g2, %g0
     690:	80 3b 40 23 	xnord  %o5, %g3, %g0
     694:	80 3b 40 24 	xnord  %o5, %g4, %g0
     698:	80 3b 40 25 	xnord  %o5, %g5, %g0
     69c:	80 3b 40 26 	xnord  %o5, %g6, %g0
     6a0:	80 3b 40 27 	xnord  %o5, %g7, %g0
     6a4:	80 3b 40 28 	xnord  %o5, %o0, %g0
     6a8:	80 3b 40 29 	xnord  %o5, %o1, %g0
     6ac:	80 3b 40 2a 	xnord  %o5, %o2, %g0
     6b0:	80 3b 40 2b 	xnord  %o5, %o3, %g0
     6b4:	80 3b 40 2c 	xnord  %o5, %o4, %g0
     6b8:	80 3b 40 2d 	xnord  %o5, %o5, %g0
     6bc:	80 3b 40 2e 	xnord  %o5, %sp, %g0
     6c0:	80 3b 40 2f 	xnord  %o5, %o7, %g0
     6c4:	80 3b 40 30 	xnord  %o5, %l0, %g0
     6c8:	80 3b 40 31 	xnord  %o5, %l1, %g0
     6cc:	80 3b 40 32 	xnord  %o5, %l2, %g0
     6d0:	80 3b 40 33 	xnord  %o5, %l3, %g0
     6d4:	80 3b 40 34 	xnord  %o5, %l4, %g0
     6d8:	80 3b 40 35 	xnord  %o5, %l5, %g0
     6dc:	80 3b 40 36 	xnord  %o5, %l6, %g0
     6e0:	80 3b 40 37 	xnord  %o5, %l7, %g0
     6e4:	80 3b 40 38 	xnord  %o5, %i0, %g0
     6e8:	80 3b 40 39 	xnord  %o5, %i1, %g0
     6ec:	80 3b 40 3a 	xnord  %o5, %i2, %g0
     6f0:	80 3b 40 3b 	xnord  %o5, %i3, %g0
     6f4:	80 3b 40 3c 	xnord  %o5, %i4, %g0
     6f8:	80 3b 40 3d 	xnord  %o5, %i5, %g0
     6fc:	80 3b 40 3e 	xnord  %o5, %fp, %g0
     700:	80 3b 40 3f 	xnord  %o5, %i7, %g0
     704:	80 3b 80 20 	xnord  %sp, %g0, %g0
     708:	80 3b 80 21 	xnord  %sp, %g1, %g0
     70c:	80 3b 80 22 	xnord  %sp, %g2, %g0
     710:	80 3b 80 23 	xnord  %sp, %g3, %g0
     714:	80 3b 80 24 	xnord  %sp, %g4, %g0
     718:	80 3b 80 25 	xnord  %sp, %g5, %g0
     71c:	80 3b 80 26 	xnord  %sp, %g6, %g0
     720:	80 3b 80 27 	xnord  %sp, %g7, %g0
     724:	80 3b 80 28 	xnord  %sp, %o0, %g0
     728:	80 3b 80 29 	xnord  %sp, %o1, %g0
     72c:	80 3b 80 2a 	xnord  %sp, %o2, %g0
     730:	80 3b 80 2b 	xnord  %sp, %o3, %g0
     734:	80 3b 80 2c 	xnord  %sp, %o4, %g0
     738:	80 3b 80 2d 	xnord  %sp, %o5, %g0
     73c:	80 3b 80 2e 	xnord  %sp, %sp, %g0
     740:	80 3b 80 2f 	xnord  %sp, %o7, %g0
     744:	80 3b 80 30 	xnord  %sp, %l0, %g0
     748:	80 3b 80 31 	xnord  %sp, %l1, %g0
     74c:	80 3b 80 32 	xnord  %sp, %l2, %g0
     750:	80 3b 80 33 	xnord  %sp, %l3, %g0
     754:	80 3b 80 34 	xnord  %sp, %l4, %g0
     758:	80 3b 80 35 	xnord  %sp, %l5, %g0
     75c:	80 3b 80 36 	xnord  %sp, %l6, %g0
     760:	80 3b 80 37 	xnord  %sp, %l7, %g0
     764:	80 3b 80 38 	xnord  %sp, %i0, %g0
     768:	80 3b 80 39 	xnord  %sp, %i1, %g0
     76c:	80 3b 80 3a 	xnord  %sp, %i2, %g0
     770:	80 3b 80 3b 	xnord  %sp, %i3, %g0
     774:	80 3b 80 3c 	xnord  %sp, %i4, %g0
     778:	80 3b 80 3d 	xnord  %sp, %i5, %g0
     77c:	80 3b 80 3e 	xnord  %sp, %fp, %g0
     780:	80 3b 80 3f 	xnord  %sp, %i7, %g0
     784:	80 3b c0 20 	xnord  %o7, %g0, %g0
     788:	80 3b c0 21 	xnord  %o7, %g1, %g0
     78c:	80 3b c0 22 	xnord  %o7, %g2, %g0
     790:	80 3b c0 23 	xnord  %o7, %g3, %g0
     794:	80 3b c0 24 	xnord  %o7, %g4, %g0
     798:	80 3b c0 25 	xnord  %o7, %g5, %g0
     79c:	80 3b c0 26 	xnord  %o7, %g6, %g0
     7a0:	80 3b c0 27 	xnord  %o7, %g7, %g0
     7a4:	80 3b c0 28 	xnord  %o7, %o0, %g0
     7a8:	80 3b c0 29 	xnord  %o7, %o1, %g0
     7ac:	80 3b c0 2a 	xnord  %o7, %o2, %g0
     7b0:	80 3b c0 2b 	xnord  %o7, %o3, %g0
     7b4:	80 3b c0 2c 	xnord  %o7, %o4, %g0
     7b8:	80 3b c0 2d 	xnord  %o7, %o5, %g0
     7bc:	80 3b c0 2e 	xnord  %o7, %sp, %g0
     7c0:	80 3b c0 2f 	xnord  %o7, %o7, %g0
     7c4:	80 3b c0 30 	xnord  %o7, %l0, %g0
     7c8:	80 3b c0 31 	xnord  %o7, %l1, %g0
     7cc:	80 3b c0 32 	xnord  %o7, %l2, %g0
     7d0:	80 3b c0 33 	xnord  %o7, %l3, %g0
     7d4:	80 3b c0 34 	xnord  %o7, %l4, %g0
     7d8:	80 3b c0 35 	xnord  %o7, %l5, %g0
     7dc:	80 3b c0 36 	xnord  %o7, %l6, %g0
     7e0:	80 3b c0 37 	xnord  %o7, %l7, %g0
     7e4:	80 3b c0 38 	xnord  %o7, %i0, %g0
     7e8:	80 3b c0 39 	xnord  %o7, %i1, %g0
     7ec:	80 3b c0 3a 	xnord  %o7, %i2, %g0
     7f0:	80 3b c0 3b 	xnord  %o7, %i3, %g0
     7f4:	80 3b c0 3c 	xnord  %o7, %i4, %g0
     7f8:	80 3b c0 3d 	xnord  %o7, %i5, %g0
     7fc:	80 3b c0 3e 	xnord  %o7, %fp, %g0
     800:	80 3b c0 3f 	xnord  %o7, %i7, %g0
     804:	80 3c 00 20 	xnord  %l0, %g0, %g0
     808:	80 3c 00 21 	xnord  %l0, %g1, %g0
     80c:	80 3c 00 22 	xnord  %l0, %g2, %g0
     810:	80 3c 00 23 	xnord  %l0, %g3, %g0
     814:	80 3c 00 24 	xnord  %l0, %g4, %g0
     818:	80 3c 00 25 	xnord  %l0, %g5, %g0
     81c:	80 3c 00 26 	xnord  %l0, %g6, %g0
     820:	80 3c 00 27 	xnord  %l0, %g7, %g0
     824:	80 3c 00 28 	xnord  %l0, %o0, %g0
     828:	80 3c 00 29 	xnord  %l0, %o1, %g0
     82c:	80 3c 00 2a 	xnord  %l0, %o2, %g0
     830:	80 3c 00 2b 	xnord  %l0, %o3, %g0
     834:	80 3c 00 2c 	xnord  %l0, %o4, %g0
     838:	80 3c 00 2d 	xnord  %l0, %o5, %g0
     83c:	80 3c 00 2e 	xnord  %l0, %sp, %g0
     840:	80 3c 00 2f 	xnord  %l0, %o7, %g0
     844:	80 3c 00 30 	xnord  %l0, %l0, %g0
     848:	80 3c 00 31 	xnord  %l0, %l1, %g0
     84c:	80 3c 00 32 	xnord  %l0, %l2, %g0
     850:	80 3c 00 33 	xnord  %l0, %l3, %g0
     854:	80 3c 00 34 	xnord  %l0, %l4, %g0
     858:	80 3c 00 35 	xnord  %l0, %l5, %g0
     85c:	80 3c 00 36 	xnord  %l0, %l6, %g0
     860:	80 3c 00 37 	xnord  %l0, %l7, %g0
     864:	80 3c 00 38 	xnord  %l0, %i0, %g0
     868:	80 3c 00 39 	xnord  %l0, %i1, %g0
     86c:	80 3c 00 3a 	xnord  %l0, %i2, %g0
     870:	80 3c 00 3b 	xnord  %l0, %i3, %g0
     874:	80 3c 00 3c 	xnord  %l0, %i4, %g0
     878:	80 3c 00 3d 	xnord  %l0, %i5, %g0
     87c:	80 3c 00 3e 	xnord  %l0, %fp, %g0
     880:	80 3c 00 3f 	xnord  %l0, %i7, %g0
     884:	80 3c 40 20 	xnord  %l1, %g0, %g0
     888:	80 3c 40 21 	xnord  %l1, %g1, %g0
     88c:	80 3c 40 22 	xnord  %l1, %g2, %g0
     890:	80 3c 40 23 	xnord  %l1, %g3, %g0
     894:	80 3c 40 24 	xnord  %l1, %g4, %g0
     898:	80 3c 40 25 	xnord  %l1, %g5, %g0
     89c:	80 3c 40 26 	xnord  %l1, %g6, %g0
     8a0:	80 3c 40 27 	xnord  %l1, %g7, %g0
     8a4:	80 3c 40 28 	xnord  %l1, %o0, %g0
     8a8:	80 3c 40 29 	xnord  %l1, %o1, %g0
     8ac:	80 3c 40 2a 	xnord  %l1, %o2, %g0
     8b0:	80 3c 40 2b 	xnord  %l1, %o3, %g0
     8b4:	80 3c 40 2c 	xnord  %l1, %o4, %g0
     8b8:	80 3c 40 2d 	xnord  %l1, %o5, %g0
     8bc:	80 3c 40 2e 	xnord  %l1, %sp, %g0
     8c0:	80 3c 40 2f 	xnord  %l1, %o7, %g0
     8c4:	80 3c 40 30 	xnord  %l1, %l0, %g0
     8c8:	80 3c 40 31 	xnord  %l1, %l1, %g0
     8cc:	80 3c 40 32 	xnord  %l1, %l2, %g0
     8d0:	80 3c 40 33 	xnord  %l1, %l3, %g0
     8d4:	80 3c 40 34 	xnord  %l1, %l4, %g0
     8d8:	80 3c 40 35 	xnord  %l1, %l5, %g0
     8dc:	80 3c 40 36 	xnord  %l1, %l6, %g0
     8e0:	80 3c 40 37 	xnord  %l1, %l7, %g0
     8e4:	80 3c 40 38 	xnord  %l1, %i0, %g0
     8e8:	80 3c 40 39 	xnord  %l1, %i1, %g0
     8ec:	80 3c 40 3a 	xnord  %l1, %i2, %g0
     8f0:	80 3c 40 3b 	xnord  %l1, %i3, %g0
     8f4:	80 3c 40 3c 	xnord  %l1, %i4, %g0
     8f8:	80 3c 40 3d 	xnord  %l1, %i5, %g0
     8fc:	80 3c 40 3e 	xnord  %l1, %fp, %g0
     900:	80 3c 40 3f 	xnord  %l1, %i7, %g0
     904:	80 3c 80 20 	xnord  %l2, %g0, %g0
     908:	80 3c 80 21 	xnord  %l2, %g1, %g0
     90c:	80 3c 80 22 	xnord  %l2, %g2, %g0
     910:	80 3c 80 23 	xnord  %l2, %g3, %g0
     914:	80 3c 80 24 	xnord  %l2, %g4, %g0
     918:	80 3c 80 25 	xnord  %l2, %g5, %g0
     91c:	80 3c 80 26 	xnord  %l2, %g6, %g0
     920:	80 3c 80 27 	xnord  %l2, %g7, %g0
     924:	80 3c 80 28 	xnord  %l2, %o0, %g0
     928:	80 3c 80 29 	xnord  %l2, %o1, %g0
     92c:	80 3c 80 2a 	xnord  %l2, %o2, %g0
     930:	80 3c 80 2b 	xnord  %l2, %o3, %g0
     934:	80 3c 80 2c 	xnord  %l2, %o4, %g0
     938:	80 3c 80 2d 	xnord  %l2, %o5, %g0
     93c:	80 3c 80 2e 	xnord  %l2, %sp, %g0
     940:	80 3c 80 2f 	xnord  %l2, %o7, %g0
     944:	80 3c 80 30 	xnord  %l2, %l0, %g0
     948:	80 3c 80 31 	xnord  %l2, %l1, %g0
     94c:	80 3c 80 32 	xnord  %l2, %l2, %g0
     950:	80 3c 80 33 	xnord  %l2, %l3, %g0
     954:	80 3c 80 34 	xnord  %l2, %l4, %g0
     958:	80 3c 80 35 	xnord  %l2, %l5, %g0
     95c:	80 3c 80 36 	xnord  %l2, %l6, %g0
     960:	80 3c 80 37 	xnord  %l2, %l7, %g0
     964:	80 3c 80 38 	xnord  %l2, %i0, %g0
     968:	80 3c 80 39 	xnord  %l2, %i1, %g0
     96c:	80 3c 80 3a 	xnord  %l2, %i2, %g0
     970:	80 3c 80 3b 	xnord  %l2, %i3, %g0
     974:	80 3c 80 3c 	xnord  %l2, %i4, %g0
     978:	80 3c 80 3d 	xnord  %l2, %i5, %g0
     97c:	80 3c 80 3e 	xnord  %l2, %fp, %g0
     980:	80 3c 80 3f 	xnord  %l2, %i7, %g0
     984:	80 3c c0 20 	xnord  %l3, %g0, %g0
     988:	80 3c c0 21 	xnord  %l3, %g1, %g0
     98c:	80 3c c0 22 	xnord  %l3, %g2, %g0
     990:	80 3c c0 23 	xnord  %l3, %g3, %g0
     994:	80 3c c0 24 	xnord  %l3, %g4, %g0
     998:	80 3c c0 25 	xnord  %l3, %g5, %g0
     99c:	80 3c c0 26 	xnord  %l3, %g6, %g0
     9a0:	80 3c c0 27 	xnord  %l3, %g7, %g0
     9a4:	80 3c c0 28 	xnord  %l3, %o0, %g0
     9a8:	80 3c c0 29 	xnord  %l3, %o1, %g0
     9ac:	80 3c c0 2a 	xnord  %l3, %o2, %g0
     9b0:	80 3c c0 2b 	xnord  %l3, %o3, %g0
     9b4:	80 3c c0 2c 	xnord  %l3, %o4, %g0
     9b8:	80 3c c0 2d 	xnord  %l3, %o5, %g0
     9bc:	80 3c c0 2e 	xnord  %l3, %sp, %g0
     9c0:	80 3c c0 2f 	xnord  %l3, %o7, %g0
     9c4:	80 3c c0 30 	xnord  %l3, %l0, %g0
     9c8:	80 3c c0 31 	xnord  %l3, %l1, %g0
     9cc:	80 3c c0 32 	xnord  %l3, %l2, %g0
     9d0:	80 3c c0 33 	xnord  %l3, %l3, %g0
     9d4:	80 3c c0 34 	xnord  %l3, %l4, %g0
     9d8:	80 3c c0 35 	xnord  %l3, %l5, %g0
     9dc:	80 3c c0 36 	xnord  %l3, %l6, %g0
     9e0:	80 3c c0 37 	xnord  %l3, %l7, %g0
     9e4:	80 3c c0 38 	xnord  %l3, %i0, %g0
     9e8:	80 3c c0 39 	xnord  %l3, %i1, %g0
     9ec:	80 3c c0 3a 	xnord  %l3, %i2, %g0
     9f0:	80 3c c0 3b 	xnord  %l3, %i3, %g0
     9f4:	80 3c c0 3c 	xnord  %l3, %i4, %g0
     9f8:	80 3c c0 3d 	xnord  %l3, %i5, %g0
     9fc:	80 3c c0 3e 	xnord  %l3, %fp, %g0
     a00:	80 3c c0 3f 	xnord  %l3, %i7, %g0
     a04:	80 3d 00 20 	xnord  %l4, %g0, %g0
     a08:	80 3d 00 21 	xnord  %l4, %g1, %g0
     a0c:	80 3d 00 22 	xnord  %l4, %g2, %g0
     a10:	80 3d 00 23 	xnord  %l4, %g3, %g0
     a14:	80 3d 00 24 	xnord  %l4, %g4, %g0
     a18:	80 3d 00 25 	xnord  %l4, %g5, %g0
     a1c:	80 3d 00 26 	xnord  %l4, %g6, %g0
     a20:	80 3d 00 27 	xnord  %l4, %g7, %g0
     a24:	80 3d 00 28 	xnord  %l4, %o0, %g0
     a28:	80 3d 00 29 	xnord  %l4, %o1, %g0
     a2c:	80 3d 00 2a 	xnord  %l4, %o2, %g0
     a30:	80 3d 00 2b 	xnord  %l4, %o3, %g0
     a34:	80 3d 00 2c 	xnord  %l4, %o4, %g0
     a38:	80 3d 00 2d 	xnord  %l4, %o5, %g0
     a3c:	80 3d 00 2e 	xnord  %l4, %sp, %g0
     a40:	80 3d 00 2f 	xnord  %l4, %o7, %g0
     a44:	80 3d 00 30 	xnord  %l4, %l0, %g0
     a48:	80 3d 00 31 	xnord  %l4, %l1, %g0
     a4c:	80 3d 00 32 	xnord  %l4, %l2, %g0
     a50:	80 3d 00 33 	xnord  %l4, %l3, %g0
     a54:	80 3d 00 34 	xnord  %l4, %l4, %g0
     a58:	80 3d 00 35 	xnord  %l4, %l5, %g0
     a5c:	80 3d 00 36 	xnord  %l4, %l6, %g0
     a60:	80 3d 00 37 	xnord  %l4, %l7, %g0
     a64:	80 3d 00 38 	xnord  %l4, %i0, %g0
     a68:	80 3d 00 39 	xnord  %l4, %i1, %g0
     a6c:	80 3d 00 3a 	xnord  %l4, %i2, %g0
     a70:	80 3d 00 3b 	xnord  %l4, %i3, %g0
     a74:	80 3d 00 3c 	xnord  %l4, %i4, %g0
     a78:	80 3d 00 3d 	xnord  %l4, %i5, %g0
     a7c:	80 3d 00 3e 	xnord  %l4, %fp, %g0
     a80:	80 3d 00 3f 	xnord  %l4, %i7, %g0
     a84:	80 3d 40 20 	xnord  %l5, %g0, %g0
     a88:	80 3d 40 21 	xnord  %l5, %g1, %g0
     a8c:	80 3d 40 22 	xnord  %l5, %g2, %g0
     a90:	80 3d 40 23 	xnord  %l5, %g3, %g0
     a94:	80 3d 40 24 	xnord  %l5, %g4, %g0
     a98:	80 3d 40 25 	xnord  %l5, %g5, %g0
     a9c:	80 3d 40 26 	xnord  %l5, %g6, %g0
     aa0:	80 3d 40 27 	xnord  %l5, %g7, %g0
     aa4:	80 3d 40 28 	xnord  %l5, %o0, %g0
     aa8:	80 3d 40 29 	xnord  %l5, %o1, %g0
     aac:	80 3d 40 2a 	xnord  %l5, %o2, %g0
     ab0:	80 3d 40 2b 	xnord  %l5, %o3, %g0
     ab4:	80 3d 40 2c 	xnord  %l5, %o4, %g0
     ab8:	80 3d 40 2d 	xnord  %l5, %o5, %g0
     abc:	80 3d 40 2e 	xnord  %l5, %sp, %g0
     ac0:	80 3d 40 2f 	xnord  %l5, %o7, %g0
     ac4:	80 3d 40 30 	xnord  %l5, %l0, %g0
     ac8:	80 3d 40 31 	xnord  %l5, %l1, %g0
     acc:	80 3d 40 32 	xnord  %l5, %l2, %g0
     ad0:	80 3d 40 33 	xnord  %l5, %l3, %g0
     ad4:	80 3d 40 34 	xnord  %l5, %l4, %g0
     ad8:	80 3d 40 35 	xnord  %l5, %l5, %g0
     adc:	80 3d 40 36 	xnord  %l5, %l6, %g0
     ae0:	80 3d 40 37 	xnord  %l5, %l7, %g0
     ae4:	80 3d 40 38 	xnord  %l5, %i0, %g0
     ae8:	80 3d 40 39 	xnord  %l5, %i1, %g0
     aec:	80 3d 40 3a 	xnord  %l5, %i2, %g0
     af0:	80 3d 40 3b 	xnord  %l5, %i3, %g0
     af4:	80 3d 40 3c 	xnord  %l5, %i4, %g0
     af8:	80 3d 40 3d 	xnord  %l5, %i5, %g0
     afc:	80 3d 40 3e 	xnord  %l5, %fp, %g0
     b00:	80 3d 40 3f 	xnord  %l5, %i7, %g0
     b04:	80 3d 80 20 	xnord  %l6, %g0, %g0
     b08:	80 3d 80 21 	xnord  %l6, %g1, %g0
     b0c:	80 3d 80 22 	xnord  %l6, %g2, %g0
     b10:	80 3d 80 23 	xnord  %l6, %g3, %g0
     b14:	80 3d 80 24 	xnord  %l6, %g4, %g0
     b18:	80 3d 80 25 	xnord  %l6, %g5, %g0
     b1c:	80 3d 80 26 	xnord  %l6, %g6, %g0
     b20:	80 3d 80 27 	xnord  %l6, %g7, %g0
     b24:	80 3d 80 28 	xnord  %l6, %o0, %g0
     b28:	80 3d 80 29 	xnord  %l6, %o1, %g0
     b2c:	80 3d 80 2a 	xnord  %l6, %o2, %g0
     b30:	80 3d 80 2b 	xnord  %l6, %o3, %g0
     b34:	80 3d 80 2c 	xnord  %l6, %o4, %g0
     b38:	80 3d 80 2d 	xnord  %l6, %o5, %g0
     b3c:	80 3d 80 2e 	xnord  %l6, %sp, %g0
     b40:	80 3d 80 2f 	xnord  %l6, %o7, %g0
     b44:	80 3d 80 30 	xnord  %l6, %l0, %g0
     b48:	80 3d 80 31 	xnord  %l6, %l1, %g0
     b4c:	80 3d 80 32 	xnord  %l6, %l2, %g0
     b50:	80 3d 80 33 	xnord  %l6, %l3, %g0
     b54:	80 3d 80 34 	xnord  %l6, %l4, %g0
     b58:	80 3d 80 35 	xnord  %l6, %l5, %g0
     b5c:	80 3d 80 36 	xnord  %l6, %l6, %g0
     b60:	80 3d 80 37 	xnord  %l6, %l7, %g0
     b64:	80 3d 80 38 	xnord  %l6, %i0, %g0
     b68:	80 3d 80 39 	xnord  %l6, %i1, %g0
     b6c:	80 3d 80 3a 	xnord  %l6, %i2, %g0
     b70:	80 3d 80 3b 	xnord  %l6, %i3, %g0
     b74:	80 3d 80 3c 	xnord  %l6, %i4, %g0
     b78:	80 3d 80 3d 	xnord  %l6, %i5, %g0
     b7c:	80 3d 80 3e 	xnord  %l6, %fp, %g0
     b80:	80 3d 80 3f 	xnord  %l6, %i7, %g0
     b84:	80 3d c0 20 	xnord  %l7, %g0, %g0
     b88:	80 3d c0 21 	xnord  %l7, %g1, %g0
     b8c:	80 3d c0 22 	xnord  %l7, %g2, %g0
     b90:	80 3d c0 23 	xnord  %l7, %g3, %g0
     b94:	80 3d c0 24 	xnord  %l7, %g4, %g0
     b98:	80 3d c0 25 	xnord  %l7, %g5, %g0
     b9c:	80 3d c0 26 	xnord  %l7, %g6, %g0
     ba0:	80 3d c0 27 	xnord  %l7, %g7, %g0
     ba4:	80 3d c0 28 	xnord  %l7, %o0, %g0
     ba8:	80 3d c0 29 	xnord  %l7, %o1, %g0
     bac:	80 3d c0 2a 	xnord  %l7, %o2, %g0
     bb0:	80 3d c0 2b 	xnord  %l7, %o3, %g0
     bb4:	80 3d c0 2c 	xnord  %l7, %o4, %g0
     bb8:	80 3d c0 2d 	xnord  %l7, %o5, %g0
     bbc:	80 3d c0 2e 	xnord  %l7, %sp, %g0
     bc0:	80 3d c0 2f 	xnord  %l7, %o7, %g0
     bc4:	80 3d c0 30 	xnord  %l7, %l0, %g0
     bc8:	80 3d c0 31 	xnord  %l7, %l1, %g0
     bcc:	80 3d c0 32 	xnord  %l7, %l2, %g0
     bd0:	80 3d c0 33 	xnord  %l7, %l3, %g0
     bd4:	80 3d c0 34 	xnord  %l7, %l4, %g0
     bd8:	80 3d c0 35 	xnord  %l7, %l5, %g0
     bdc:	80 3d c0 36 	xnord  %l7, %l6, %g0
     be0:	80 3d c0 37 	xnord  %l7, %l7, %g0
     be4:	80 3d c0 38 	xnord  %l7, %i0, %g0
     be8:	80 3d c0 39 	xnord  %l7, %i1, %g0
     bec:	80 3d c0 3a 	xnord  %l7, %i2, %g0
     bf0:	80 3d c0 3b 	xnord  %l7, %i3, %g0
     bf4:	80 3d c0 3c 	xnord  %l7, %i4, %g0
     bf8:	80 3d c0 3d 	xnord  %l7, %i5, %g0
     bfc:	80 3d c0 3e 	xnord  %l7, %fp, %g0
     c00:	80 3d c0 3f 	xnord  %l7, %i7, %g0
     c04:	80 3e 00 20 	xnord  %i0, %g0, %g0
     c08:	80 3e 00 21 	xnord  %i0, %g1, %g0
     c0c:	80 3e 00 22 	xnord  %i0, %g2, %g0
     c10:	80 3e 00 23 	xnord  %i0, %g3, %g0
     c14:	80 3e 00 24 	xnord  %i0, %g4, %g0
     c18:	80 3e 00 25 	xnord  %i0, %g5, %g0
     c1c:	80 3e 00 26 	xnord  %i0, %g6, %g0
     c20:	80 3e 00 27 	xnord  %i0, %g7, %g0
     c24:	80 3e 00 28 	xnord  %i0, %o0, %g0
     c28:	80 3e 00 29 	xnord  %i0, %o1, %g0
     c2c:	80 3e 00 2a 	xnord  %i0, %o2, %g0
     c30:	80 3e 00 2b 	xnord  %i0, %o3, %g0
     c34:	80 3e 00 2c 	xnord  %i0, %o4, %g0
     c38:	80 3e 00 2d 	xnord  %i0, %o5, %g0
     c3c:	80 3e 00 2e 	xnord  %i0, %sp, %g0
     c40:	80 3e 00 2f 	xnord  %i0, %o7, %g0
     c44:	80 3e 00 30 	xnord  %i0, %l0, %g0
     c48:	80 3e 00 31 	xnord  %i0, %l1, %g0
     c4c:	80 3e 00 32 	xnord  %i0, %l2, %g0
     c50:	80 3e 00 33 	xnord  %i0, %l3, %g0
     c54:	80 3e 00 34 	xnord  %i0, %l4, %g0
     c58:	80 3e 00 35 	xnord  %i0, %l5, %g0
     c5c:	80 3e 00 36 	xnord  %i0, %l6, %g0
     c60:	80 3e 00 37 	xnord  %i0, %l7, %g0
     c64:	80 3e 00 38 	xnord  %i0, %i0, %g0
     c68:	80 3e 00 39 	xnord  %i0, %i1, %g0
     c6c:	80 3e 00 3a 	xnord  %i0, %i2, %g0
     c70:	80 3e 00 3b 	xnord  %i0, %i3, %g0
     c74:	80 3e 00 3c 	xnord  %i0, %i4, %g0
     c78:	80 3e 00 3d 	xnord  %i0, %i5, %g0
     c7c:	80 3e 00 3e 	xnord  %i0, %fp, %g0
     c80:	80 3e 00 3f 	xnord  %i0, %i7, %g0
     c84:	80 3e 40 20 	xnord  %i1, %g0, %g0
     c88:	80 3e 40 21 	xnord  %i1, %g1, %g0
     c8c:	80 3e 40 22 	xnord  %i1, %g2, %g0
     c90:	80 3e 40 23 	xnord  %i1, %g3, %g0
     c94:	80 3e 40 24 	xnord  %i1, %g4, %g0
     c98:	80 3e 40 25 	xnord  %i1, %g5, %g0
     c9c:	80 3e 40 26 	xnord  %i1, %g6, %g0
     ca0:	80 3e 40 27 	xnord  %i1, %g7, %g0
     ca4:	80 3e 40 28 	xnord  %i1, %o0, %g0
     ca8:	80 3e 40 29 	xnord  %i1, %o1, %g0
     cac:	80 3e 40 2a 	xnord  %i1, %o2, %g0
     cb0:	80 3e 40 2b 	xnord  %i1, %o3, %g0
     cb4:	80 3e 40 2c 	xnord  %i1, %o4, %g0
     cb8:	80 3e 40 2d 	xnord  %i1, %o5, %g0
     cbc:	80 3e 40 2e 	xnord  %i1, %sp, %g0
     cc0:	80 3e 40 2f 	xnord  %i1, %o7, %g0
     cc4:	80 3e 40 30 	xnord  %i1, %l0, %g0
     cc8:	80 3e 40 31 	xnord  %i1, %l1, %g0
     ccc:	80 3e 40 32 	xnord  %i1, %l2, %g0
     cd0:	80 3e 40 33 	xnord  %i1, %l3, %g0
     cd4:	80 3e 40 34 	xnord  %i1, %l4, %g0
     cd8:	80 3e 40 35 	xnord  %i1, %l5, %g0
     cdc:	80 3e 40 36 	xnord  %i1, %l6, %g0
     ce0:	80 3e 40 37 	xnord  %i1, %l7, %g0
     ce4:	80 3e 40 38 	xnord  %i1, %i0, %g0
     ce8:	80 3e 40 39 	xnord  %i1, %i1, %g0
     cec:	80 3e 40 3a 	xnord  %i1, %i2, %g0
     cf0:	80 3e 40 3b 	xnord  %i1, %i3, %g0
     cf4:	80 3e 40 3c 	xnord  %i1, %i4, %g0
     cf8:	80 3e 40 3d 	xnord  %i1, %i5, %g0
     cfc:	80 3e 40 3e 	xnord  %i1, %fp, %g0
     d00:	80 3e 40 3f 	xnord  %i1, %i7, %g0
     d04:	80 3e 80 20 	xnord  %i2, %g0, %g0
     d08:	80 3e 80 21 	xnord  %i2, %g1, %g0
     d0c:	80 3e 80 22 	xnord  %i2, %g2, %g0
     d10:	80 3e 80 23 	xnord  %i2, %g3, %g0
     d14:	80 3e 80 24 	xnord  %i2, %g4, %g0
     d18:	80 3e 80 25 	xnord  %i2, %g5, %g0
     d1c:	80 3e 80 26 	xnord  %i2, %g6, %g0
     d20:	80 3e 80 27 	xnord  %i2, %g7, %g0
     d24:	80 3e 80 28 	xnord  %i2, %o0, %g0
     d28:	80 3e 80 29 	xnord  %i2, %o1, %g0
     d2c:	80 3e 80 2a 	xnord  %i2, %o2, %g0
     d30:	80 3e 80 2b 	xnord  %i2, %o3, %g0
     d34:	80 3e 80 2c 	xnord  %i2, %o4, %g0
     d38:	80 3e 80 2d 	xnord  %i2, %o5, %g0
     d3c:	80 3e 80 2e 	xnord  %i2, %sp, %g0
     d40:	80 3e 80 2f 	xnord  %i2, %o7, %g0
     d44:	80 3e 80 30 	xnord  %i2, %l0, %g0
     d48:	80 3e 80 31 	xnord  %i2, %l1, %g0
     d4c:	80 3e 80 32 	xnord  %i2, %l2, %g0
     d50:	80 3e 80 33 	xnord  %i2, %l3, %g0
     d54:	80 3e 80 34 	xnord  %i2, %l4, %g0
     d58:	80 3e 80 35 	xnord  %i2, %l5, %g0
     d5c:	80 3e 80 36 	xnord  %i2, %l6, %g0
     d60:	80 3e 80 37 	xnord  %i2, %l7, %g0
     d64:	80 3e 80 38 	xnord  %i2, %i0, %g0
     d68:	80 3e 80 39 	xnord  %i2, %i1, %g0
     d6c:	80 3e 80 3a 	xnord  %i2, %i2, %g0
     d70:	80 3e 80 3b 	xnord  %i2, %i3, %g0
     d74:	80 3e 80 3c 	xnord  %i2, %i4, %g0
     d78:	80 3e 80 3d 	xnord  %i2, %i5, %g0
     d7c:	80 3e 80 3e 	xnord  %i2, %fp, %g0
     d80:	80 3e 80 3f 	xnord  %i2, %i7, %g0
     d84:	80 3e c0 20 	xnord  %i3, %g0, %g0
     d88:	80 3e c0 21 	xnord  %i3, %g1, %g0
     d8c:	80 3e c0 22 	xnord  %i3, %g2, %g0
     d90:	80 3e c0 23 	xnord  %i3, %g3, %g0
     d94:	80 3e c0 24 	xnord  %i3, %g4, %g0
     d98:	80 3e c0 25 	xnord  %i3, %g5, %g0
     d9c:	80 3e c0 26 	xnord  %i3, %g6, %g0
     da0:	80 3e c0 27 	xnord  %i3, %g7, %g0
     da4:	80 3e c0 28 	xnord  %i3, %o0, %g0
     da8:	80 3e c0 29 	xnord  %i3, %o1, %g0
     dac:	80 3e c0 2a 	xnord  %i3, %o2, %g0
     db0:	80 3e c0 2b 	xnord  %i3, %o3, %g0
     db4:	80 3e c0 2c 	xnord  %i3, %o4, %g0
     db8:	80 3e c0 2d 	xnord  %i3, %o5, %g0
     dbc:	80 3e c0 2e 	xnord  %i3, %sp, %g0
     dc0:	80 3e c0 2f 	xnord  %i3, %o7, %g0
     dc4:	80 3e c0 30 	xnord  %i3, %l0, %g0
     dc8:	80 3e c0 31 	xnord  %i3, %l1, %g0
     dcc:	80 3e c0 32 	xnord  %i3, %l2, %g0
     dd0:	80 3e c0 33 	xnord  %i3, %l3, %g0
     dd4:	80 3e c0 34 	xnord  %i3, %l4, %g0
     dd8:	80 3e c0 35 	xnord  %i3, %l5, %g0
     ddc:	80 3e c0 36 	xnord  %i3, %l6, %g0
     de0:	80 3e c0 37 	xnord  %i3, %l7, %g0
     de4:	80 3e c0 38 	xnord  %i3, %i0, %g0
     de8:	80 3e c0 39 	xnord  %i3, %i1, %g0
     dec:	80 3e c0 3a 	xnord  %i3, %i2, %g0
     df0:	80 3e c0 3b 	xnord  %i3, %i3, %g0
     df4:	80 3e c0 3c 	xnord  %i3, %i4, %g0
     df8:	80 3e c0 3d 	xnord  %i3, %i5, %g0
     dfc:	80 3e c0 3e 	xnord  %i3, %fp, %g0
     e00:	80 3e c0 3f 	xnord  %i3, %i7, %g0
     e04:	80 3f 00 20 	xnord  %i4, %g0, %g0
     e08:	80 3f 00 21 	xnord  %i4, %g1, %g0
     e0c:	80 3f 00 22 	xnord  %i4, %g2, %g0
     e10:	80 3f 00 23 	xnord  %i4, %g3, %g0
     e14:	80 3f 00 24 	xnord  %i4, %g4, %g0
     e18:	80 3f 00 25 	xnord  %i4, %g5, %g0
     e1c:	80 3f 00 26 	xnord  %i4, %g6, %g0
     e20:	80 3f 00 27 	xnord  %i4, %g7, %g0
     e24:	80 3f 00 28 	xnord  %i4, %o0, %g0
     e28:	80 3f 00 29 	xnord  %i4, %o1, %g0
     e2c:	80 3f 00 2a 	xnord  %i4, %o2, %g0
     e30:	80 3f 00 2b 	xnord  %i4, %o3, %g0
     e34:	80 3f 00 2c 	xnord  %i4, %o4, %g0
     e38:	80 3f 00 2d 	xnord  %i4, %o5, %g0
     e3c:	80 3f 00 2e 	xnord  %i4, %sp, %g0
     e40:	80 3f 00 2f 	xnord  %i4, %o7, %g0
     e44:	80 3f 00 30 	xnord  %i4, %l0, %g0
     e48:	80 3f 00 31 	xnord  %i4, %l1, %g0
     e4c:	80 3f 00 32 	xnord  %i4, %l2, %g0
     e50:	80 3f 00 33 	xnord  %i4, %l3, %g0
     e54:	80 3f 00 34 	xnord  %i4, %l4, %g0
     e58:	80 3f 00 35 	xnord  %i4, %l5, %g0
     e5c:	80 3f 00 36 	xnord  %i4, %l6, %g0
     e60:	80 3f 00 37 	xnord  %i4, %l7, %g0
     e64:	80 3f 00 38 	xnord  %i4, %i0, %g0
     e68:	80 3f 00 39 	xnord  %i4, %i1, %g0
     e6c:	80 3f 00 3a 	xnord  %i4, %i2, %g0
     e70:	80 3f 00 3b 	xnord  %i4, %i3, %g0
     e74:	80 3f 00 3c 	xnord  %i4, %i4, %g0
     e78:	80 3f 00 3d 	xnord  %i4, %i5, %g0
     e7c:	80 3f 00 3e 	xnord  %i4, %fp, %g0
     e80:	80 3f 00 3f 	xnord  %i4, %i7, %g0
     e84:	80 3f 40 20 	xnord  %i5, %g0, %g0
     e88:	80 3f 40 21 	xnord  %i5, %g1, %g0
     e8c:	80 3f 40 22 	xnord  %i5, %g2, %g0
     e90:	80 3f 40 23 	xnord  %i5, %g3, %g0
     e94:	80 3f 40 24 	xnord  %i5, %g4, %g0
     e98:	80 3f 40 25 	xnord  %i5, %g5, %g0
     e9c:	80 3f 40 26 	xnord  %i5, %g6, %g0
     ea0:	80 3f 40 27 	xnord  %i5, %g7, %g0
     ea4:	80 3f 40 28 	xnord  %i5, %o0, %g0
     ea8:	80 3f 40 29 	xnord  %i5, %o1, %g0
     eac:	80 3f 40 2a 	xnord  %i5, %o2, %g0
     eb0:	80 3f 40 2b 	xnord  %i5, %o3, %g0
     eb4:	80 3f 40 2c 	xnord  %i5, %o4, %g0
     eb8:	80 3f 40 2d 	xnord  %i5, %o5, %g0
     ebc:	80 3f 40 2e 	xnord  %i5, %sp, %g0
     ec0:	80 3f 40 2f 	xnord  %i5, %o7, %g0
     ec4:	80 3f 40 30 	xnord  %i5, %l0, %g0
     ec8:	80 3f 40 31 	xnord  %i5, %l1, %g0
     ecc:	80 3f 40 32 	xnord  %i5, %l2, %g0
     ed0:	80 3f 40 33 	xnord  %i5, %l3, %g0
     ed4:	80 3f 40 34 	xnord  %i5, %l4, %g0
     ed8:	80 3f 40 35 	xnord  %i5, %l5, %g0
     edc:	80 3f 40 36 	xnord  %i5, %l6, %g0
     ee0:	80 3f 40 37 	xnord  %i5, %l7, %g0
     ee4:	80 3f 40 38 	xnord  %i5, %i0, %g0
     ee8:	80 3f 40 39 	xnord  %i5, %i1, %g0
     eec:	80 3f 40 3a 	xnord  %i5, %i2, %g0
     ef0:	80 3f 40 3b 	xnord  %i5, %i3, %g0
     ef4:	80 3f 40 3c 	xnord  %i5, %i4, %g0
     ef8:	80 3f 40 3d 	xnord  %i5, %i5, %g0
     efc:	80 3f 40 3e 	xnord  %i5, %fp, %g0
     f00:	80 3f 40 3f 	xnord  %i5, %i7, %g0
     f04:	80 3f 80 20 	xnord  %fp, %g0, %g0
     f08:	80 3f 80 21 	xnord  %fp, %g1, %g0
     f0c:	80 3f 80 22 	xnord  %fp, %g2, %g0
     f10:	80 3f 80 23 	xnord  %fp, %g3, %g0
     f14:	80 3f 80 24 	xnord  %fp, %g4, %g0
     f18:	80 3f 80 25 	xnord  %fp, %g5, %g0
     f1c:	80 3f 80 26 	xnord  %fp, %g6, %g0
     f20:	80 3f 80 27 	xnord  %fp, %g7, %g0
     f24:	80 3f 80 28 	xnord  %fp, %o0, %g0
     f28:	80 3f 80 29 	xnord  %fp, %o1, %g0
     f2c:	80 3f 80 2a 	xnord  %fp, %o2, %g0
     f30:	80 3f 80 2b 	xnord  %fp, %o3, %g0
     f34:	80 3f 80 2c 	xnord  %fp, %o4, %g0
     f38:	80 3f 80 2d 	xnord  %fp, %o5, %g0
     f3c:	80 3f 80 2e 	xnord  %fp, %sp, %g0
     f40:	80 3f 80 2f 	xnord  %fp, %o7, %g0
     f44:	80 3f 80 30 	xnord  %fp, %l0, %g0
     f48:	80 3f 80 31 	xnord  %fp, %l1, %g0
     f4c:	80 3f 80 32 	xnord  %fp, %l2, %g0
     f50:	80 3f 80 33 	xnord  %fp, %l3, %g0
     f54:	80 3f 80 34 	xnord  %fp, %l4, %g0
     f58:	80 3f 80 35 	xnord  %fp, %l5, %g0
     f5c:	80 3f 80 36 	xnord  %fp, %l6, %g0
     f60:	80 3f 80 37 	xnord  %fp, %l7, %g0
     f64:	80 3f 80 38 	xnord  %fp, %i0, %g0
     f68:	80 3f 80 39 	xnord  %fp, %i1, %g0
     f6c:	80 3f 80 3a 	xnord  %fp, %i2, %g0
     f70:	80 3f 80 3b 	xnord  %fp, %i3, %g0
     f74:	80 3f 80 3c 	xnord  %fp, %i4, %g0
     f78:	80 3f 80 3d 	xnord  %fp, %i5, %g0
     f7c:	80 3f 80 3e 	xnord  %fp, %fp, %g0
     f80:	80 3f 80 3f 	xnord  %fp, %i7, %g0
     f84:	80 3f c0 20 	xnord  %i7, %g0, %g0
     f88:	80 3f c0 21 	xnord  %i7, %g1, %g0
     f8c:	80 3f c0 22 	xnord  %i7, %g2, %g0
     f90:	80 3f c0 23 	xnord  %i7, %g3, %g0
     f94:	80 3f c0 24 	xnord  %i7, %g4, %g0
     f98:	80 3f c0 25 	xnord  %i7, %g5, %g0
     f9c:	80 3f c0 26 	xnord  %i7, %g6, %g0
     fa0:	80 3f c0 27 	xnord  %i7, %g7, %g0
     fa4:	80 3f c0 28 	xnord  %i7, %o0, %g0
     fa8:	80 3f c0 29 	xnord  %i7, %o1, %g0
     fac:	80 3f c0 2a 	xnord  %i7, %o2, %g0
     fb0:	80 3f c0 2b 	xnord  %i7, %o3, %g0
     fb4:	80 3f c0 2c 	xnord  %i7, %o4, %g0
     fb8:	80 3f c0 2d 	xnord  %i7, %o5, %g0
     fbc:	80 3f c0 2e 	xnord  %i7, %sp, %g0
     fc0:	80 3f c0 2f 	xnord  %i7, %o7, %g0
     fc4:	80 3f c0 30 	xnord  %i7, %l0, %g0
     fc8:	80 3f c0 31 	xnord  %i7, %l1, %g0
     fcc:	80 3f c0 32 	xnord  %i7, %l2, %g0
     fd0:	80 3f c0 33 	xnord  %i7, %l3, %g0
     fd4:	80 3f c0 34 	xnord  %i7, %l4, %g0
     fd8:	80 3f c0 35 	xnord  %i7, %l5, %g0
     fdc:	80 3f c0 36 	xnord  %i7, %l6, %g0
     fe0:	80 3f c0 37 	xnord  %i7, %l7, %g0
     fe4:	80 3f c0 38 	xnord  %i7, %i0, %g0
     fe8:	80 3f c0 39 	xnord  %i7, %i1, %g0
     fec:	80 3f c0 3a 	xnord  %i7, %i2, %g0
     ff0:	80 3f c0 3b 	xnord  %i7, %i3, %g0
     ff4:	80 3f c0 3c 	xnord  %i7, %i4, %g0
     ff8:	80 3f c0 3d 	xnord  %i7, %i5, %g0
     ffc:	80 3f c0 3e 	xnord  %i7, %fp, %g0
    1000:	80 3f c0 3f 	xnord  %i7, %i7, %g0
    1004:	82 38 00 20 	xnord  %g0, %g0, %g1
    1008:	82 38 00 21 	xnord  %g0, %g1, %g1
    100c:	82 38 00 22 	xnord  %g0, %g2, %g1
    1010:	82 38 00 23 	xnord  %g0, %g3, %g1
    1014:	82 38 00 24 	xnord  %g0, %g4, %g1
    1018:	82 38 00 25 	xnord  %g0, %g5, %g1
    101c:	82 38 00 26 	xnord  %g0, %g6, %g1
    1020:	82 38 00 27 	xnord  %g0, %g7, %g1
    1024:	82 38 00 28 	xnord  %g0, %o0, %g1
    1028:	82 38 00 29 	xnord  %g0, %o1, %g1
    102c:	82 38 00 2a 	xnord  %g0, %o2, %g1
    1030:	82 38 00 2b 	xnord  %g0, %o3, %g1
    1034:	82 38 00 2c 	xnord  %g0, %o4, %g1
    1038:	82 38 00 2d 	xnord  %g0, %o5, %g1
    103c:	82 38 00 2e 	xnord  %g0, %sp, %g1
    1040:	82 38 00 2f 	xnord  %g0, %o7, %g1
    1044:	82 38 00 30 	xnord  %g0, %l0, %g1
    1048:	82 38 00 31 	xnord  %g0, %l1, %g1
    104c:	82 38 00 32 	xnord  %g0, %l2, %g1
    1050:	82 38 00 33 	xnord  %g0, %l3, %g1
    1054:	82 38 00 34 	xnord  %g0, %l4, %g1
    1058:	82 38 00 35 	xnord  %g0, %l5, %g1
    105c:	82 38 00 36 	xnord  %g0, %l6, %g1
    1060:	82 38 00 37 	xnord  %g0, %l7, %g1
    1064:	82 38 00 38 	xnord  %g0, %i0, %g1
    1068:	82 38 00 39 	xnord  %g0, %i1, %g1
    106c:	82 38 00 3a 	xnord  %g0, %i2, %g1
    1070:	82 38 00 3b 	xnord  %g0, %i3, %g1
    1074:	82 38 00 3c 	xnord  %g0, %i4, %g1
    1078:	82 38 00 3d 	xnord  %g0, %i5, %g1
    107c:	82 38 00 3e 	xnord  %g0, %fp, %g1
    1080:	82 38 00 3f 	xnord  %g0, %i7, %g1
    1084:	82 38 40 20 	xnord  %g1, %g0, %g1
    1088:	82 38 40 21 	xnord  %g1, %g1, %g1
    108c:	82 38 40 22 	xnord  %g1, %g2, %g1
    1090:	82 38 40 23 	xnord  %g1, %g3, %g1
    1094:	82 38 40 24 	xnord  %g1, %g4, %g1
    1098:	82 38 40 25 	xnord  %g1, %g5, %g1
    109c:	82 38 40 26 	xnord  %g1, %g6, %g1
    10a0:	82 38 40 27 	xnord  %g1, %g7, %g1
    10a4:	82 38 40 28 	xnord  %g1, %o0, %g1
    10a8:	82 38 40 29 	xnord  %g1, %o1, %g1
    10ac:	82 38 40 2a 	xnord  %g1, %o2, %g1
    10b0:	82 38 40 2b 	xnord  %g1, %o3, %g1
    10b4:	82 38 40 2c 	xnord  %g1, %o4, %g1
    10b8:	82 38 40 2d 	xnord  %g1, %o5, %g1
    10bc:	82 38 40 2e 	xnord  %g1, %sp, %g1
    10c0:	82 38 40 2f 	xnord  %g1, %o7, %g1
    10c4:	82 38 40 30 	xnord  %g1, %l0, %g1
    10c8:	82 38 40 31 	xnord  %g1, %l1, %g1
    10cc:	82 38 40 32 	xnord  %g1, %l2, %g1
    10d0:	82 38 40 33 	xnord  %g1, %l3, %g1
    10d4:	82 38 40 34 	xnord  %g1, %l4, %g1
    10d8:	82 38 40 35 	xnord  %g1, %l5, %g1
    10dc:	82 38 40 36 	xnord  %g1, %l6, %g1
    10e0:	82 38 40 37 	xnord  %g1, %l7, %g1
    10e4:	82 38 40 38 	xnord  %g1, %i0, %g1
    10e8:	82 38 40 39 	xnord  %g1, %i1, %g1
    10ec:	82 38 40 3a 	xnord  %g1, %i2, %g1
    10f0:	82 38 40 3b 	xnord  %g1, %i3, %g1
    10f4:	82 38 40 3c 	xnord  %g1, %i4, %g1
    10f8:	82 38 40 3d 	xnord  %g1, %i5, %g1
    10fc:	82 38 40 3e 	xnord  %g1, %fp, %g1
    1100:	82 38 40 3f 	xnord  %g1, %i7, %g1
    1104:	82 38 80 20 	xnord  %g2, %g0, %g1
    1108:	82 38 80 21 	xnord  %g2, %g1, %g1
    110c:	82 38 80 22 	xnord  %g2, %g2, %g1
    1110:	82 38 80 23 	xnord  %g2, %g3, %g1
    1114:	82 38 80 24 	xnord  %g2, %g4, %g1
    1118:	82 38 80 25 	xnord  %g2, %g5, %g1
    111c:	82 38 80 26 	xnord  %g2, %g6, %g1
    1120:	82 38 80 27 	xnord  %g2, %g7, %g1
    1124:	82 38 80 28 	xnord  %g2, %o0, %g1
    1128:	82 38 80 29 	xnord  %g2, %o1, %g1
    112c:	82 38 80 2a 	xnord  %g2, %o2, %g1
    1130:	82 38 80 2b 	xnord  %g2, %o3, %g1
    1134:	82 38 80 2c 	xnord  %g2, %o4, %g1
    1138:	82 38 80 2d 	xnord  %g2, %o5, %g1
    113c:	82 38 80 2e 	xnord  %g2, %sp, %g1
    1140:	82 38 80 2f 	xnord  %g2, %o7, %g1
    1144:	82 38 80 30 	xnord  %g2, %l0, %g1
    1148:	82 38 80 31 	xnord  %g2, %l1, %g1
    114c:	82 38 80 32 	xnord  %g2, %l2, %g1
    1150:	82 38 80 33 	xnord  %g2, %l3, %g1
    1154:	82 38 80 34 	xnord  %g2, %l4, %g1
    1158:	82 38 80 35 	xnord  %g2, %l5, %g1
    115c:	82 38 80 36 	xnord  %g2, %l6, %g1
    1160:	82 38 80 37 	xnord  %g2, %l7, %g1
    1164:	82 38 80 38 	xnord  %g2, %i0, %g1
    1168:	82 38 80 39 	xnord  %g2, %i1, %g1
    116c:	82 38 80 3a 	xnord  %g2, %i2, %g1
    1170:	82 38 80 3b 	xnord  %g2, %i3, %g1
    1174:	82 38 80 3c 	xnord  %g2, %i4, %g1
    1178:	82 38 80 3d 	xnord  %g2, %i5, %g1
    117c:	82 38 80 3e 	xnord  %g2, %fp, %g1
    1180:	82 38 80 3f 	xnord  %g2, %i7, %g1
    1184:	82 38 c0 20 	xnord  %g3, %g0, %g1
    1188:	82 38 c0 21 	xnord  %g3, %g1, %g1
    118c:	82 38 c0 22 	xnord  %g3, %g2, %g1
    1190:	82 38 c0 23 	xnord  %g3, %g3, %g1
    1194:	82 38 c0 24 	xnord  %g3, %g4, %g1
    1198:	82 38 c0 25 	xnord  %g3, %g5, %g1
    119c:	82 38 c0 26 	xnord  %g3, %g6, %g1
    11a0:	82 38 c0 27 	xnord  %g3, %g7, %g1
    11a4:	82 38 c0 28 	xnord  %g3, %o0, %g1
    11a8:	82 38 c0 29 	xnord  %g3, %o1, %g1
    11ac:	82 38 c0 2a 	xnord  %g3, %o2, %g1
    11b0:	82 38 c0 2b 	xnord  %g3, %o3, %g1
    11b4:	82 38 c0 2c 	xnord  %g3, %o4, %g1
    11b8:	82 38 c0 2d 	xnord  %g3, %o5, %g1
    11bc:	82 38 c0 2e 	xnord  %g3, %sp, %g1
    11c0:	82 38 c0 2f 	xnord  %g3, %o7, %g1
    11c4:	82 38 c0 30 	xnord  %g3, %l0, %g1
    11c8:	82 38 c0 31 	xnord  %g3, %l1, %g1
    11cc:	82 38 c0 32 	xnord  %g3, %l2, %g1
    11d0:	82 38 c0 33 	xnord  %g3, %l3, %g1
    11d4:	82 38 c0 34 	xnord  %g3, %l4, %g1
    11d8:	82 38 c0 35 	xnord  %g3, %l5, %g1
    11dc:	82 38 c0 36 	xnord  %g3, %l6, %g1
    11e0:	82 38 c0 37 	xnord  %g3, %l7, %g1
    11e4:	82 38 c0 38 	xnord  %g3, %i0, %g1
    11e8:	82 38 c0 39 	xnord  %g3, %i1, %g1
    11ec:	82 38 c0 3a 	xnord  %g3, %i2, %g1
    11f0:	82 38 c0 3b 	xnord  %g3, %i3, %g1
    11f4:	82 38 c0 3c 	xnord  %g3, %i4, %g1
    11f8:	82 38 c0 3d 	xnord  %g3, %i5, %g1
    11fc:	82 38 c0 3e 	xnord  %g3, %fp, %g1
    1200:	82 38 c0 3f 	xnord  %g3, %i7, %g1
    1204:	82 39 00 20 	xnord  %g4, %g0, %g1
    1208:	82 39 00 21 	xnord  %g4, %g1, %g1
    120c:	82 39 00 22 	xnord  %g4, %g2, %g1
    1210:	82 39 00 23 	xnord  %g4, %g3, %g1
    1214:	82 39 00 24 	xnord  %g4, %g4, %g1
    1218:	82 39 00 25 	xnord  %g4, %g5, %g1
    121c:	82 39 00 26 	xnord  %g4, %g6, %g1
    1220:	82 39 00 27 	xnord  %g4, %g7, %g1
    1224:	82 39 00 28 	xnord  %g4, %o0, %g1
    1228:	82 39 00 29 	xnord  %g4, %o1, %g1
    122c:	82 39 00 2a 	xnord  %g4, %o2, %g1
    1230:	82 39 00 2b 	xnord  %g4, %o3, %g1
    1234:	82 39 00 2c 	xnord  %g4, %o4, %g1
    1238:	82 39 00 2d 	xnord  %g4, %o5, %g1
    123c:	82 39 00 2e 	xnord  %g4, %sp, %g1
    1240:	82 39 00 2f 	xnord  %g4, %o7, %g1
    1244:	82 39 00 30 	xnord  %g4, %l0, %g1
    1248:	82 39 00 31 	xnord  %g4, %l1, %g1
    124c:	82 39 00 32 	xnord  %g4, %l2, %g1
    1250:	82 39 00 33 	xnord  %g4, %l3, %g1
    1254:	82 39 00 34 	xnord  %g4, %l4, %g1
    1258:	82 39 00 35 	xnord  %g4, %l5, %g1
    125c:	82 39 00 36 	xnord  %g4, %l6, %g1
    1260:	82 39 00 37 	xnord  %g4, %l7, %g1
    1264:	82 39 00 38 	xnord  %g4, %i0, %g1
    1268:	82 39 00 39 	xnord  %g4, %i1, %g1
    126c:	82 39 00 3a 	xnord  %g4, %i2, %g1
    1270:	82 39 00 3b 	xnord  %g4, %i3, %g1
    1274:	82 39 00 3c 	xnord  %g4, %i4, %g1
    1278:	82 39 00 3d 	xnord  %g4, %i5, %g1
    127c:	82 39 00 3e 	xnord  %g4, %fp, %g1
    1280:	82 39 00 3f 	xnord  %g4, %i7, %g1
    1284:	82 39 40 20 	xnord  %g5, %g0, %g1
    1288:	82 39 40 21 	xnord  %g5, %g1, %g1
    128c:	82 39 40 22 	xnord  %g5, %g2, %g1
    1290:	82 39 40 23 	xnord  %g5, %g3, %g1
    1294:	82 39 40 24 	xnord  %g5, %g4, %g1
    1298:	82 39 40 25 	xnord  %g5, %g5, %g1
    129c:	82 39 40 26 	xnord  %g5, %g6, %g1
    12a0:	82 39 40 27 	xnord  %g5, %g7, %g1
    12a4:	82 39 40 28 	xnord  %g5, %o0, %g1
    12a8:	82 39 40 29 	xnord  %g5, %o1, %g1
    12ac:	82 39 40 2a 	xnord  %g5, %o2, %g1
    12b0:	82 39 40 2b 	xnord  %g5, %o3, %g1
    12b4:	82 39 40 2c 	xnord  %g5, %o4, %g1
    12b8:	82 39 40 2d 	xnord  %g5, %o5, %g1
    12bc:	82 39 40 2e 	xnord  %g5, %sp, %g1
    12c0:	82 39 40 2f 	xnord  %g5, %o7, %g1
    12c4:	82 39 40 30 	xnord  %g5, %l0, %g1
    12c8:	82 39 40 31 	xnord  %g5, %l1, %g1
    12cc:	82 39 40 32 	xnord  %g5, %l2, %g1
    12d0:	82 39 40 33 	xnord  %g5, %l3, %g1
    12d4:	82 39 40 34 	xnord  %g5, %l4, %g1
    12d8:	82 39 40 35 	xnord  %g5, %l5, %g1
    12dc:	82 39 40 36 	xnord  %g5, %l6, %g1
    12e0:	82 39 40 37 	xnord  %g5, %l7, %g1
    12e4:	82 39 40 38 	xnord  %g5, %i0, %g1
    12e8:	82 39 40 39 	xnord  %g5, %i1, %g1
    12ec:	82 39 40 3a 	xnord  %g5, %i2, %g1
    12f0:	82 39 40 3b 	xnord  %g5, %i3, %g1
    12f4:	82 39 40 3c 	xnord  %g5, %i4, %g1
    12f8:	82 39 40 3d 	xnord  %g5, %i5, %g1
    12fc:	82 39 40 3e 	xnord  %g5, %fp, %g1
    1300:	82 39 40 3f 	xnord  %g5, %i7, %g1
    1304:	82 39 80 20 	xnord  %g6, %g0, %g1
    1308:	82 39 80 21 	xnord  %g6, %g1, %g1
    130c:	82 39 80 22 	xnord  %g6, %g2, %g1
    1310:	82 39 80 23 	xnord  %g6, %g3, %g1
    1314:	82 39 80 24 	xnord  %g6, %g4, %g1
    1318:	82 39 80 25 	xnord  %g6, %g5, %g1
    131c:	82 39 80 26 	xnord  %g6, %g6, %g1
    1320:	82 39 80 27 	xnord  %g6, %g7, %g1
    1324:	82 39 80 28 	xnord  %g6, %o0, %g1
    1328:	82 39 80 29 	xnord  %g6, %o1, %g1
    132c:	82 39 80 2a 	xnord  %g6, %o2, %g1
    1330:	82 39 80 2b 	xnord  %g6, %o3, %g1
    1334:	82 39 80 2c 	xnord  %g6, %o4, %g1
    1338:	82 39 80 2d 	xnord  %g6, %o5, %g1
    133c:	82 39 80 2e 	xnord  %g6, %sp, %g1
    1340:	82 39 80 2f 	xnord  %g6, %o7, %g1
    1344:	82 39 80 30 	xnord  %g6, %l0, %g1
    1348:	82 39 80 31 	xnord  %g6, %l1, %g1
    134c:	82 39 80 32 	xnord  %g6, %l2, %g1
    1350:	82 39 80 33 	xnord  %g6, %l3, %g1
    1354:	82 39 80 34 	xnord  %g6, %l4, %g1
    1358:	82 39 80 35 	xnord  %g6, %l5, %g1
    135c:	82 39 80 36 	xnord  %g6, %l6, %g1
    1360:	82 39 80 37 	xnord  %g6, %l7, %g1
    1364:	82 39 80 38 	xnord  %g6, %i0, %g1
    1368:	82 39 80 39 	xnord  %g6, %i1, %g1
    136c:	82 39 80 3a 	xnord  %g6, %i2, %g1
    1370:	82 39 80 3b 	xnord  %g6, %i3, %g1
    1374:	82 39 80 3c 	xnord  %g6, %i4, %g1
    1378:	82 39 80 3d 	xnord  %g6, %i5, %g1
    137c:	82 39 80 3e 	xnord  %g6, %fp, %g1
    1380:	82 39 80 3f 	xnord  %g6, %i7, %g1
    1384:	82 39 c0 20 	xnord  %g7, %g0, %g1
    1388:	82 39 c0 21 	xnord  %g7, %g1, %g1
    138c:	82 39 c0 22 	xnord  %g7, %g2, %g1
    1390:	82 39 c0 23 	xnord  %g7, %g3, %g1
    1394:	82 39 c0 24 	xnord  %g7, %g4, %g1
    1398:	82 39 c0 25 	xnord  %g7, %g5, %g1
    139c:	82 39 c0 26 	xnord  %g7, %g6, %g1
    13a0:	82 39 c0 27 	xnord  %g7, %g7, %g1
    13a4:	82 39 c0 28 	xnord  %g7, %o0, %g1
    13a8:	82 39 c0 29 	xnord  %g7, %o1, %g1
    13ac:	82 39 c0 2a 	xnord  %g7, %o2, %g1
    13b0:	82 39 c0 2b 	xnord  %g7, %o3, %g1
    13b4:	82 39 c0 2c 	xnord  %g7, %o4, %g1
    13b8:	82 39 c0 2d 	xnord  %g7, %o5, %g1
    13bc:	82 39 c0 2e 	xnord  %g7, %sp, %g1
    13c0:	82 39 c0 2f 	xnord  %g7, %o7, %g1
    13c4:	82 39 c0 30 	xnord  %g7, %l0, %g1
    13c8:	82 39 c0 31 	xnord  %g7, %l1, %g1
    13cc:	82 39 c0 32 	xnord  %g7, %l2, %g1
    13d0:	82 39 c0 33 	xnord  %g7, %l3, %g1
    13d4:	82 39 c0 34 	xnord  %g7, %l4, %g1
    13d8:	82 39 c0 35 	xnord  %g7, %l5, %g1
    13dc:	82 39 c0 36 	xnord  %g7, %l6, %g1
    13e0:	82 39 c0 37 	xnord  %g7, %l7, %g1
    13e4:	82 39 c0 38 	xnord  %g7, %i0, %g1
    13e8:	82 39 c0 39 	xnord  %g7, %i1, %g1
    13ec:	82 39 c0 3a 	xnord  %g7, %i2, %g1
    13f0:	82 39 c0 3b 	xnord  %g7, %i3, %g1
    13f4:	82 39 c0 3c 	xnord  %g7, %i4, %g1
    13f8:	82 39 c0 3d 	xnord  %g7, %i5, %g1
    13fc:	82 39 c0 3e 	xnord  %g7, %fp, %g1
    1400:	82 39 c0 3f 	xnord  %g7, %i7, %g1
    1404:	82 3a 00 20 	xnord  %o0, %g0, %g1
    1408:	82 3a 00 21 	xnord  %o0, %g1, %g1
    140c:	82 3a 00 22 	xnord  %o0, %g2, %g1
    1410:	82 3a 00 23 	xnord  %o0, %g3, %g1
    1414:	82 3a 00 24 	xnord  %o0, %g4, %g1
    1418:	82 3a 00 25 	xnord  %o0, %g5, %g1
    141c:	82 3a 00 26 	xnord  %o0, %g6, %g1
    1420:	82 3a 00 27 	xnord  %o0, %g7, %g1
    1424:	82 3a 00 28 	xnord  %o0, %o0, %g1
    1428:	82 3a 00 29 	xnord  %o0, %o1, %g1
    142c:	82 3a 00 2a 	xnord  %o0, %o2, %g1
    1430:	82 3a 00 2b 	xnord  %o0, %o3, %g1
    1434:	82 3a 00 2c 	xnord  %o0, %o4, %g1
    1438:	82 3a 00 2d 	xnord  %o0, %o5, %g1
    143c:	82 3a 00 2e 	xnord  %o0, %sp, %g1
    1440:	82 3a 00 2f 	xnord  %o0, %o7, %g1
    1444:	82 3a 00 30 	xnord  %o0, %l0, %g1
    1448:	82 3a 00 31 	xnord  %o0, %l1, %g1
    144c:	82 3a 00 32 	xnord  %o0, %l2, %g1
    1450:	82 3a 00 33 	xnord  %o0, %l3, %g1
    1454:	82 3a 00 34 	xnord  %o0, %l4, %g1
    1458:	82 3a 00 35 	xnord  %o0, %l5, %g1
    145c:	82 3a 00 36 	xnord  %o0, %l6, %g1
    1460:	82 3a 00 37 	xnord  %o0, %l7, %g1
    1464:	82 3a 00 38 	xnord  %o0, %i0, %g1
    1468:	82 3a 00 39 	xnord  %o0, %i1, %g1
    146c:	82 3a 00 3a 	xnord  %o0, %i2, %g1
    1470:	82 3a 00 3b 	xnord  %o0, %i3, %g1
    1474:	82 3a 00 3c 	xnord  %o0, %i4, %g1
    1478:	82 3a 00 3d 	xnord  %o0, %i5, %g1
    147c:	82 3a 00 3e 	xnord  %o0, %fp, %g1
    1480:	82 3a 00 3f 	xnord  %o0, %i7, %g1
    1484:	82 3a 40 20 	xnord  %o1, %g0, %g1
    1488:	82 3a 40 21 	xnord  %o1, %g1, %g1
    148c:	82 3a 40 22 	xnord  %o1, %g2, %g1
    1490:	82 3a 40 23 	xnord  %o1, %g3, %g1
    1494:	82 3a 40 24 	xnord  %o1, %g4, %g1
    1498:	82 3a 40 25 	xnord  %o1, %g5, %g1
    149c:	82 3a 40 26 	xnord  %o1, %g6, %g1
    14a0:	82 3a 40 27 	xnord  %o1, %g7, %g1
    14a4:	82 3a 40 28 	xnord  %o1, %o0, %g1
    14a8:	82 3a 40 29 	xnord  %o1, %o1, %g1
    14ac:	82 3a 40 2a 	xnord  %o1, %o2, %g1
    14b0:	82 3a 40 2b 	xnord  %o1, %o3, %g1
    14b4:	82 3a 40 2c 	xnord  %o1, %o4, %g1
    14b8:	82 3a 40 2d 	xnord  %o1, %o5, %g1
    14bc:	82 3a 40 2e 	xnord  %o1, %sp, %g1
    14c0:	82 3a 40 2f 	xnord  %o1, %o7, %g1
    14c4:	82 3a 40 30 	xnord  %o1, %l0, %g1
    14c8:	82 3a 40 31 	xnord  %o1, %l1, %g1
    14cc:	82 3a 40 32 	xnord  %o1, %l2, %g1
    14d0:	82 3a 40 33 	xnord  %o1, %l3, %g1
    14d4:	82 3a 40 34 	xnord  %o1, %l4, %g1
    14d8:	82 3a 40 35 	xnord  %o1, %l5, %g1
    14dc:	82 3a 40 36 	xnord  %o1, %l6, %g1
    14e0:	82 3a 40 37 	xnord  %o1, %l7, %g1
    14e4:	82 3a 40 38 	xnord  %o1, %i0, %g1
    14e8:	82 3a 40 39 	xnord  %o1, %i1, %g1
    14ec:	82 3a 40 3a 	xnord  %o1, %i2, %g1
    14f0:	82 3a 40 3b 	xnord  %o1, %i3, %g1
    14f4:	82 3a 40 3c 	xnord  %o1, %i4, %g1
    14f8:	82 3a 40 3d 	xnord  %o1, %i5, %g1
    14fc:	82 3a 40 3e 	xnord  %o1, %fp, %g1
    1500:	82 3a 40 3f 	xnord  %o1, %i7, %g1
    1504:	82 3a 80 20 	xnord  %o2, %g0, %g1
    1508:	82 3a 80 21 	xnord  %o2, %g1, %g1
    150c:	82 3a 80 22 	xnord  %o2, %g2, %g1
    1510:	82 3a 80 23 	xnord  %o2, %g3, %g1
    1514:	82 3a 80 24 	xnord  %o2, %g4, %g1
    1518:	82 3a 80 25 	xnord  %o2, %g5, %g1
    151c:	82 3a 80 26 	xnord  %o2, %g6, %g1
    1520:	82 3a 80 27 	xnord  %o2, %g7, %g1
    1524:	82 3a 80 28 	xnord  %o2, %o0, %g1
    1528:	82 3a 80 29 	xnord  %o2, %o1, %g1
    152c:	82 3a 80 2a 	xnord  %o2, %o2, %g1
    1530:	82 3a 80 2b 	xnord  %o2, %o3, %g1
    1534:	82 3a 80 2c 	xnord  %o2, %o4, %g1
    1538:	82 3a 80 2d 	xnord  %o2, %o5, %g1
    153c:	82 3a 80 2e 	xnord  %o2, %sp, %g1
    1540:	82 3a 80 2f 	xnord  %o2, %o7, %g1
    1544:	82 3a 80 30 	xnord  %o2, %l0, %g1
    1548:	82 3a 80 31 	xnord  %o2, %l1, %g1
    154c:	82 3a 80 32 	xnord  %o2, %l2, %g1
    1550:	82 3a 80 33 	xnord  %o2, %l3, %g1
    1554:	82 3a 80 34 	xnord  %o2, %l4, %g1
    1558:	82 3a 80 35 	xnord  %o2, %l5, %g1
    155c:	82 3a 80 36 	xnord  %o2, %l6, %g1
    1560:	82 3a 80 37 	xnord  %o2, %l7, %g1
    1564:	82 3a 80 38 	xnord  %o2, %i0, %g1
    1568:	82 3a 80 39 	xnord  %o2, %i1, %g1
    156c:	82 3a 80 3a 	xnord  %o2, %i2, %g1
    1570:	82 3a 80 3b 	xnord  %o2, %i3, %g1
    1574:	82 3a 80 3c 	xnord  %o2, %i4, %g1
    1578:	82 3a 80 3d 	xnord  %o2, %i5, %g1
    157c:	82 3a 80 3e 	xnord  %o2, %fp, %g1
    1580:	82 3a 80 3f 	xnord  %o2, %i7, %g1
    1584:	82 3a c0 20 	xnord  %o3, %g0, %g1
    1588:	82 3a c0 21 	xnord  %o3, %g1, %g1
    158c:	82 3a c0 22 	xnord  %o3, %g2, %g1
    1590:	82 3a c0 23 	xnord  %o3, %g3, %g1
    1594:	82 3a c0 24 	xnord  %o3, %g4, %g1
    1598:	82 3a c0 25 	xnord  %o3, %g5, %g1
    159c:	82 3a c0 26 	xnord  %o3, %g6, %g1
    15a0:	82 3a c0 27 	xnord  %o3, %g7, %g1
    15a4:	82 3a c0 28 	xnord  %o3, %o0, %g1
    15a8:	82 3a c0 29 	xnord  %o3, %o1, %g1
    15ac:	82 3a c0 2a 	xnord  %o3, %o2, %g1
    15b0:	82 3a c0 2b 	xnord  %o3, %o3, %g1
    15b4:	82 3a c0 2c 	xnord  %o3, %o4, %g1
    15b8:	82 3a c0 2d 	xnord  %o3, %o5, %g1
    15bc:	82 3a c0 2e 	xnord  %o3, %sp, %g1
    15c0:	82 3a c0 2f 	xnord  %o3, %o7, %g1
    15c4:	82 3a c0 30 	xnord  %o3, %l0, %g1
    15c8:	82 3a c0 31 	xnord  %o3, %l1, %g1
    15cc:	82 3a c0 32 	xnord  %o3, %l2, %g1
    15d0:	82 3a c0 33 	xnord  %o3, %l3, %g1
    15d4:	82 3a c0 34 	xnord  %o3, %l4, %g1
    15d8:	82 3a c0 35 	xnord  %o3, %l5, %g1
    15dc:	82 3a c0 36 	xnord  %o3, %l6, %g1
    15e0:	82 3a c0 37 	xnord  %o3, %l7, %g1
    15e4:	82 3a c0 38 	xnord  %o3, %i0, %g1
    15e8:	82 3a c0 39 	xnord  %o3, %i1, %g1
    15ec:	82 3a c0 3a 	xnord  %o3, %i2, %g1
    15f0:	82 3a c0 3b 	xnord  %o3, %i3, %g1
    15f4:	82 3a c0 3c 	xnord  %o3, %i4, %g1
    15f8:	82 3a c0 3d 	xnord  %o3, %i5, %g1
    15fc:	82 3a c0 3e 	xnord  %o3, %fp, %g1
    1600:	82 3a c0 3f 	xnord  %o3, %i7, %g1
    1604:	82 3b 00 20 	xnord  %o4, %g0, %g1
    1608:	82 3b 00 21 	xnord  %o4, %g1, %g1
    160c:	82 3b 00 22 	xnord  %o4, %g2, %g1
    1610:	82 3b 00 23 	xnord  %o4, %g3, %g1
    1614:	82 3b 00 24 	xnord  %o4, %g4, %g1
    1618:	82 3b 00 25 	xnord  %o4, %g5, %g1
    161c:	82 3b 00 26 	xnord  %o4, %g6, %g1
    1620:	82 3b 00 27 	xnord  %o4, %g7, %g1
    1624:	82 3b 00 28 	xnord  %o4, %o0, %g1
    1628:	82 3b 00 29 	xnord  %o4, %o1, %g1
    162c:	82 3b 00 2a 	xnord  %o4, %o2, %g1
    1630:	82 3b 00 2b 	xnord  %o4, %o3, %g1
    1634:	82 3b 00 2c 	xnord  %o4, %o4, %g1
    1638:	82 3b 00 2d 	xnord  %o4, %o5, %g1
    163c:	82 3b 00 2e 	xnord  %o4, %sp, %g1
    1640:	82 3b 00 2f 	xnord  %o4, %o7, %g1
    1644:	82 3b 00 30 	xnord  %o4, %l0, %g1
    1648:	82 3b 00 31 	xnord  %o4, %l1, %g1
    164c:	82 3b 00 32 	xnord  %o4, %l2, %g1
    1650:	82 3b 00 33 	xnord  %o4, %l3, %g1
    1654:	82 3b 00 34 	xnord  %o4, %l4, %g1
    1658:	82 3b 00 35 	xnord  %o4, %l5, %g1
    165c:	82 3b 00 36 	xnord  %o4, %l6, %g1
    1660:	82 3b 00 37 	xnord  %o4, %l7, %g1
    1664:	82 3b 00 38 	xnord  %o4, %i0, %g1
    1668:	82 3b 00 39 	xnord  %o4, %i1, %g1
    166c:	82 3b 00 3a 	xnord  %o4, %i2, %g1
    1670:	82 3b 00 3b 	xnord  %o4, %i3, %g1
    1674:	82 3b 00 3c 	xnord  %o4, %i4, %g1
    1678:	82 3b 00 3d 	xnord  %o4, %i5, %g1
    167c:	82 3b 00 3e 	xnord  %o4, %fp, %g1
    1680:	82 3b 00 3f 	xnord  %o4, %i7, %g1
    1684:	82 3b 40 20 	xnord  %o5, %g0, %g1
    1688:	82 3b 40 21 	xnord  %o5, %g1, %g1
    168c:	82 3b 40 22 	xnord  %o5, %g2, %g1
    1690:	82 3b 40 23 	xnord  %o5, %g3, %g1
    1694:	82 3b 40 24 	xnord  %o5, %g4, %g1
    1698:	82 3b 40 25 	xnord  %o5, %g5, %g1
    169c:	82 3b 40 26 	xnord  %o5, %g6, %g1
    16a0:	82 3b 40 27 	xnord  %o5, %g7, %g1
    16a4:	82 3b 40 28 	xnord  %o5, %o0, %g1
    16a8:	82 3b 40 29 	xnord  %o5, %o1, %g1
    16ac:	82 3b 40 2a 	xnord  %o5, %o2, %g1
    16b0:	82 3b 40 2b 	xnord  %o5, %o3, %g1
    16b4:	82 3b 40 2c 	xnord  %o5, %o4, %g1
    16b8:	82 3b 40 2d 	xnord  %o5, %o5, %g1
    16bc:	82 3b 40 2e 	xnord  %o5, %sp, %g1
    16c0:	82 3b 40 2f 	xnord  %o5, %o7, %g1
    16c4:	82 3b 40 30 	xnord  %o5, %l0, %g1
    16c8:	82 3b 40 31 	xnord  %o5, %l1, %g1
    16cc:	82 3b 40 32 	xnord  %o5, %l2, %g1
    16d0:	82 3b 40 33 	xnord  %o5, %l3, %g1
    16d4:	82 3b 40 34 	xnord  %o5, %l4, %g1
    16d8:	82 3b 40 35 	xnord  %o5, %l5, %g1
    16dc:	82 3b 40 36 	xnord  %o5, %l6, %g1
    16e0:	82 3b 40 37 	xnord  %o5, %l7, %g1
    16e4:	82 3b 40 38 	xnord  %o5, %i0, %g1
    16e8:	82 3b 40 39 	xnord  %o5, %i1, %g1
    16ec:	82 3b 40 3a 	xnord  %o5, %i2, %g1
    16f0:	82 3b 40 3b 	xnord  %o5, %i3, %g1
    16f4:	82 3b 40 3c 	xnord  %o5, %i4, %g1
    16f8:	82 3b 40 3d 	xnord  %o5, %i5, %g1
    16fc:	82 3b 40 3e 	xnord  %o5, %fp, %g1
    1700:	82 3b 40 3f 	xnord  %o5, %i7, %g1
    1704:	82 3b 80 20 	xnord  %sp, %g0, %g1
    1708:	82 3b 80 21 	xnord  %sp, %g1, %g1
    170c:	82 3b 80 22 	xnord  %sp, %g2, %g1
    1710:	82 3b 80 23 	xnord  %sp, %g3, %g1
    1714:	82 3b 80 24 	xnord  %sp, %g4, %g1
    1718:	82 3b 80 25 	xnord  %sp, %g5, %g1
    171c:	82 3b 80 26 	xnord  %sp, %g6, %g1
    1720:	82 3b 80 27 	xnord  %sp, %g7, %g1
    1724:	82 3b 80 28 	xnord  %sp, %o0, %g1
    1728:	82 3b 80 29 	xnord  %sp, %o1, %g1
    172c:	82 3b 80 2a 	xnord  %sp, %o2, %g1
    1730:	82 3b 80 2b 	xnord  %sp, %o3, %g1
    1734:	82 3b 80 2c 	xnord  %sp, %o4, %g1
    1738:	82 3b 80 2d 	xnord  %sp, %o5, %g1
    173c:	82 3b 80 2e 	xnord  %sp, %sp, %g1
    1740:	82 3b 80 2f 	xnord  %sp, %o7, %g1
    1744:	82 3b 80 30 	xnord  %sp, %l0, %g1
    1748:	82 3b 80 31 	xnord  %sp, %l1, %g1
    174c:	82 3b 80 32 	xnord  %sp, %l2, %g1
    1750:	82 3b 80 33 	xnord  %sp, %l3, %g1
    1754:	82 3b 80 34 	xnord  %sp, %l4, %g1
    1758:	82 3b 80 35 	xnord  %sp, %l5, %g1
    175c:	82 3b 80 36 	xnord  %sp, %l6, %g1
    1760:	82 3b 80 37 	xnord  %sp, %l7, %g1
    1764:	82 3b 80 38 	xnord  %sp, %i0, %g1
    1768:	82 3b 80 39 	xnord  %sp, %i1, %g1
    176c:	82 3b 80 3a 	xnord  %sp, %i2, %g1
    1770:	82 3b 80 3b 	xnord  %sp, %i3, %g1
    1774:	82 3b 80 3c 	xnord  %sp, %i4, %g1
    1778:	82 3b 80 3d 	xnord  %sp, %i5, %g1
    177c:	82 3b 80 3e 	xnord  %sp, %fp, %g1
    1780:	82 3b 80 3f 	xnord  %sp, %i7, %g1
    1784:	82 3b c0 20 	xnord  %o7, %g0, %g1
    1788:	82 3b c0 21 	xnord  %o7, %g1, %g1
    178c:	82 3b c0 22 	xnord  %o7, %g2, %g1
    1790:	82 3b c0 23 	xnord  %o7, %g3, %g1
    1794:	82 3b c0 24 	xnord  %o7, %g4, %g1
    1798:	82 3b c0 25 	xnord  %o7, %g5, %g1
    179c:	82 3b c0 26 	xnord  %o7, %g6, %g1
    17a0:	82 3b c0 27 	xnord  %o7, %g7, %g1
    17a4:	82 3b c0 28 	xnord  %o7, %o0, %g1
    17a8:	82 3b c0 29 	xnord  %o7, %o1, %g1
    17ac:	82 3b c0 2a 	xnord  %o7, %o2, %g1
    17b0:	82 3b c0 2b 	xnord  %o7, %o3, %g1
    17b4:	82 3b c0 2c 	xnord  %o7, %o4, %g1
    17b8:	82 3b c0 2d 	xnord  %o7, %o5, %g1
    17bc:	82 3b c0 2e 	xnord  %o7, %sp, %g1
    17c0:	82 3b c0 2f 	xnord  %o7, %o7, %g1
    17c4:	82 3b c0 30 	xnord  %o7, %l0, %g1
    17c8:	82 3b c0 31 	xnord  %o7, %l1, %g1
    17cc:	82 3b c0 32 	xnord  %o7, %l2, %g1
    17d0:	82 3b c0 33 	xnord  %o7, %l3, %g1
    17d4:	82 3b c0 34 	xnord  %o7, %l4, %g1
    17d8:	82 3b c0 35 	xnord  %o7, %l5, %g1
    17dc:	82 3b c0 36 	xnord  %o7, %l6, %g1
    17e0:	82 3b c0 37 	xnord  %o7, %l7, %g1
    17e4:	82 3b c0 38 	xnord  %o7, %i0, %g1
    17e8:	82 3b c0 39 	xnord  %o7, %i1, %g1
    17ec:	82 3b c0 3a 	xnord  %o7, %i2, %g1
    17f0:	82 3b c0 3b 	xnord  %o7, %i3, %g1
    17f4:	82 3b c0 3c 	xnord  %o7, %i4, %g1
    17f8:	82 3b c0 3d 	xnord  %o7, %i5, %g1
    17fc:	82 3b c0 3e 	xnord  %o7, %fp, %g1
    1800:	82 3b c0 3f 	xnord  %o7, %i7, %g1
    1804:	82 3c 00 20 	xnord  %l0, %g0, %g1
    1808:	82 3c 00 21 	xnord  %l0, %g1, %g1
    180c:	82 3c 00 22 	xnord  %l0, %g2, %g1
    1810:	82 3c 00 23 	xnord  %l0, %g3, %g1
    1814:	82 3c 00 24 	xnord  %l0, %g4, %g1
    1818:	82 3c 00 25 	xnord  %l0, %g5, %g1
    181c:	82 3c 00 26 	xnord  %l0, %g6, %g1
    1820:	82 3c 00 27 	xnord  %l0, %g7, %g1
    1824:	82 3c 00 28 	xnord  %l0, %o0, %g1
    1828:	82 3c 00 29 	xnord  %l0, %o1, %g1
    182c:	82 3c 00 2a 	xnord  %l0, %o2, %g1
    1830:	82 3c 00 2b 	xnord  %l0, %o3, %g1
    1834:	82 3c 00 2c 	xnord  %l0, %o4, %g1
    1838:	82 3c 00 2d 	xnord  %l0, %o5, %g1
    183c:	82 3c 00 2e 	xnord  %l0, %sp, %g1
    1840:	82 3c 00 2f 	xnord  %l0, %o7, %g1
    1844:	82 3c 00 30 	xnord  %l0, %l0, %g1
    1848:	82 3c 00 31 	xnord  %l0, %l1, %g1
    184c:	82 3c 00 32 	xnord  %l0, %l2, %g1
    1850:	82 3c 00 33 	xnord  %l0, %l3, %g1
    1854:	82 3c 00 34 	xnord  %l0, %l4, %g1
    1858:	82 3c 00 35 	xnord  %l0, %l5, %g1
    185c:	82 3c 00 36 	xnord  %l0, %l6, %g1
    1860:	82 3c 00 37 	xnord  %l0, %l7, %g1
    1864:	82 3c 00 38 	xnord  %l0, %i0, %g1
    1868:	82 3c 00 39 	xnord  %l0, %i1, %g1
    186c:	82 3c 00 3a 	xnord  %l0, %i2, %g1
    1870:	82 3c 00 3b 	xnord  %l0, %i3, %g1
    1874:	82 3c 00 3c 	xnord  %l0, %i4, %g1
    1878:	82 3c 00 3d 	xnord  %l0, %i5, %g1
    187c:	82 3c 00 3e 	xnord  %l0, %fp, %g1
    1880:	82 3c 00 3f 	xnord  %l0, %i7, %g1
    1884:	82 3c 40 20 	xnord  %l1, %g0, %g1
    1888:	82 3c 40 21 	xnord  %l1, %g1, %g1
    188c:	82 3c 40 22 	xnord  %l1, %g2, %g1
    1890:	82 3c 40 23 	xnord  %l1, %g3, %g1
    1894:	82 3c 40 24 	xnord  %l1, %g4, %g1
    1898:	82 3c 40 25 	xnord  %l1, %g5, %g1
    189c:	82 3c 40 26 	xnord  %l1, %g6, %g1
    18a0:	82 3c 40 27 	xnord  %l1, %g7, %g1
    18a4:	82 3c 40 28 	xnord  %l1, %o0, %g1
    18a8:	82 3c 40 29 	xnord  %l1, %o1, %g1
    18ac:	82 3c 40 2a 	xnord  %l1, %o2, %g1
    18b0:	82 3c 40 2b 	xnord  %l1, %o3, %g1
    18b4:	82 3c 40 2c 	xnord  %l1, %o4, %g1
    18b8:	82 3c 40 2d 	xnord  %l1, %o5, %g1
    18bc:	82 3c 40 2e 	xnord  %l1, %sp, %g1
    18c0:	82 3c 40 2f 	xnord  %l1, %o7, %g1
    18c4:	82 3c 40 30 	xnord  %l1, %l0, %g1
    18c8:	82 3c 40 31 	xnord  %l1, %l1, %g1
    18cc:	82 3c 40 32 	xnord  %l1, %l2, %g1
    18d0:	82 3c 40 33 	xnord  %l1, %l3, %g1
    18d4:	82 3c 40 34 	xnord  %l1, %l4, %g1
    18d8:	82 3c 40 35 	xnord  %l1, %l5, %g1
    18dc:	82 3c 40 36 	xnord  %l1, %l6, %g1
    18e0:	82 3c 40 37 	xnord  %l1, %l7, %g1
    18e4:	82 3c 40 38 	xnord  %l1, %i0, %g1
    18e8:	82 3c 40 39 	xnord  %l1, %i1, %g1
    18ec:	82 3c 40 3a 	xnord  %l1, %i2, %g1
    18f0:	82 3c 40 3b 	xnord  %l1, %i3, %g1
    18f4:	82 3c 40 3c 	xnord  %l1, %i4, %g1
    18f8:	82 3c 40 3d 	xnord  %l1, %i5, %g1
    18fc:	82 3c 40 3e 	xnord  %l1, %fp, %g1
    1900:	82 3c 40 3f 	xnord  %l1, %i7, %g1
    1904:	82 3c 80 20 	xnord  %l2, %g0, %g1
    1908:	82 3c 80 21 	xnord  %l2, %g1, %g1
    190c:	82 3c 80 22 	xnord  %l2, %g2, %g1
    1910:	82 3c 80 23 	xnord  %l2, %g3, %g1
    1914:	82 3c 80 24 	xnord  %l2, %g4, %g1
    1918:	82 3c 80 25 	xnord  %l2, %g5, %g1
    191c:	82 3c 80 26 	xnord  %l2, %g6, %g1
    1920:	82 3c 80 27 	xnord  %l2, %g7, %g1
    1924:	82 3c 80 28 	xnord  %l2, %o0, %g1
    1928:	82 3c 80 29 	xnord  %l2, %o1, %g1
    192c:	82 3c 80 2a 	xnord  %l2, %o2, %g1
    1930:	82 3c 80 2b 	xnord  %l2, %o3, %g1
    1934:	82 3c 80 2c 	xnord  %l2, %o4, %g1
    1938:	82 3c 80 2d 	xnord  %l2, %o5, %g1
    193c:	82 3c 80 2e 	xnord  %l2, %sp, %g1
    1940:	82 3c 80 2f 	xnord  %l2, %o7, %g1
    1944:	82 3c 80 30 	xnord  %l2, %l0, %g1
    1948:	82 3c 80 31 	xnord  %l2, %l1, %g1
    194c:	82 3c 80 32 	xnord  %l2, %l2, %g1
    1950:	82 3c 80 33 	xnord  %l2, %l3, %g1
    1954:	82 3c 80 34 	xnord  %l2, %l4, %g1
    1958:	82 3c 80 35 	xnord  %l2, %l5, %g1
    195c:	82 3c 80 36 	xnord  %l2, %l6, %g1
    1960:	82 3c 80 37 	xnord  %l2, %l7, %g1
    1964:	82 3c 80 38 	xnord  %l2, %i0, %g1
    1968:	82 3c 80 39 	xnord  %l2, %i1, %g1
    196c:	82 3c 80 3a 	xnord  %l2, %i2, %g1
    1970:	82 3c 80 3b 	xnord  %l2, %i3, %g1
    1974:	82 3c 80 3c 	xnord  %l2, %i4, %g1
    1978:	82 3c 80 3d 	xnord  %l2, %i5, %g1
    197c:	82 3c 80 3e 	xnord  %l2, %fp, %g1
    1980:	82 3c 80 3f 	xnord  %l2, %i7, %g1
    1984:	82 3c c0 20 	xnord  %l3, %g0, %g1
    1988:	82 3c c0 21 	xnord  %l3, %g1, %g1
    198c:	82 3c c0 22 	xnord  %l3, %g2, %g1
    1990:	82 3c c0 23 	xnord  %l3, %g3, %g1
    1994:	82 3c c0 24 	xnord  %l3, %g4, %g1
    1998:	82 3c c0 25 	xnord  %l3, %g5, %g1
    199c:	82 3c c0 26 	xnord  %l3, %g6, %g1
    19a0:	82 3c c0 27 	xnord  %l3, %g7, %g1
    19a4:	82 3c c0 28 	xnord  %l3, %o0, %g1
    19a8:	82 3c c0 29 	xnord  %l3, %o1, %g1
    19ac:	82 3c c0 2a 	xnord  %l3, %o2, %g1
    19b0:	82 3c c0 2b 	xnord  %l3, %o3, %g1
    19b4:	82 3c c0 2c 	xnord  %l3, %o4, %g1
    19b8:	82 3c c0 2d 	xnord  %l3, %o5, %g1
    19bc:	82 3c c0 2e 	xnord  %l3, %sp, %g1
    19c0:	82 3c c0 2f 	xnord  %l3, %o7, %g1
    19c4:	82 3c c0 30 	xnord  %l3, %l0, %g1
    19c8:	82 3c c0 31 	xnord  %l3, %l1, %g1
    19cc:	82 3c c0 32 	xnord  %l3, %l2, %g1
    19d0:	82 3c c0 33 	xnord  %l3, %l3, %g1
    19d4:	82 3c c0 34 	xnord  %l3, %l4, %g1
    19d8:	82 3c c0 35 	xnord  %l3, %l5, %g1
    19dc:	82 3c c0 36 	xnord  %l3, %l6, %g1
    19e0:	82 3c c0 37 	xnord  %l3, %l7, %g1
    19e4:	82 3c c0 38 	xnord  %l3, %i0, %g1
    19e8:	82 3c c0 39 	xnord  %l3, %i1, %g1
    19ec:	82 3c c0 3a 	xnord  %l3, %i2, %g1
    19f0:	82 3c c0 3b 	xnord  %l3, %i3, %g1
    19f4:	82 3c c0 3c 	xnord  %l3, %i4, %g1
    19f8:	82 3c c0 3d 	xnord  %l3, %i5, %g1
    19fc:	82 3c c0 3e 	xnord  %l3, %fp, %g1
    1a00:	82 3c c0 3f 	xnord  %l3, %i7, %g1
    1a04:	82 3d 00 20 	xnord  %l4, %g0, %g1
    1a08:	82 3d 00 21 	xnord  %l4, %g1, %g1
    1a0c:	82 3d 00 22 	xnord  %l4, %g2, %g1
    1a10:	82 3d 00 23 	xnord  %l4, %g3, %g1
    1a14:	82 3d 00 24 	xnord  %l4, %g4, %g1
    1a18:	82 3d 00 25 	xnord  %l4, %g5, %g1
    1a1c:	82 3d 00 26 	xnord  %l4, %g6, %g1
    1a20:	82 3d 00 27 	xnord  %l4, %g7, %g1
    1a24:	82 3d 00 28 	xnord  %l4, %o0, %g1
    1a28:	82 3d 00 29 	xnord  %l4, %o1, %g1
    1a2c:	82 3d 00 2a 	xnord  %l4, %o2, %g1
    1a30:	82 3d 00 2b 	xnord  %l4, %o3, %g1
    1a34:	82 3d 00 2c 	xnord  %l4, %o4, %g1
    1a38:	82 3d 00 2d 	xnord  %l4, %o5, %g1
    1a3c:	82 3d 00 2e 	xnord  %l4, %sp, %g1
    1a40:	82 3d 00 2f 	xnord  %l4, %o7, %g1
    1a44:	82 3d 00 30 	xnord  %l4, %l0, %g1
    1a48:	82 3d 00 31 	xnord  %l4, %l1, %g1
    1a4c:	82 3d 00 32 	xnord  %l4, %l2, %g1
    1a50:	82 3d 00 33 	xnord  %l4, %l3, %g1
    1a54:	82 3d 00 34 	xnord  %l4, %l4, %g1
    1a58:	82 3d 00 35 	xnord  %l4, %l5, %g1
    1a5c:	82 3d 00 36 	xnord  %l4, %l6, %g1
    1a60:	82 3d 00 37 	xnord  %l4, %l7, %g1
    1a64:	82 3d 00 38 	xnord  %l4, %i0, %g1
    1a68:	82 3d 00 39 	xnord  %l4, %i1, %g1
    1a6c:	82 3d 00 3a 	xnord  %l4, %i2, %g1
    1a70:	82 3d 00 3b 	xnord  %l4, %i3, %g1
    1a74:	82 3d 00 3c 	xnord  %l4, %i4, %g1
    1a78:	82 3d 00 3d 	xnord  %l4, %i5, %g1
    1a7c:	82 3d 00 3e 	xnord  %l4, %fp, %g1
    1a80:	82 3d 00 3f 	xnord  %l4, %i7, %g1
    1a84:	82 3d 40 20 	xnord  %l5, %g0, %g1
    1a88:	82 3d 40 21 	xnord  %l5, %g1, %g1
    1a8c:	82 3d 40 22 	xnord  %l5, %g2, %g1
    1a90:	82 3d 40 23 	xnord  %l5, %g3, %g1
    1a94:	82 3d 40 24 	xnord  %l5, %g4, %g1
    1a98:	82 3d 40 25 	xnord  %l5, %g5, %g1
    1a9c:	82 3d 40 26 	xnord  %l5, %g6, %g1
    1aa0:	82 3d 40 27 	xnord  %l5, %g7, %g1
    1aa4:	82 3d 40 28 	xnord  %l5, %o0, %g1
    1aa8:	82 3d 40 29 	xnord  %l5, %o1, %g1
    1aac:	82 3d 40 2a 	xnord  %l5, %o2, %g1
    1ab0:	82 3d 40 2b 	xnord  %l5, %o3, %g1
    1ab4:	82 3d 40 2c 	xnord  %l5, %o4, %g1
    1ab8:	82 3d 40 2d 	xnord  %l5, %o5, %g1
    1abc:	82 3d 40 2e 	xnord  %l5, %sp, %g1
    1ac0:	82 3d 40 2f 	xnord  %l5, %o7, %g1
    1ac4:	82 3d 40 30 	xnord  %l5, %l0, %g1
    1ac8:	82 3d 40 31 	xnord  %l5, %l1, %g1
    1acc:	82 3d 40 32 	xnord  %l5, %l2, %g1
    1ad0:	82 3d 40 33 	xnord  %l5, %l3, %g1
    1ad4:	82 3d 40 34 	xnord  %l5, %l4, %g1
    1ad8:	82 3d 40 35 	xnord  %l5, %l5, %g1
    1adc:	82 3d 40 36 	xnord  %l5, %l6, %g1
    1ae0:	82 3d 40 37 	xnord  %l5, %l7, %g1
    1ae4:	82 3d 40 38 	xnord  %l5, %i0, %g1
    1ae8:	82 3d 40 39 	xnord  %l5, %i1, %g1
    1aec:	82 3d 40 3a 	xnord  %l5, %i2, %g1
    1af0:	82 3d 40 3b 	xnord  %l5, %i3, %g1
    1af4:	82 3d 40 3c 	xnord  %l5, %i4, %g1
    1af8:	82 3d 40 3d 	xnord  %l5, %i5, %g1
    1afc:	82 3d 40 3e 	xnord  %l5, %fp, %g1
    1b00:	82 3d 40 3f 	xnord  %l5, %i7, %g1
    1b04:	82 3d 80 20 	xnord  %l6, %g0, %g1
    1b08:	82 3d 80 21 	xnord  %l6, %g1, %g1
    1b0c:	82 3d 80 22 	xnord  %l6, %g2, %g1
    1b10:	82 3d 80 23 	xnord  %l6, %g3, %g1
    1b14:	82 3d 80 24 	xnord  %l6, %g4, %g1
    1b18:	82 3d 80 25 	xnord  %l6, %g5, %g1
    1b1c:	82 3d 80 26 	xnord  %l6, %g6, %g1
    1b20:	82 3d 80 27 	xnord  %l6, %g7, %g1
    1b24:	82 3d 80 28 	xnord  %l6, %o0, %g1
    1b28:	82 3d 80 29 	xnord  %l6, %o1, %g1
    1b2c:	82 3d 80 2a 	xnord  %l6, %o2, %g1
    1b30:	82 3d 80 2b 	xnord  %l6, %o3, %g1
    1b34:	82 3d 80 2c 	xnord  %l6, %o4, %g1
    1b38:	82 3d 80 2d 	xnord  %l6, %o5, %g1
    1b3c:	82 3d 80 2e 	xnord  %l6, %sp, %g1
    1b40:	82 3d 80 2f 	xnord  %l6, %o7, %g1
    1b44:	82 3d 80 30 	xnord  %l6, %l0, %g1
    1b48:	82 3d 80 31 	xnord  %l6, %l1, %g1
    1b4c:	82 3d 80 32 	xnord  %l6, %l2, %g1
    1b50:	82 3d 80 33 	xnord  %l6, %l3, %g1
    1b54:	82 3d 80 34 	xnord  %l6, %l4, %g1
    1b58:	82 3d 80 35 	xnord  %l6, %l5, %g1
    1b5c:	82 3d 80 36 	xnord  %l6, %l6, %g1
    1b60:	82 3d 80 37 	xnord  %l6, %l7, %g1
    1b64:	82 3d 80 38 	xnord  %l6, %i0, %g1
    1b68:	82 3d 80 39 	xnord  %l6, %i1, %g1
    1b6c:	82 3d 80 3a 	xnord  %l6, %i2, %g1
    1b70:	82 3d 80 3b 	xnord  %l6, %i3, %g1
    1b74:	82 3d 80 3c 	xnord  %l6, %i4, %g1
    1b78:	82 3d 80 3d 	xnord  %l6, %i5, %g1
    1b7c:	82 3d 80 3e 	xnord  %l6, %fp, %g1
    1b80:	82 3d 80 3f 	xnord  %l6, %i7, %g1
    1b84:	82 3d c0 20 	xnord  %l7, %g0, %g1
    1b88:	82 3d c0 21 	xnord  %l7, %g1, %g1
    1b8c:	82 3d c0 22 	xnord  %l7, %g2, %g1
    1b90:	82 3d c0 23 	xnord  %l7, %g3, %g1
    1b94:	82 3d c0 24 	xnord  %l7, %g4, %g1
    1b98:	82 3d c0 25 	xnord  %l7, %g5, %g1
    1b9c:	82 3d c0 26 	xnord  %l7, %g6, %g1
    1ba0:	82 3d c0 27 	xnord  %l7, %g7, %g1
    1ba4:	82 3d c0 28 	xnord  %l7, %o0, %g1
    1ba8:	82 3d c0 29 	xnord  %l7, %o1, %g1
    1bac:	82 3d c0 2a 	xnord  %l7, %o2, %g1
    1bb0:	82 3d c0 2b 	xnord  %l7, %o3, %g1
    1bb4:	82 3d c0 2c 	xnord  %l7, %o4, %g1
    1bb8:	82 3d c0 2d 	xnord  %l7, %o5, %g1
    1bbc:	82 3d c0 2e 	xnord  %l7, %sp, %g1
    1bc0:	82 3d c0 2f 	xnord  %l7, %o7, %g1
    1bc4:	82 3d c0 30 	xnord  %l7, %l0, %g1
    1bc8:	82 3d c0 31 	xnord  %l7, %l1, %g1
    1bcc:	82 3d c0 32 	xnord  %l7, %l2, %g1
    1bd0:	82 3d c0 33 	xnord  %l7, %l3, %g1
    1bd4:	82 3d c0 34 	xnord  %l7, %l4, %g1
    1bd8:	82 3d c0 35 	xnord  %l7, %l5, %g1
    1bdc:	82 3d c0 36 	xnord  %l7, %l6, %g1
    1be0:	82 3d c0 37 	xnord  %l7, %l7, %g1
    1be4:	82 3d c0 38 	xnord  %l7, %i0, %g1
    1be8:	82 3d c0 39 	xnord  %l7, %i1, %g1
    1bec:	82 3d c0 3a 	xnord  %l7, %i2, %g1
    1bf0:	82 3d c0 3b 	xnord  %l7, %i3, %g1
    1bf4:	82 3d c0 3c 	xnord  %l7, %i4, %g1
    1bf8:	82 3d c0 3d 	xnord  %l7, %i5, %g1
    1bfc:	82 3d c0 3e 	xnord  %l7, %fp, %g1
    1c00:	82 3d c0 3f 	xnord  %l7, %i7, %g1
    1c04:	82 3e 00 20 	xnord  %i0, %g0, %g1
    1c08:	82 3e 00 21 	xnord  %i0, %g1, %g1
    1c0c:	82 3e 00 22 	xnord  %i0, %g2, %g1
    1c10:	82 3e 00 23 	xnord  %i0, %g3, %g1
    1c14:	82 3e 00 24 	xnord  %i0, %g4, %g1
    1c18:	82 3e 00 25 	xnord  %i0, %g5, %g1
    1c1c:	82 3e 00 26 	xnord  %i0, %g6, %g1
    1c20:	82 3e 00 27 	xnord  %i0, %g7, %g1
    1c24:	82 3e 00 28 	xnord  %i0, %o0, %g1
    1c28:	82 3e 00 29 	xnord  %i0, %o1, %g1
    1c2c:	82 3e 00 2a 	xnord  %i0, %o2, %g1
    1c30:	82 3e 00 2b 	xnord  %i0, %o3, %g1
    1c34:	82 3e 00 2c 	xnord  %i0, %o4, %g1
    1c38:	82 3e 00 2d 	xnord  %i0, %o5, %g1
    1c3c:	82 3e 00 2e 	xnord  %i0, %sp, %g1
    1c40:	82 3e 00 2f 	xnord  %i0, %o7, %g1
    1c44:	82 3e 00 30 	xnord  %i0, %l0, %g1
    1c48:	82 3e 00 31 	xnord  %i0, %l1, %g1
    1c4c:	82 3e 00 32 	xnord  %i0, %l2, %g1
    1c50:	82 3e 00 33 	xnord  %i0, %l3, %g1
    1c54:	82 3e 00 34 	xnord  %i0, %l4, %g1
    1c58:	82 3e 00 35 	xnord  %i0, %l5, %g1
    1c5c:	82 3e 00 36 	xnord  %i0, %l6, %g1
    1c60:	82 3e 00 37 	xnord  %i0, %l7, %g1
    1c64:	82 3e 00 38 	xnord  %i0, %i0, %g1
    1c68:	82 3e 00 39 	xnord  %i0, %i1, %g1
    1c6c:	82 3e 00 3a 	xnord  %i0, %i2, %g1
    1c70:	82 3e 00 3b 	xnord  %i0, %i3, %g1
    1c74:	82 3e 00 3c 	xnord  %i0, %i4, %g1
    1c78:	82 3e 00 3d 	xnord  %i0, %i5, %g1
    1c7c:	82 3e 00 3e 	xnord  %i0, %fp, %g1
    1c80:	82 3e 00 3f 	xnord  %i0, %i7, %g1
    1c84:	82 3e 40 20 	xnord  %i1, %g0, %g1
    1c88:	82 3e 40 21 	xnord  %i1, %g1, %g1
    1c8c:	82 3e 40 22 	xnord  %i1, %g2, %g1
    1c90:	82 3e 40 23 	xnord  %i1, %g3, %g1
    1c94:	82 3e 40 24 	xnord  %i1, %g4, %g1
    1c98:	82 3e 40 25 	xnord  %i1, %g5, %g1
    1c9c:	82 3e 40 26 	xnord  %i1, %g6, %g1
    1ca0:	82 3e 40 27 	xnord  %i1, %g7, %g1
    1ca4:	82 3e 40 28 	xnord  %i1, %o0, %g1
    1ca8:	82 3e 40 29 	xnord  %i1, %o1, %g1
    1cac:	82 3e 40 2a 	xnord  %i1, %o2, %g1
    1cb0:	82 3e 40 2b 	xnord  %i1, %o3, %g1
    1cb4:	82 3e 40 2c 	xnord  %i1, %o4, %g1
    1cb8:	82 3e 40 2d 	xnord  %i1, %o5, %g1
    1cbc:	82 3e 40 2e 	xnord  %i1, %sp, %g1
    1cc0:	82 3e 40 2f 	xnord  %i1, %o7, %g1
    1cc4:	82 3e 40 30 	xnord  %i1, %l0, %g1
    1cc8:	82 3e 40 31 	xnord  %i1, %l1, %g1
    1ccc:	82 3e 40 32 	xnord  %i1, %l2, %g1
    1cd0:	82 3e 40 33 	xnord  %i1, %l3, %g1
    1cd4:	82 3e 40 34 	xnord  %i1, %l4, %g1
    1cd8:	82 3e 40 35 	xnord  %i1, %l5, %g1
    1cdc:	82 3e 40 36 	xnord  %i1, %l6, %g1
    1ce0:	82 3e 40 37 	xnord  %i1, %l7, %g1
    1ce4:	82 3e 40 38 	xnord  %i1, %i0, %g1
    1ce8:	82 3e 40 39 	xnord  %i1, %i1, %g1
    1cec:	82 3e 40 3a 	xnord  %i1, %i2, %g1
    1cf0:	82 3e 40 3b 	xnord  %i1, %i3, %g1
    1cf4:	82 3e 40 3c 	xnord  %i1, %i4, %g1
    1cf8:	82 3e 40 3d 	xnord  %i1, %i5, %g1
    1cfc:	82 3e 40 3e 	xnord  %i1, %fp, %g1
    1d00:	82 3e 40 3f 	xnord  %i1, %i7, %g1
    1d04:	82 3e 80 20 	xnord  %i2, %g0, %g1
    1d08:	82 3e 80 21 	xnord  %i2, %g1, %g1
    1d0c:	82 3e 80 22 	xnord  %i2, %g2, %g1
    1d10:	82 3e 80 23 	xnord  %i2, %g3, %g1
    1d14:	82 3e 80 24 	xnord  %i2, %g4, %g1
    1d18:	82 3e 80 25 	xnord  %i2, %g5, %g1
    1d1c:	82 3e 80 26 	xnord  %i2, %g6, %g1
    1d20:	82 3e 80 27 	xnord  %i2, %g7, %g1
    1d24:	82 3e 80 28 	xnord  %i2, %o0, %g1
    1d28:	82 3e 80 29 	xnord  %i2, %o1, %g1
    1d2c:	82 3e 80 2a 	xnord  %i2, %o2, %g1
    1d30:	82 3e 80 2b 	xnord  %i2, %o3, %g1
    1d34:	82 3e 80 2c 	xnord  %i2, %o4, %g1
    1d38:	82 3e 80 2d 	xnord  %i2, %o5, %g1
    1d3c:	82 3e 80 2e 	xnord  %i2, %sp, %g1
    1d40:	82 3e 80 2f 	xnord  %i2, %o7, %g1
    1d44:	82 3e 80 30 	xnord  %i2, %l0, %g1
    1d48:	82 3e 80 31 	xnord  %i2, %l1, %g1
    1d4c:	82 3e 80 32 	xnord  %i2, %l2, %g1
    1d50:	82 3e 80 33 	xnord  %i2, %l3, %g1
    1d54:	82 3e 80 34 	xnord  %i2, %l4, %g1
    1d58:	82 3e 80 35 	xnord  %i2, %l5, %g1
    1d5c:	82 3e 80 36 	xnord  %i2, %l6, %g1
    1d60:	82 3e 80 37 	xnord  %i2, %l7, %g1
    1d64:	82 3e 80 38 	xnord  %i2, %i0, %g1
    1d68:	82 3e 80 39 	xnord  %i2, %i1, %g1
    1d6c:	82 3e 80 3a 	xnord  %i2, %i2, %g1
    1d70:	82 3e 80 3b 	xnord  %i2, %i3, %g1
    1d74:	82 3e 80 3c 	xnord  %i2, %i4, %g1
    1d78:	82 3e 80 3d 	xnord  %i2, %i5, %g1
    1d7c:	82 3e 80 3e 	xnord  %i2, %fp, %g1
    1d80:	82 3e 80 3f 	xnord  %i2, %i7, %g1
    1d84:	82 3e c0 20 	xnord  %i3, %g0, %g1
    1d88:	82 3e c0 21 	xnord  %i3, %g1, %g1
    1d8c:	82 3e c0 22 	xnord  %i3, %g2, %g1
    1d90:	82 3e c0 23 	xnord  %i3, %g3, %g1
    1d94:	82 3e c0 24 	xnord  %i3, %g4, %g1
    1d98:	82 3e c0 25 	xnord  %i3, %g5, %g1
    1d9c:	82 3e c0 26 	xnord  %i3, %g6, %g1
    1da0:	82 3e c0 27 	xnord  %i3, %g7, %g1
    1da4:	82 3e c0 28 	xnord  %i3, %o0, %g1
    1da8:	82 3e c0 29 	xnord  %i3, %o1, %g1
    1dac:	82 3e c0 2a 	xnord  %i3, %o2, %g1
    1db0:	82 3e c0 2b 	xnord  %i3, %o3, %g1
    1db4:	82 3e c0 2c 	xnord  %i3, %o4, %g1
    1db8:	82 3e c0 2d 	xnord  %i3, %o5, %g1
    1dbc:	82 3e c0 2e 	xnord  %i3, %sp, %g1
    1dc0:	82 3e c0 2f 	xnord  %i3, %o7, %g1
    1dc4:	82 3e c0 30 	xnord  %i3, %l0, %g1
    1dc8:	82 3e c0 31 	xnord  %i3, %l1, %g1
    1dcc:	82 3e c0 32 	xnord  %i3, %l2, %g1
    1dd0:	82 3e c0 33 	xnord  %i3, %l3, %g1
    1dd4:	82 3e c0 34 	xnord  %i3, %l4, %g1
    1dd8:	82 3e c0 35 	xnord  %i3, %l5, %g1
    1ddc:	82 3e c0 36 	xnord  %i3, %l6, %g1
    1de0:	82 3e c0 37 	xnord  %i3, %l7, %g1
    1de4:	82 3e c0 38 	xnord  %i3, %i0, %g1
    1de8:	82 3e c0 39 	xnord  %i3, %i1, %g1
    1dec:	82 3e c0 3a 	xnord  %i3, %i2, %g1
    1df0:	82 3e c0 3b 	xnord  %i3, %i3, %g1
    1df4:	82 3e c0 3c 	xnord  %i3, %i4, %g1
    1df8:	82 3e c0 3d 	xnord  %i3, %i5, %g1
    1dfc:	82 3e c0 3e 	xnord  %i3, %fp, %g1
    1e00:	82 3e c0 3f 	xnord  %i3, %i7, %g1
    1e04:	82 3f 00 20 	xnord  %i4, %g0, %g1
    1e08:	82 3f 00 21 	xnord  %i4, %g1, %g1
    1e0c:	82 3f 00 22 	xnord  %i4, %g2, %g1
    1e10:	82 3f 00 23 	xnord  %i4, %g3, %g1
    1e14:	82 3f 00 24 	xnord  %i4, %g4, %g1
    1e18:	82 3f 00 25 	xnord  %i4, %g5, %g1
    1e1c:	82 3f 00 26 	xnord  %i4, %g6, %g1
    1e20:	82 3f 00 27 	xnord  %i4, %g7, %g1
    1e24:	82 3f 00 28 	xnord  %i4, %o0, %g1
    1e28:	82 3f 00 29 	xnord  %i4, %o1, %g1
    1e2c:	82 3f 00 2a 	xnord  %i4, %o2, %g1
    1e30:	82 3f 00 2b 	xnord  %i4, %o3, %g1
    1e34:	82 3f 00 2c 	xnord  %i4, %o4, %g1
    1e38:	82 3f 00 2d 	xnord  %i4, %o5, %g1
    1e3c:	82 3f 00 2e 	xnord  %i4, %sp, %g1
    1e40:	82 3f 00 2f 	xnord  %i4, %o7, %g1
    1e44:	82 3f 00 30 	xnord  %i4, %l0, %g1
    1e48:	82 3f 00 31 	xnord  %i4, %l1, %g1
    1e4c:	82 3f 00 32 	xnord  %i4, %l2, %g1
    1e50:	82 3f 00 33 	xnord  %i4, %l3, %g1
    1e54:	82 3f 00 34 	xnord  %i4, %l4, %g1
    1e58:	82 3f 00 35 	xnord  %i4, %l5, %g1
    1e5c:	82 3f 00 36 	xnord  %i4, %l6, %g1
    1e60:	82 3f 00 37 	xnord  %i4, %l7, %g1
    1e64:	82 3f 00 38 	xnord  %i4, %i0, %g1
    1e68:	82 3f 00 39 	xnord  %i4, %i1, %g1
    1e6c:	82 3f 00 3a 	xnord  %i4, %i2, %g1
    1e70:	82 3f 00 3b 	xnord  %i4, %i3, %g1
    1e74:	82 3f 00 3c 	xnord  %i4, %i4, %g1
    1e78:	82 3f 00 3d 	xnord  %i4, %i5, %g1
    1e7c:	82 3f 00 3e 	xnord  %i4, %fp, %g1
    1e80:	82 3f 00 3f 	xnord  %i4, %i7, %g1
    1e84:	82 3f 40 20 	xnord  %i5, %g0, %g1
    1e88:	82 3f 40 21 	xnord  %i5, %g1, %g1
    1e8c:	82 3f 40 22 	xnord  %i5, %g2, %g1
    1e90:	82 3f 40 23 	xnord  %i5, %g3, %g1
    1e94:	82 3f 40 24 	xnord  %i5, %g4, %g1
    1e98:	82 3f 40 25 	xnord  %i5, %g5, %g1
    1e9c:	82 3f 40 26 	xnord  %i5, %g6, %g1
    1ea0:	82 3f 40 27 	xnord  %i5, %g7, %g1
    1ea4:	82 3f 40 28 	xnord  %i5, %o0, %g1
    1ea8:	82 3f 40 29 	xnord  %i5, %o1, %g1
    1eac:	82 3f 40 2a 	xnord  %i5, %o2, %g1
    1eb0:	82 3f 40 2b 	xnord  %i5, %o3, %g1
    1eb4:	82 3f 40 2c 	xnord  %i5, %o4, %g1
    1eb8:	82 3f 40 2d 	xnord  %i5, %o5, %g1
    1ebc:	82 3f 40 2e 	xnord  %i5, %sp, %g1
    1ec0:	82 3f 40 2f 	xnord  %i5, %o7, %g1
    1ec4:	82 3f 40 30 	xnord  %i5, %l0, %g1
    1ec8:	82 3f 40 31 	xnord  %i5, %l1, %g1
    1ecc:	82 3f 40 32 	xnord  %i5, %l2, %g1
    1ed0:	82 3f 40 33 	xnord  %i5, %l3, %g1
    1ed4:	82 3f 40 34 	xnord  %i5, %l4, %g1
    1ed8:	82 3f 40 35 	xnord  %i5, %l5, %g1
    1edc:	82 3f 40 36 	xnord  %i5, %l6, %g1
    1ee0:	82 3f 40 37 	xnord  %i5, %l7, %g1
    1ee4:	82 3f 40 38 	xnord  %i5, %i0, %g1
    1ee8:	82 3f 40 39 	xnord  %i5, %i1, %g1
    1eec:	82 3f 40 3a 	xnord  %i5, %i2, %g1
    1ef0:	82 3f 40 3b 	xnord  %i5, %i3, %g1
    1ef4:	82 3f 40 3c 	xnord  %i5, %i4, %g1
    1ef8:	82 3f 40 3d 	xnord  %i5, %i5, %g1
    1efc:	82 3f 40 3e 	xnord  %i5, %fp, %g1
    1f00:	82 3f 40 3f 	xnord  %i5, %i7, %g1
    1f04:	82 3f 80 20 	xnord  %fp, %g0, %g1
    1f08:	82 3f 80 21 	xnord  %fp, %g1, %g1
    1f0c:	82 3f 80 22 	xnord  %fp, %g2, %g1
    1f10:	82 3f 80 23 	xnord  %fp, %g3, %g1
    1f14:	82 3f 80 24 	xnord  %fp, %g4, %g1
    1f18:	82 3f 80 25 	xnord  %fp, %g5, %g1
    1f1c:	82 3f 80 26 	xnord  %fp, %g6, %g1
    1f20:	82 3f 80 27 	xnord  %fp, %g7, %g1
    1f24:	82 3f 80 28 	xnord  %fp, %o0, %g1
    1f28:	82 3f 80 29 	xnord  %fp, %o1, %g1
    1f2c:	82 3f 80 2a 	xnord  %fp, %o2, %g1
    1f30:	82 3f 80 2b 	xnord  %fp, %o3, %g1
    1f34:	82 3f 80 2c 	xnord  %fp, %o4, %g1
    1f38:	82 3f 80 2d 	xnord  %fp, %o5, %g1
    1f3c:	82 3f 80 2e 	xnord  %fp, %sp, %g1
    1f40:	82 3f 80 2f 	xnord  %fp, %o7, %g1
    1f44:	82 3f 80 30 	xnord  %fp, %l0, %g1
    1f48:	82 3f 80 31 	xnord  %fp, %l1, %g1
    1f4c:	82 3f 80 32 	xnord  %fp, %l2, %g1
    1f50:	82 3f 80 33 	xnord  %fp, %l3, %g1
    1f54:	82 3f 80 34 	xnord  %fp, %l4, %g1
    1f58:	82 3f 80 35 	xnord  %fp, %l5, %g1
    1f5c:	82 3f 80 36 	xnord  %fp, %l6, %g1
    1f60:	82 3f 80 37 	xnord  %fp, %l7, %g1
    1f64:	82 3f 80 38 	xnord  %fp, %i0, %g1
    1f68:	82 3f 80 39 	xnord  %fp, %i1, %g1
    1f6c:	82 3f 80 3a 	xnord  %fp, %i2, %g1
    1f70:	82 3f 80 3b 	xnord  %fp, %i3, %g1
    1f74:	82 3f 80 3c 	xnord  %fp, %i4, %g1
    1f78:	82 3f 80 3d 	xnord  %fp, %i5, %g1
    1f7c:	82 3f 80 3e 	xnord  %fp, %fp, %g1
    1f80:	82 3f 80 3f 	xnord  %fp, %i7, %g1
    1f84:	82 3f c0 20 	xnord  %i7, %g0, %g1
    1f88:	82 3f c0 21 	xnord  %i7, %g1, %g1
    1f8c:	82 3f c0 22 	xnord  %i7, %g2, %g1
    1f90:	82 3f c0 23 	xnord  %i7, %g3, %g1
    1f94:	82 3f c0 24 	xnord  %i7, %g4, %g1
    1f98:	82 3f c0 25 	xnord  %i7, %g5, %g1
    1f9c:	82 3f c0 26 	xnord  %i7, %g6, %g1
    1fa0:	82 3f c0 27 	xnord  %i7, %g7, %g1
    1fa4:	82 3f c0 28 	xnord  %i7, %o0, %g1
    1fa8:	82 3f c0 29 	xnord  %i7, %o1, %g1
    1fac:	82 3f c0 2a 	xnord  %i7, %o2, %g1
    1fb0:	82 3f c0 2b 	xnord  %i7, %o3, %g1
    1fb4:	82 3f c0 2c 	xnord  %i7, %o4, %g1
    1fb8:	82 3f c0 2d 	xnord  %i7, %o5, %g1
    1fbc:	82 3f c0 2e 	xnord  %i7, %sp, %g1
    1fc0:	82 3f c0 2f 	xnord  %i7, %o7, %g1
    1fc4:	82 3f c0 30 	xnord  %i7, %l0, %g1
    1fc8:	82 3f c0 31 	xnord  %i7, %l1, %g1
    1fcc:	82 3f c0 32 	xnord  %i7, %l2, %g1
    1fd0:	82 3f c0 33 	xnord  %i7, %l3, %g1
    1fd4:	82 3f c0 34 	xnord  %i7, %l4, %g1
    1fd8:	82 3f c0 35 	xnord  %i7, %l5, %g1
    1fdc:	82 3f c0 36 	xnord  %i7, %l6, %g1
    1fe0:	82 3f c0 37 	xnord  %i7, %l7, %g1
    1fe4:	82 3f c0 38 	xnord  %i7, %i0, %g1
    1fe8:	82 3f c0 39 	xnord  %i7, %i1, %g1
    1fec:	82 3f c0 3a 	xnord  %i7, %i2, %g1
    1ff0:	82 3f c0 3b 	xnord  %i7, %i3, %g1
    1ff4:	82 3f c0 3c 	xnord  %i7, %i4, %g1
    1ff8:	82 3f c0 3d 	xnord  %i7, %i5, %g1
    1ffc:	82 3f c0 3e 	xnord  %i7, %fp, %g1
    2000:	82 3f c0 3f 	xnord  %i7, %i7, %g1
    2004:	84 38 00 20 	xnord  %g0, %g0, %g2
    2008:	84 38 00 21 	xnord  %g0, %g1, %g2
    200c:	84 38 00 22 	xnord  %g0, %g2, %g2
    2010:	84 38 00 23 	xnord  %g0, %g3, %g2
    2014:	84 38 00 24 	xnord  %g0, %g4, %g2
    2018:	84 38 00 25 	xnord  %g0, %g5, %g2
    201c:	84 38 00 26 	xnord  %g0, %g6, %g2
    2020:	84 38 00 27 	xnord  %g0, %g7, %g2
    2024:	84 38 00 28 	xnord  %g0, %o0, %g2
    2028:	84 38 00 29 	xnord  %g0, %o1, %g2
    202c:	84 38 00 2a 	xnord  %g0, %o2, %g2
    2030:	84 38 00 2b 	xnord  %g0, %o3, %g2
    2034:	84 38 00 2c 	xnord  %g0, %o4, %g2
    2038:	84 38 00 2d 	xnord  %g0, %o5, %g2
    203c:	84 38 00 2e 	xnord  %g0, %sp, %g2
    2040:	84 38 00 2f 	xnord  %g0, %o7, %g2
    2044:	84 38 00 30 	xnord  %g0, %l0, %g2
    2048:	84 38 00 31 	xnord  %g0, %l1, %g2
    204c:	84 38 00 32 	xnord  %g0, %l2, %g2
    2050:	84 38 00 33 	xnord  %g0, %l3, %g2
    2054:	84 38 00 34 	xnord  %g0, %l4, %g2
    2058:	84 38 00 35 	xnord  %g0, %l5, %g2
    205c:	84 38 00 36 	xnord  %g0, %l6, %g2
    2060:	84 38 00 37 	xnord  %g0, %l7, %g2
    2064:	84 38 00 38 	xnord  %g0, %i0, %g2
    2068:	84 38 00 39 	xnord  %g0, %i1, %g2
    206c:	84 38 00 3a 	xnord  %g0, %i2, %g2
    2070:	84 38 00 3b 	xnord  %g0, %i3, %g2
    2074:	84 38 00 3c 	xnord  %g0, %i4, %g2
    2078:	84 38 00 3d 	xnord  %g0, %i5, %g2
    207c:	84 38 00 3e 	xnord  %g0, %fp, %g2
    2080:	84 38 00 3f 	xnord  %g0, %i7, %g2
    2084:	84 38 40 20 	xnord  %g1, %g0, %g2
    2088:	84 38 40 21 	xnord  %g1, %g1, %g2
    208c:	84 38 40 22 	xnord  %g1, %g2, %g2
    2090:	84 38 40 23 	xnord  %g1, %g3, %g2
    2094:	84 38 40 24 	xnord  %g1, %g4, %g2
    2098:	84 38 40 25 	xnord  %g1, %g5, %g2
    209c:	84 38 40 26 	xnord  %g1, %g6, %g2
    20a0:	84 38 40 27 	xnord  %g1, %g7, %g2
    20a4:	84 38 40 28 	xnord  %g1, %o0, %g2
    20a8:	84 38 40 29 	xnord  %g1, %o1, %g2
    20ac:	84 38 40 2a 	xnord  %g1, %o2, %g2
    20b0:	84 38 40 2b 	xnord  %g1, %o3, %g2
    20b4:	84 38 40 2c 	xnord  %g1, %o4, %g2
    20b8:	84 38 40 2d 	xnord  %g1, %o5, %g2
    20bc:	84 38 40 2e 	xnord  %g1, %sp, %g2
    20c0:	84 38 40 2f 	xnord  %g1, %o7, %g2
    20c4:	84 38 40 30 	xnord  %g1, %l0, %g2
    20c8:	84 38 40 31 	xnord  %g1, %l1, %g2
    20cc:	84 38 40 32 	xnord  %g1, %l2, %g2
    20d0:	84 38 40 33 	xnord  %g1, %l3, %g2
    20d4:	84 38 40 34 	xnord  %g1, %l4, %g2
    20d8:	84 38 40 35 	xnord  %g1, %l5, %g2
    20dc:	84 38 40 36 	xnord  %g1, %l6, %g2
    20e0:	84 38 40 37 	xnord  %g1, %l7, %g2
    20e4:	84 38 40 38 	xnord  %g1, %i0, %g2
    20e8:	84 38 40 39 	xnord  %g1, %i1, %g2
    20ec:	84 38 40 3a 	xnord  %g1, %i2, %g2
    20f0:	84 38 40 3b 	xnord  %g1, %i3, %g2
    20f4:	84 38 40 3c 	xnord  %g1, %i4, %g2
    20f8:	84 38 40 3d 	xnord  %g1, %i5, %g2
    20fc:	84 38 40 3e 	xnord  %g1, %fp, %g2
    2100:	84 38 40 3f 	xnord  %g1, %i7, %g2
    2104:	84 38 80 20 	xnord  %g2, %g0, %g2
    2108:	84 38 80 21 	xnord  %g2, %g1, %g2
    210c:	84 38 80 22 	xnord  %g2, %g2, %g2
    2110:	84 38 80 23 	xnord  %g2, %g3, %g2
    2114:	84 38 80 24 	xnord  %g2, %g4, %g2
    2118:	84 38 80 25 	xnord  %g2, %g5, %g2
    211c:	84 38 80 26 	xnord  %g2, %g6, %g2
    2120:	84 38 80 27 	xnord  %g2, %g7, %g2
    2124:	84 38 80 28 	xnord  %g2, %o0, %g2
    2128:	84 38 80 29 	xnord  %g2, %o1, %g2
    212c:	84 38 80 2a 	xnord  %g2, %o2, %g2
    2130:	84 38 80 2b 	xnord  %g2, %o3, %g2
    2134:	84 38 80 2c 	xnord  %g2, %o4, %g2
    2138:	84 38 80 2d 	xnord  %g2, %o5, %g2
    213c:	84 38 80 2e 	xnord  %g2, %sp, %g2
    2140:	84 38 80 2f 	xnord  %g2, %o7, %g2
    2144:	84 38 80 30 	xnord  %g2, %l0, %g2
    2148:	84 38 80 31 	xnord  %g2, %l1, %g2
    214c:	84 38 80 32 	xnord  %g2, %l2, %g2
    2150:	84 38 80 33 	xnord  %g2, %l3, %g2
    2154:	84 38 80 34 	xnord  %g2, %l4, %g2
    2158:	84 38 80 35 	xnord  %g2, %l5, %g2
    215c:	84 38 80 36 	xnord  %g2, %l6, %g2
    2160:	84 38 80 37 	xnord  %g2, %l7, %g2
    2164:	84 38 80 38 	xnord  %g2, %i0, %g2
    2168:	84 38 80 39 	xnord  %g2, %i1, %g2
    216c:	84 38 80 3a 	xnord  %g2, %i2, %g2
    2170:	84 38 80 3b 	xnord  %g2, %i3, %g2
    2174:	84 38 80 3c 	xnord  %g2, %i4, %g2
    2178:	84 38 80 3d 	xnord  %g2, %i5, %g2
    217c:	84 38 80 3e 	xnord  %g2, %fp, %g2
    2180:	84 38 80 3f 	xnord  %g2, %i7, %g2
    2184:	84 38 c0 20 	xnord  %g3, %g0, %g2
    2188:	84 38 c0 21 	xnord  %g3, %g1, %g2
    218c:	84 38 c0 22 	xnord  %g3, %g2, %g2
    2190:	84 38 c0 23 	xnord  %g3, %g3, %g2
    2194:	84 38 c0 24 	xnord  %g3, %g4, %g2
    2198:	84 38 c0 25 	xnord  %g3, %g5, %g2
    219c:	84 38 c0 26 	xnord  %g3, %g6, %g2
    21a0:	84 38 c0 27 	xnord  %g3, %g7, %g2
    21a4:	84 38 c0 28 	xnord  %g3, %o0, %g2
    21a8:	84 38 c0 29 	xnord  %g3, %o1, %g2
    21ac:	84 38 c0 2a 	xnord  %g3, %o2, %g2
    21b0:	84 38 c0 2b 	xnord  %g3, %o3, %g2
    21b4:	84 38 c0 2c 	xnord  %g3, %o4, %g2
    21b8:	84 38 c0 2d 	xnord  %g3, %o5, %g2
    21bc:	84 38 c0 2e 	xnord  %g3, %sp, %g2
    21c0:	84 38 c0 2f 	xnord  %g3, %o7, %g2
    21c4:	84 38 c0 30 	xnord  %g3, %l0, %g2
    21c8:	84 38 c0 31 	xnord  %g3, %l1, %g2
    21cc:	84 38 c0 32 	xnord  %g3, %l2, %g2
    21d0:	84 38 c0 33 	xnord  %g3, %l3, %g2
    21d4:	84 38 c0 34 	xnord  %g3, %l4, %g2
    21d8:	84 38 c0 35 	xnord  %g3, %l5, %g2
    21dc:	84 38 c0 36 	xnord  %g3, %l6, %g2
    21e0:	84 38 c0 37 	xnord  %g3, %l7, %g2
    21e4:	84 38 c0 38 	xnord  %g3, %i0, %g2
    21e8:	84 38 c0 39 	xnord  %g3, %i1, %g2
    21ec:	84 38 c0 3a 	xnord  %g3, %i2, %g2
    21f0:	84 38 c0 3b 	xnord  %g3, %i3, %g2
    21f4:	84 38 c0 3c 	xnord  %g3, %i4, %g2
    21f8:	84 38 c0 3d 	xnord  %g3, %i5, %g2
    21fc:	84 38 c0 3e 	xnord  %g3, %fp, %g2
    2200:	84 38 c0 3f 	xnord  %g3, %i7, %g2
    2204:	84 39 00 20 	xnord  %g4, %g0, %g2
    2208:	84 39 00 21 	xnord  %g4, %g1, %g2
    220c:	84 39 00 22 	xnord  %g4, %g2, %g2
    2210:	84 39 00 23 	xnord  %g4, %g3, %g2
    2214:	84 39 00 24 	xnord  %g4, %g4, %g2
    2218:	84 39 00 25 	xnord  %g4, %g5, %g2
    221c:	84 39 00 26 	xnord  %g4, %g6, %g2
    2220:	84 39 00 27 	xnord  %g4, %g7, %g2
    2224:	84 39 00 28 	xnord  %g4, %o0, %g2
    2228:	84 39 00 29 	xnord  %g4, %o1, %g2
    222c:	84 39 00 2a 	xnord  %g4, %o2, %g2
    2230:	84 39 00 2b 	xnord  %g4, %o3, %g2
    2234:	84 39 00 2c 	xnord  %g4, %o4, %g2
    2238:	84 39 00 2d 	xnord  %g4, %o5, %g2
    223c:	84 39 00 2e 	xnord  %g4, %sp, %g2
    2240:	84 39 00 2f 	xnord  %g4, %o7, %g2
    2244:	84 39 00 30 	xnord  %g4, %l0, %g2
    2248:	84 39 00 31 	xnord  %g4, %l1, %g2
    224c:	84 39 00 32 	xnord  %g4, %l2, %g2
    2250:	84 39 00 33 	xnord  %g4, %l3, %g2
    2254:	84 39 00 34 	xnord  %g4, %l4, %g2
    2258:	84 39 00 35 	xnord  %g4, %l5, %g2
    225c:	84 39 00 36 	xnord  %g4, %l6, %g2
    2260:	84 39 00 37 	xnord  %g4, %l7, %g2
    2264:	84 39 00 38 	xnord  %g4, %i0, %g2
    2268:	84 39 00 39 	xnord  %g4, %i1, %g2
    226c:	84 39 00 3a 	xnord  %g4, %i2, %g2
    2270:	84 39 00 3b 	xnord  %g4, %i3, %g2
    2274:	84 39 00 3c 	xnord  %g4, %i4, %g2
    2278:	84 39 00 3d 	xnord  %g4, %i5, %g2
    227c:	84 39 00 3e 	xnord  %g4, %fp, %g2
    2280:	84 39 00 3f 	xnord  %g4, %i7, %g2
    2284:	84 39 40 20 	xnord  %g5, %g0, %g2
    2288:	84 39 40 21 	xnord  %g5, %g1, %g2
    228c:	84 39 40 22 	xnord  %g5, %g2, %g2
    2290:	84 39 40 23 	xnord  %g5, %g3, %g2
    2294:	84 39 40 24 	xnord  %g5, %g4, %g2
    2298:	84 39 40 25 	xnord  %g5, %g5, %g2
    229c:	84 39 40 26 	xnord  %g5, %g6, %g2
    22a0:	84 39 40 27 	xnord  %g5, %g7, %g2
    22a4:	84 39 40 28 	xnord  %g5, %o0, %g2
    22a8:	84 39 40 29 	xnord  %g5, %o1, %g2
    22ac:	84 39 40 2a 	xnord  %g5, %o2, %g2
    22b0:	84 39 40 2b 	xnord  %g5, %o3, %g2
    22b4:	84 39 40 2c 	xnord  %g5, %o4, %g2
    22b8:	84 39 40 2d 	xnord  %g5, %o5, %g2
    22bc:	84 39 40 2e 	xnord  %g5, %sp, %g2
    22c0:	84 39 40 2f 	xnord  %g5, %o7, %g2
    22c4:	84 39 40 30 	xnord  %g5, %l0, %g2
    22c8:	84 39 40 31 	xnord  %g5, %l1, %g2
    22cc:	84 39 40 32 	xnord  %g5, %l2, %g2
    22d0:	84 39 40 33 	xnord  %g5, %l3, %g2
    22d4:	84 39 40 34 	xnord  %g5, %l4, %g2
    22d8:	84 39 40 35 	xnord  %g5, %l5, %g2
    22dc:	84 39 40 36 	xnord  %g5, %l6, %g2
    22e0:	84 39 40 37 	xnord  %g5, %l7, %g2
    22e4:	84 39 40 38 	xnord  %g5, %i0, %g2
    22e8:	84 39 40 39 	xnord  %g5, %i1, %g2
    22ec:	84 39 40 3a 	xnord  %g5, %i2, %g2
    22f0:	84 39 40 3b 	xnord  %g5, %i3, %g2
    22f4:	84 39 40 3c 	xnord  %g5, %i4, %g2
    22f8:	84 39 40 3d 	xnord  %g5, %i5, %g2
    22fc:	84 39 40 3e 	xnord  %g5, %fp, %g2
    2300:	84 39 40 3f 	xnord  %g5, %i7, %g2
    2304:	84 39 80 20 	xnord  %g6, %g0, %g2
    2308:	84 39 80 21 	xnord  %g6, %g1, %g2
    230c:	84 39 80 22 	xnord  %g6, %g2, %g2
    2310:	84 39 80 23 	xnord  %g6, %g3, %g2
    2314:	84 39 80 24 	xnord  %g6, %g4, %g2
    2318:	84 39 80 25 	xnord  %g6, %g5, %g2
    231c:	84 39 80 26 	xnord  %g6, %g6, %g2
    2320:	84 39 80 27 	xnord  %g6, %g7, %g2
    2324:	84 39 80 28 	xnord  %g6, %o0, %g2
    2328:	84 39 80 29 	xnord  %g6, %o1, %g2
    232c:	84 39 80 2a 	xnord  %g6, %o2, %g2
    2330:	84 39 80 2b 	xnord  %g6, %o3, %g2
    2334:	84 39 80 2c 	xnord  %g6, %o4, %g2
    2338:	84 39 80 2d 	xnord  %g6, %o5, %g2
    233c:	84 39 80 2e 	xnord  %g6, %sp, %g2
    2340:	84 39 80 2f 	xnord  %g6, %o7, %g2
    2344:	84 39 80 30 	xnord  %g6, %l0, %g2
    2348:	84 39 80 31 	xnord  %g6, %l1, %g2
    234c:	84 39 80 32 	xnord  %g6, %l2, %g2
    2350:	84 39 80 33 	xnord  %g6, %l3, %g2
    2354:	84 39 80 34 	xnord  %g6, %l4, %g2
    2358:	84 39 80 35 	xnord  %g6, %l5, %g2
    235c:	84 39 80 36 	xnord  %g6, %l6, %g2
    2360:	84 39 80 37 	xnord  %g6, %l7, %g2
    2364:	84 39 80 38 	xnord  %g6, %i0, %g2
    2368:	84 39 80 39 	xnord  %g6, %i1, %g2
    236c:	84 39 80 3a 	xnord  %g6, %i2, %g2
    2370:	84 39 80 3b 	xnord  %g6, %i3, %g2
    2374:	84 39 80 3c 	xnord  %g6, %i4, %g2
    2378:	84 39 80 3d 	xnord  %g6, %i5, %g2
    237c:	84 39 80 3e 	xnord  %g6, %fp, %g2
    2380:	84 39 80 3f 	xnord  %g6, %i7, %g2
    2384:	84 39 c0 20 	xnord  %g7, %g0, %g2
    2388:	84 39 c0 21 	xnord  %g7, %g1, %g2
    238c:	84 39 c0 22 	xnord  %g7, %g2, %g2
    2390:	84 39 c0 23 	xnord  %g7, %g3, %g2
    2394:	84 39 c0 24 	xnord  %g7, %g4, %g2
    2398:	84 39 c0 25 	xnord  %g7, %g5, %g2
    239c:	84 39 c0 26 	xnord  %g7, %g6, %g2
    23a0:	84 39 c0 27 	xnord  %g7, %g7, %g2
    23a4:	84 39 c0 28 	xnord  %g7, %o0, %g2
    23a8:	84 39 c0 29 	xnord  %g7, %o1, %g2
    23ac:	84 39 c0 2a 	xnord  %g7, %o2, %g2
    23b0:	84 39 c0 2b 	xnord  %g7, %o3, %g2
    23b4:	84 39 c0 2c 	xnord  %g7, %o4, %g2
    23b8:	84 39 c0 2d 	xnord  %g7, %o5, %g2
    23bc:	84 39 c0 2e 	xnord  %g7, %sp, %g2
    23c0:	84 39 c0 2f 	xnord  %g7, %o7, %g2
    23c4:	84 39 c0 30 	xnord  %g7, %l0, %g2
    23c8:	84 39 c0 31 	xnord  %g7, %l1, %g2
    23cc:	84 39 c0 32 	xnord  %g7, %l2, %g2
    23d0:	84 39 c0 33 	xnord  %g7, %l3, %g2
    23d4:	84 39 c0 34 	xnord  %g7, %l4, %g2
    23d8:	84 39 c0 35 	xnord  %g7, %l5, %g2
    23dc:	84 39 c0 36 	xnord  %g7, %l6, %g2
    23e0:	84 39 c0 37 	xnord  %g7, %l7, %g2
    23e4:	84 39 c0 38 	xnord  %g7, %i0, %g2
    23e8:	84 39 c0 39 	xnord  %g7, %i1, %g2
    23ec:	84 39 c0 3a 	xnord  %g7, %i2, %g2
    23f0:	84 39 c0 3b 	xnord  %g7, %i3, %g2
    23f4:	84 39 c0 3c 	xnord  %g7, %i4, %g2
    23f8:	84 39 c0 3d 	xnord  %g7, %i5, %g2
    23fc:	84 39 c0 3e 	xnord  %g7, %fp, %g2
    2400:	84 39 c0 3f 	xnord  %g7, %i7, %g2
    2404:	84 3a 00 20 	xnord  %o0, %g0, %g2
    2408:	84 3a 00 21 	xnord  %o0, %g1, %g2
    240c:	84 3a 00 22 	xnord  %o0, %g2, %g2
    2410:	84 3a 00 23 	xnord  %o0, %g3, %g2
    2414:	84 3a 00 24 	xnord  %o0, %g4, %g2
    2418:	84 3a 00 25 	xnord  %o0, %g5, %g2
    241c:	84 3a 00 26 	xnord  %o0, %g6, %g2
    2420:	84 3a 00 27 	xnord  %o0, %g7, %g2
    2424:	84 3a 00 28 	xnord  %o0, %o0, %g2
    2428:	84 3a 00 29 	xnord  %o0, %o1, %g2
    242c:	84 3a 00 2a 	xnord  %o0, %o2, %g2
    2430:	84 3a 00 2b 	xnord  %o0, %o3, %g2
    2434:	84 3a 00 2c 	xnord  %o0, %o4, %g2
    2438:	84 3a 00 2d 	xnord  %o0, %o5, %g2
    243c:	84 3a 00 2e 	xnord  %o0, %sp, %g2
    2440:	84 3a 00 2f 	xnord  %o0, %o7, %g2
    2444:	84 3a 00 30 	xnord  %o0, %l0, %g2
    2448:	84 3a 00 31 	xnord  %o0, %l1, %g2
    244c:	84 3a 00 32 	xnord  %o0, %l2, %g2
    2450:	84 3a 00 33 	xnord  %o0, %l3, %g2
    2454:	84 3a 00 34 	xnord  %o0, %l4, %g2
    2458:	84 3a 00 35 	xnord  %o0, %l5, %g2
    245c:	84 3a 00 36 	xnord  %o0, %l6, %g2
    2460:	84 3a 00 37 	xnord  %o0, %l7, %g2
    2464:	84 3a 00 38 	xnord  %o0, %i0, %g2
    2468:	84 3a 00 39 	xnord  %o0, %i1, %g2
    246c:	84 3a 00 3a 	xnord  %o0, %i2, %g2
    2470:	84 3a 00 3b 	xnord  %o0, %i3, %g2
    2474:	84 3a 00 3c 	xnord  %o0, %i4, %g2
    2478:	84 3a 00 3d 	xnord  %o0, %i5, %g2
    247c:	84 3a 00 3e 	xnord  %o0, %fp, %g2
    2480:	84 3a 00 3f 	xnord  %o0, %i7, %g2
    2484:	84 3a 40 20 	xnord  %o1, %g0, %g2
    2488:	84 3a 40 21 	xnord  %o1, %g1, %g2
    248c:	84 3a 40 22 	xnord  %o1, %g2, %g2
    2490:	84 3a 40 23 	xnord  %o1, %g3, %g2
    2494:	84 3a 40 24 	xnord  %o1, %g4, %g2
    2498:	84 3a 40 25 	xnord  %o1, %g5, %g2
    249c:	84 3a 40 26 	xnord  %o1, %g6, %g2
    24a0:	84 3a 40 27 	xnord  %o1, %g7, %g2
    24a4:	84 3a 40 28 	xnord  %o1, %o0, %g2
    24a8:	84 3a 40 29 	xnord  %o1, %o1, %g2
    24ac:	84 3a 40 2a 	xnord  %o1, %o2, %g2
    24b0:	84 3a 40 2b 	xnord  %o1, %o3, %g2
    24b4:	84 3a 40 2c 	xnord  %o1, %o4, %g2
    24b8:	84 3a 40 2d 	xnord  %o1, %o5, %g2
    24bc:	84 3a 40 2e 	xnord  %o1, %sp, %g2
    24c0:	84 3a 40 2f 	xnord  %o1, %o7, %g2
    24c4:	84 3a 40 30 	xnord  %o1, %l0, %g2
    24c8:	84 3a 40 31 	xnord  %o1, %l1, %g2
    24cc:	84 3a 40 32 	xnord  %o1, %l2, %g2
    24d0:	84 3a 40 33 	xnord  %o1, %l3, %g2
    24d4:	84 3a 40 34 	xnord  %o1, %l4, %g2
    24d8:	84 3a 40 35 	xnord  %o1, %l5, %g2
    24dc:	84 3a 40 36 	xnord  %o1, %l6, %g2
    24e0:	84 3a 40 37 	xnord  %o1, %l7, %g2
    24e4:	84 3a 40 38 	xnord  %o1, %i0, %g2
    24e8:	84 3a 40 39 	xnord  %o1, %i1, %g2
    24ec:	84 3a 40 3a 	xnord  %o1, %i2, %g2
    24f0:	84 3a 40 3b 	xnord  %o1, %i3, %g2
    24f4:	84 3a 40 3c 	xnord  %o1, %i4, %g2
    24f8:	84 3a 40 3d 	xnord  %o1, %i5, %g2
    24fc:	84 3a 40 3e 	xnord  %o1, %fp, %g2
    2500:	84 3a 40 3f 	xnord  %o1, %i7, %g2
    2504:	84 3a 80 20 	xnord  %o2, %g0, %g2
    2508:	84 3a 80 21 	xnord  %o2, %g1, %g2
    250c:	84 3a 80 22 	xnord  %o2, %g2, %g2
    2510:	84 3a 80 23 	xnord  %o2, %g3, %g2
    2514:	84 3a 80 24 	xnord  %o2, %g4, %g2
    2518:	84 3a 80 25 	xnord  %o2, %g5, %g2
    251c:	84 3a 80 26 	xnord  %o2, %g6, %g2
    2520:	84 3a 80 27 	xnord  %o2, %g7, %g2
    2524:	84 3a 80 28 	xnord  %o2, %o0, %g2
    2528:	84 3a 80 29 	xnord  %o2, %o1, %g2
    252c:	84 3a 80 2a 	xnord  %o2, %o2, %g2
    2530:	84 3a 80 2b 	xnord  %o2, %o3, %g2
    2534:	84 3a 80 2c 	xnord  %o2, %o4, %g2
    2538:	84 3a 80 2d 	xnord  %o2, %o5, %g2
    253c:	84 3a 80 2e 	xnord  %o2, %sp, %g2
    2540:	84 3a 80 2f 	xnord  %o2, %o7, %g2
    2544:	84 3a 80 30 	xnord  %o2, %l0, %g2
    2548:	84 3a 80 31 	xnord  %o2, %l1, %g2
    254c:	84 3a 80 32 	xnord  %o2, %l2, %g2
    2550:	84 3a 80 33 	xnord  %o2, %l3, %g2
    2554:	84 3a 80 34 	xnord  %o2, %l4, %g2
    2558:	84 3a 80 35 	xnord  %o2, %l5, %g2
    255c:	84 3a 80 36 	xnord  %o2, %l6, %g2
    2560:	84 3a 80 37 	xnord  %o2, %l7, %g2
    2564:	84 3a 80 38 	xnord  %o2, %i0, %g2
    2568:	84 3a 80 39 	xnord  %o2, %i1, %g2
    256c:	84 3a 80 3a 	xnord  %o2, %i2, %g2
    2570:	84 3a 80 3b 	xnord  %o2, %i3, %g2
    2574:	84 3a 80 3c 	xnord  %o2, %i4, %g2
    2578:	84 3a 80 3d 	xnord  %o2, %i5, %g2
    257c:	84 3a 80 3e 	xnord  %o2, %fp, %g2
    2580:	84 3a 80 3f 	xnord  %o2, %i7, %g2
    2584:	84 3a c0 20 	xnord  %o3, %g0, %g2
    2588:	84 3a c0 21 	xnord  %o3, %g1, %g2
    258c:	84 3a c0 22 	xnord  %o3, %g2, %g2
    2590:	84 3a c0 23 	xnord  %o3, %g3, %g2
    2594:	84 3a c0 24 	xnord  %o3, %g4, %g2
    2598:	84 3a c0 25 	xnord  %o3, %g5, %g2
    259c:	84 3a c0 26 	xnord  %o3, %g6, %g2
    25a0:	84 3a c0 27 	xnord  %o3, %g7, %g2
    25a4:	84 3a c0 28 	xnord  %o3, %o0, %g2
    25a8:	84 3a c0 29 	xnord  %o3, %o1, %g2
    25ac:	84 3a c0 2a 	xnord  %o3, %o2, %g2
    25b0:	84 3a c0 2b 	xnord  %o3, %o3, %g2
    25b4:	84 3a c0 2c 	xnord  %o3, %o4, %g2
    25b8:	84 3a c0 2d 	xnord  %o3, %o5, %g2
    25bc:	84 3a c0 2e 	xnord  %o3, %sp, %g2
    25c0:	84 3a c0 2f 	xnord  %o3, %o7, %g2
    25c4:	84 3a c0 30 	xnord  %o3, %l0, %g2
    25c8:	84 3a c0 31 	xnord  %o3, %l1, %g2
    25cc:	84 3a c0 32 	xnord  %o3, %l2, %g2
    25d0:	84 3a c0 33 	xnord  %o3, %l3, %g2
    25d4:	84 3a c0 34 	xnord  %o3, %l4, %g2
    25d8:	84 3a c0 35 	xnord  %o3, %l5, %g2
    25dc:	84 3a c0 36 	xnord  %o3, %l6, %g2
    25e0:	84 3a c0 37 	xnord  %o3, %l7, %g2
    25e4:	84 3a c0 38 	xnord  %o3, %i0, %g2
    25e8:	84 3a c0 39 	xnord  %o3, %i1, %g2
    25ec:	84 3a c0 3a 	xnord  %o3, %i2, %g2
    25f0:	84 3a c0 3b 	xnord  %o3, %i3, %g2
    25f4:	84 3a c0 3c 	xnord  %o3, %i4, %g2
    25f8:	84 3a c0 3d 	xnord  %o3, %i5, %g2
    25fc:	84 3a c0 3e 	xnord  %o3, %fp, %g2
    2600:	84 3a c0 3f 	xnord  %o3, %i7, %g2
    2604:	84 3b 00 20 	xnord  %o4, %g0, %g2
    2608:	84 3b 00 21 	xnord  %o4, %g1, %g2
    260c:	84 3b 00 22 	xnord  %o4, %g2, %g2
    2610:	84 3b 00 23 	xnord  %o4, %g3, %g2
    2614:	84 3b 00 24 	xnord  %o4, %g4, %g2
    2618:	84 3b 00 25 	xnord  %o4, %g5, %g2
    261c:	84 3b 00 26 	xnord  %o4, %g6, %g2
    2620:	84 3b 00 27 	xnord  %o4, %g7, %g2
    2624:	84 3b 00 28 	xnord  %o4, %o0, %g2
    2628:	84 3b 00 29 	xnord  %o4, %o1, %g2
    262c:	84 3b 00 2a 	xnord  %o4, %o2, %g2
    2630:	84 3b 00 2b 	xnord  %o4, %o3, %g2
    2634:	84 3b 00 2c 	xnord  %o4, %o4, %g2
    2638:	84 3b 00 2d 	xnord  %o4, %o5, %g2
    263c:	84 3b 00 2e 	xnord  %o4, %sp, %g2
    2640:	84 3b 00 2f 	xnord  %o4, %o7, %g2
    2644:	84 3b 00 30 	xnord  %o4, %l0, %g2
    2648:	84 3b 00 31 	xnord  %o4, %l1, %g2
    264c:	84 3b 00 32 	xnord  %o4, %l2, %g2
    2650:	84 3b 00 33 	xnord  %o4, %l3, %g2
    2654:	84 3b 00 34 	xnord  %o4, %l4, %g2
    2658:	84 3b 00 35 	xnord  %o4, %l5, %g2
    265c:	84 3b 00 36 	xnord  %o4, %l6, %g2
    2660:	84 3b 00 37 	xnord  %o4, %l7, %g2
    2664:	84 3b 00 38 	xnord  %o4, %i0, %g2
    2668:	84 3b 00 39 	xnord  %o4, %i1, %g2
    266c:	84 3b 00 3a 	xnord  %o4, %i2, %g2
    2670:	84 3b 00 3b 	xnord  %o4, %i3, %g2
    2674:	84 3b 00 3c 	xnord  %o4, %i4, %g2
    2678:	84 3b 00 3d 	xnord  %o4, %i5, %g2
    267c:	84 3b 00 3e 	xnord  %o4, %fp, %g2
    2680:	84 3b 00 3f 	xnord  %o4, %i7, %g2
    2684:	84 3b 40 20 	xnord  %o5, %g0, %g2
    2688:	84 3b 40 21 	xnord  %o5, %g1, %g2
    268c:	84 3b 40 22 	xnord  %o5, %g2, %g2
    2690:	84 3b 40 23 	xnord  %o5, %g3, %g2
    2694:	84 3b 40 24 	xnord  %o5, %g4, %g2
    2698:	84 3b 40 25 	xnord  %o5, %g5, %g2
    269c:	84 3b 40 26 	xnord  %o5, %g6, %g2
    26a0:	84 3b 40 27 	xnord  %o5, %g7, %g2
    26a4:	84 3b 40 28 	xnord  %o5, %o0, %g2
    26a8:	84 3b 40 29 	xnord  %o5, %o1, %g2
    26ac:	84 3b 40 2a 	xnord  %o5, %o2, %g2
    26b0:	84 3b 40 2b 	xnord  %o5, %o3, %g2
    26b4:	84 3b 40 2c 	xnord  %o5, %o4, %g2
    26b8:	84 3b 40 2d 	xnord  %o5, %o5, %g2
    26bc:	84 3b 40 2e 	xnord  %o5, %sp, %g2
    26c0:	84 3b 40 2f 	xnord  %o5, %o7, %g2
    26c4:	84 3b 40 30 	xnord  %o5, %l0, %g2
    26c8:	84 3b 40 31 	xnord  %o5, %l1, %g2
    26cc:	84 3b 40 32 	xnord  %o5, %l2, %g2
    26d0:	84 3b 40 33 	xnord  %o5, %l3, %g2
    26d4:	84 3b 40 34 	xnord  %o5, %l4, %g2
    26d8:	84 3b 40 35 	xnord  %o5, %l5, %g2
    26dc:	84 3b 40 36 	xnord  %o5, %l6, %g2
    26e0:	84 3b 40 37 	xnord  %o5, %l7, %g2
    26e4:	84 3b 40 38 	xnord  %o5, %i0, %g2
    26e8:	84 3b 40 39 	xnord  %o5, %i1, %g2
    26ec:	84 3b 40 3a 	xnord  %o5, %i2, %g2
    26f0:	84 3b 40 3b 	xnord  %o5, %i3, %g2
    26f4:	84 3b 40 3c 	xnord  %o5, %i4, %g2
    26f8:	84 3b 40 3d 	xnord  %o5, %i5, %g2
    26fc:	84 3b 40 3e 	xnord  %o5, %fp, %g2
    2700:	84 3b 40 3f 	xnord  %o5, %i7, %g2
    2704:	84 3b 80 20 	xnord  %sp, %g0, %g2
    2708:	84 3b 80 21 	xnord  %sp, %g1, %g2
    270c:	84 3b 80 22 	xnord  %sp, %g2, %g2
    2710:	84 3b 80 23 	xnord  %sp, %g3, %g2
    2714:	84 3b 80 24 	xnord  %sp, %g4, %g2
    2718:	84 3b 80 25 	xnord  %sp, %g5, %g2
    271c:	84 3b 80 26 	xnord  %sp, %g6, %g2
    2720:	84 3b 80 27 	xnord  %sp, %g7, %g2
    2724:	84 3b 80 28 	xnord  %sp, %o0, %g2
    2728:	84 3b 80 29 	xnord  %sp, %o1, %g2
    272c:	84 3b 80 2a 	xnord  %sp, %o2, %g2
    2730:	84 3b 80 2b 	xnord  %sp, %o3, %g2
    2734:	84 3b 80 2c 	xnord  %sp, %o4, %g2
    2738:	84 3b 80 2d 	xnord  %sp, %o5, %g2
    273c:	84 3b 80 2e 	xnord  %sp, %sp, %g2
    2740:	84 3b 80 2f 	xnord  %sp, %o7, %g2
    2744:	84 3b 80 30 	xnord  %sp, %l0, %g2
    2748:	84 3b 80 31 	xnord  %sp, %l1, %g2
    274c:	84 3b 80 32 	xnord  %sp, %l2, %g2
    2750:	84 3b 80 33 	xnord  %sp, %l3, %g2
    2754:	84 3b 80 34 	xnord  %sp, %l4, %g2
    2758:	84 3b 80 35 	xnord  %sp, %l5, %g2
    275c:	84 3b 80 36 	xnord  %sp, %l6, %g2
    2760:	84 3b 80 37 	xnord  %sp, %l7, %g2
    2764:	84 3b 80 38 	xnord  %sp, %i0, %g2
    2768:	84 3b 80 39 	xnord  %sp, %i1, %g2
    276c:	84 3b 80 3a 	xnord  %sp, %i2, %g2
    2770:	84 3b 80 3b 	xnord  %sp, %i3, %g2
    2774:	84 3b 80 3c 	xnord  %sp, %i4, %g2
    2778:	84 3b 80 3d 	xnord  %sp, %i5, %g2
    277c:	84 3b 80 3e 	xnord  %sp, %fp, %g2
    2780:	84 3b 80 3f 	xnord  %sp, %i7, %g2
    2784:	84 3b c0 20 	xnord  %o7, %g0, %g2
    2788:	84 3b c0 21 	xnord  %o7, %g1, %g2
    278c:	84 3b c0 22 	xnord  %o7, %g2, %g2
    2790:	84 3b c0 23 	xnord  %o7, %g3, %g2
    2794:	84 3b c0 24 	xnord  %o7, %g4, %g2
    2798:	84 3b c0 25 	xnord  %o7, %g5, %g2
    279c:	84 3b c0 26 	xnord  %o7, %g6, %g2
    27a0:	84 3b c0 27 	xnord  %o7, %g7, %g2
    27a4:	84 3b c0 28 	xnord  %o7, %o0, %g2
    27a8:	84 3b c0 29 	xnord  %o7, %o1, %g2
    27ac:	84 3b c0 2a 	xnord  %o7, %o2, %g2
    27b0:	84 3b c0 2b 	xnord  %o7, %o3, %g2
    27b4:	84 3b c0 2c 	xnord  %o7, %o4, %g2
    27b8:	84 3b c0 2d 	xnord  %o7, %o5, %g2
    27bc:	84 3b c0 2e 	xnord  %o7, %sp, %g2
    27c0:	84 3b c0 2f 	xnord  %o7, %o7, %g2
    27c4:	84 3b c0 30 	xnord  %o7, %l0, %g2
    27c8:	84 3b c0 31 	xnord  %o7, %l1, %g2
    27cc:	84 3b c0 32 	xnord  %o7, %l2, %g2
    27d0:	84 3b c0 33 	xnord  %o7, %l3, %g2
    27d4:	84 3b c0 34 	xnord  %o7, %l4, %g2
    27d8:	84 3b c0 35 	xnord  %o7, %l5, %g2
    27dc:	84 3b c0 36 	xnord  %o7, %l6, %g2
    27e0:	84 3b c0 37 	xnord  %o7, %l7, %g2
    27e4:	84 3b c0 38 	xnord  %o7, %i0, %g2
    27e8:	84 3b c0 39 	xnord  %o7, %i1, %g2
    27ec:	84 3b c0 3a 	xnord  %o7, %i2, %g2
    27f0:	84 3b c0 3b 	xnord  %o7, %i3, %g2
    27f4:	84 3b c0 3c 	xnord  %o7, %i4, %g2
    27f8:	84 3b c0 3d 	xnord  %o7, %i5, %g2
    27fc:	84 3b c0 3e 	xnord  %o7, %fp, %g2
    2800:	84 3b c0 3f 	xnord  %o7, %i7, %g2
    2804:	84 3c 00 20 	xnord  %l0, %g0, %g2
    2808:	84 3c 00 21 	xnord  %l0, %g1, %g2
    280c:	84 3c 00 22 	xnord  %l0, %g2, %g2
    2810:	84 3c 00 23 	xnord  %l0, %g3, %g2
    2814:	84 3c 00 24 	xnord  %l0, %g4, %g2
    2818:	84 3c 00 25 	xnord  %l0, %g5, %g2
    281c:	84 3c 00 26 	xnord  %l0, %g6, %g2
    2820:	84 3c 00 27 	xnord  %l0, %g7, %g2
    2824:	84 3c 00 28 	xnord  %l0, %o0, %g2
    2828:	84 3c 00 29 	xnord  %l0, %o1, %g2
    282c:	84 3c 00 2a 	xnord  %l0, %o2, %g2
    2830:	84 3c 00 2b 	xnord  %l0, %o3, %g2
    2834:	84 3c 00 2c 	xnord  %l0, %o4, %g2
    2838:	84 3c 00 2d 	xnord  %l0, %o5, %g2
    283c:	84 3c 00 2e 	xnord  %l0, %sp, %g2
    2840:	84 3c 00 2f 	xnord  %l0, %o7, %g2
    2844:	84 3c 00 30 	xnord  %l0, %l0, %g2
    2848:	84 3c 00 31 	xnord  %l0, %l1, %g2
    284c:	84 3c 00 32 	xnord  %l0, %l2, %g2
    2850:	84 3c 00 33 	xnord  %l0, %l3, %g2
    2854:	84 3c 00 34 	xnord  %l0, %l4, %g2
    2858:	84 3c 00 35 	xnord  %l0, %l5, %g2
    285c:	84 3c 00 36 	xnord  %l0, %l6, %g2
    2860:	84 3c 00 37 	xnord  %l0, %l7, %g2
    2864:	84 3c 00 38 	xnord  %l0, %i0, %g2
    2868:	84 3c 00 39 	xnord  %l0, %i1, %g2
    286c:	84 3c 00 3a 	xnord  %l0, %i2, %g2
    2870:	84 3c 00 3b 	xnord  %l0, %i3, %g2
    2874:	84 3c 00 3c 	xnord  %l0, %i4, %g2
    2878:	84 3c 00 3d 	xnord  %l0, %i5, %g2
    287c:	84 3c 00 3e 	xnord  %l0, %fp, %g2
    2880:	84 3c 00 3f 	xnord  %l0, %i7, %g2
    2884:	84 3c 40 20 	xnord  %l1, %g0, %g2
    2888:	84 3c 40 21 	xnord  %l1, %g1, %g2
    288c:	84 3c 40 22 	xnord  %l1, %g2, %g2
    2890:	84 3c 40 23 	xnord  %l1, %g3, %g2
    2894:	84 3c 40 24 	xnord  %l1, %g4, %g2
    2898:	84 3c 40 25 	xnord  %l1, %g5, %g2
    289c:	84 3c 40 26 	xnord  %l1, %g6, %g2
    28a0:	84 3c 40 27 	xnord  %l1, %g7, %g2
    28a4:	84 3c 40 28 	xnord  %l1, %o0, %g2
    28a8:	84 3c 40 29 	xnord  %l1, %o1, %g2
    28ac:	84 3c 40 2a 	xnord  %l1, %o2, %g2
    28b0:	84 3c 40 2b 	xnord  %l1, %o3, %g2
    28b4:	84 3c 40 2c 	xnord  %l1, %o4, %g2
    28b8:	84 3c 40 2d 	xnord  %l1, %o5, %g2
    28bc:	84 3c 40 2e 	xnord  %l1, %sp, %g2
    28c0:	84 3c 40 2f 	xnord  %l1, %o7, %g2
    28c4:	84 3c 40 30 	xnord  %l1, %l0, %g2
    28c8:	84 3c 40 31 	xnord  %l1, %l1, %g2
    28cc:	84 3c 40 32 	xnord  %l1, %l2, %g2
    28d0:	84 3c 40 33 	xnord  %l1, %l3, %g2
    28d4:	84 3c 40 34 	xnord  %l1, %l4, %g2
    28d8:	84 3c 40 35 	xnord  %l1, %l5, %g2
    28dc:	84 3c 40 36 	xnord  %l1, %l6, %g2
    28e0:	84 3c 40 37 	xnord  %l1, %l7, %g2
    28e4:	84 3c 40 38 	xnord  %l1, %i0, %g2
    28e8:	84 3c 40 39 	xnord  %l1, %i1, %g2
    28ec:	84 3c 40 3a 	xnord  %l1, %i2, %g2
    28f0:	84 3c 40 3b 	xnord  %l1, %i3, %g2
    28f4:	84 3c 40 3c 	xnord  %l1, %i4, %g2
    28f8:	84 3c 40 3d 	xnord  %l1, %i5, %g2
    28fc:	84 3c 40 3e 	xnord  %l1, %fp, %g2
    2900:	84 3c 40 3f 	xnord  %l1, %i7, %g2
    2904:	84 3c 80 20 	xnord  %l2, %g0, %g2
    2908:	84 3c 80 21 	xnord  %l2, %g1, %g2
    290c:	84 3c 80 22 	xnord  %l2, %g2, %g2
    2910:	84 3c 80 23 	xnord  %l2, %g3, %g2
    2914:	84 3c 80 24 	xnord  %l2, %g4, %g2
    2918:	84 3c 80 25 	xnord  %l2, %g5, %g2
    291c:	84 3c 80 26 	xnord  %l2, %g6, %g2
    2920:	84 3c 80 27 	xnord  %l2, %g7, %g2
    2924:	84 3c 80 28 	xnord  %l2, %o0, %g2
    2928:	84 3c 80 29 	xnord  %l2, %o1, %g2
    292c:	84 3c 80 2a 	xnord  %l2, %o2, %g2
    2930:	84 3c 80 2b 	xnord  %l2, %o3, %g2
    2934:	84 3c 80 2c 	xnord  %l2, %o4, %g2
    2938:	84 3c 80 2d 	xnord  %l2, %o5, %g2
    293c:	84 3c 80 2e 	xnord  %l2, %sp, %g2
    2940:	84 3c 80 2f 	xnord  %l2, %o7, %g2
    2944:	84 3c 80 30 	xnord  %l2, %l0, %g2
    2948:	84 3c 80 31 	xnord  %l2, %l1, %g2
    294c:	84 3c 80 32 	xnord  %l2, %l2, %g2
    2950:	84 3c 80 33 	xnord  %l2, %l3, %g2
    2954:	84 3c 80 34 	xnord  %l2, %l4, %g2
    2958:	84 3c 80 35 	xnord  %l2, %l5, %g2
    295c:	84 3c 80 36 	xnord  %l2, %l6, %g2
    2960:	84 3c 80 37 	xnord  %l2, %l7, %g2
    2964:	84 3c 80 38 	xnord  %l2, %i0, %g2
    2968:	84 3c 80 39 	xnord  %l2, %i1, %g2
    296c:	84 3c 80 3a 	xnord  %l2, %i2, %g2
    2970:	84 3c 80 3b 	xnord  %l2, %i3, %g2
    2974:	84 3c 80 3c 	xnord  %l2, %i4, %g2
    2978:	84 3c 80 3d 	xnord  %l2, %i5, %g2
    297c:	84 3c 80 3e 	xnord  %l2, %fp, %g2
    2980:	84 3c 80 3f 	xnord  %l2, %i7, %g2
    2984:	84 3c c0 20 	xnord  %l3, %g0, %g2
    2988:	84 3c c0 21 	xnord  %l3, %g1, %g2
    298c:	84 3c c0 22 	xnord  %l3, %g2, %g2
    2990:	84 3c c0 23 	xnord  %l3, %g3, %g2
    2994:	84 3c c0 24 	xnord  %l3, %g4, %g2
    2998:	84 3c c0 25 	xnord  %l3, %g5, %g2
    299c:	84 3c c0 26 	xnord  %l3, %g6, %g2
    29a0:	84 3c c0 27 	xnord  %l3, %g7, %g2
    29a4:	84 3c c0 28 	xnord  %l3, %o0, %g2
    29a8:	84 3c c0 29 	xnord  %l3, %o1, %g2
    29ac:	84 3c c0 2a 	xnord  %l3, %o2, %g2
    29b0:	84 3c c0 2b 	xnord  %l3, %o3, %g2
    29b4:	84 3c c0 2c 	xnord  %l3, %o4, %g2
    29b8:	84 3c c0 2d 	xnord  %l3, %o5, %g2
    29bc:	84 3c c0 2e 	xnord  %l3, %sp, %g2
    29c0:	84 3c c0 2f 	xnord  %l3, %o7, %g2
    29c4:	84 3c c0 30 	xnord  %l3, %l0, %g2
    29c8:	84 3c c0 31 	xnord  %l3, %l1, %g2
    29cc:	84 3c c0 32 	xnord  %l3, %l2, %g2
    29d0:	84 3c c0 33 	xnord  %l3, %l3, %g2
    29d4:	84 3c c0 34 	xnord  %l3, %l4, %g2
    29d8:	84 3c c0 35 	xnord  %l3, %l5, %g2
    29dc:	84 3c c0 36 	xnord  %l3, %l6, %g2
    29e0:	84 3c c0 37 	xnord  %l3, %l7, %g2
    29e4:	84 3c c0 38 	xnord  %l3, %i0, %g2
    29e8:	84 3c c0 39 	xnord  %l3, %i1, %g2
    29ec:	84 3c c0 3a 	xnord  %l3, %i2, %g2
    29f0:	84 3c c0 3b 	xnord  %l3, %i3, %g2
    29f4:	84 3c c0 3c 	xnord  %l3, %i4, %g2
    29f8:	84 3c c0 3d 	xnord  %l3, %i5, %g2
    29fc:	84 3c c0 3e 	xnord  %l3, %fp, %g2
    2a00:	84 3c c0 3f 	xnord  %l3, %i7, %g2
    2a04:	84 3d 00 20 	xnord  %l4, %g0, %g2
    2a08:	84 3d 00 21 	xnord  %l4, %g1, %g2
    2a0c:	84 3d 00 22 	xnord  %l4, %g2, %g2
    2a10:	84 3d 00 23 	xnord  %l4, %g3, %g2
    2a14:	84 3d 00 24 	xnord  %l4, %g4, %g2
    2a18:	84 3d 00 25 	xnord  %l4, %g5, %g2
    2a1c:	84 3d 00 26 	xnord  %l4, %g6, %g2
    2a20:	84 3d 00 27 	xnord  %l4, %g7, %g2
    2a24:	84 3d 00 28 	xnord  %l4, %o0, %g2
    2a28:	84 3d 00 29 	xnord  %l4, %o1, %g2
    2a2c:	84 3d 00 2a 	xnord  %l4, %o2, %g2
    2a30:	84 3d 00 2b 	xnord  %l4, %o3, %g2
    2a34:	84 3d 00 2c 	xnord  %l4, %o4, %g2
    2a38:	84 3d 00 2d 	xnord  %l4, %o5, %g2
    2a3c:	84 3d 00 2e 	xnord  %l4, %sp, %g2
    2a40:	84 3d 00 2f 	xnord  %l4, %o7, %g2
    2a44:	84 3d 00 30 	xnord  %l4, %l0, %g2
    2a48:	84 3d 00 31 	xnord  %l4, %l1, %g2
    2a4c:	84 3d 00 32 	xnord  %l4, %l2, %g2
    2a50:	84 3d 00 33 	xnord  %l4, %l3, %g2
    2a54:	84 3d 00 34 	xnord  %l4, %l4, %g2
    2a58:	84 3d 00 35 	xnord  %l4, %l5, %g2
    2a5c:	84 3d 00 36 	xnord  %l4, %l6, %g2
    2a60:	84 3d 00 37 	xnord  %l4, %l7, %g2
    2a64:	84 3d 00 38 	xnord  %l4, %i0, %g2
    2a68:	84 3d 00 39 	xnord  %l4, %i1, %g2
    2a6c:	84 3d 00 3a 	xnord  %l4, %i2, %g2
    2a70:	84 3d 00 3b 	xnord  %l4, %i3, %g2
    2a74:	84 3d 00 3c 	xnord  %l4, %i4, %g2
    2a78:	84 3d 00 3d 	xnord  %l4, %i5, %g2
    2a7c:	84 3d 00 3e 	xnord  %l4, %fp, %g2
    2a80:	84 3d 00 3f 	xnord  %l4, %i7, %g2
    2a84:	84 3d 40 20 	xnord  %l5, %g0, %g2
    2a88:	84 3d 40 21 	xnord  %l5, %g1, %g2
    2a8c:	84 3d 40 22 	xnord  %l5, %g2, %g2
    2a90:	84 3d 40 23 	xnord  %l5, %g3, %g2
    2a94:	84 3d 40 24 	xnord  %l5, %g4, %g2
    2a98:	84 3d 40 25 	xnord  %l5, %g5, %g2
    2a9c:	84 3d 40 26 	xnord  %l5, %g6, %g2
    2aa0:	84 3d 40 27 	xnord  %l5, %g7, %g2
    2aa4:	84 3d 40 28 	xnord  %l5, %o0, %g2
    2aa8:	84 3d 40 29 	xnord  %l5, %o1, %g2
    2aac:	84 3d 40 2a 	xnord  %l5, %o2, %g2
    2ab0:	84 3d 40 2b 	xnord  %l5, %o3, %g2
    2ab4:	84 3d 40 2c 	xnord  %l5, %o4, %g2
    2ab8:	84 3d 40 2d 	xnord  %l5, %o5, %g2
    2abc:	84 3d 40 2e 	xnord  %l5, %sp, %g2
    2ac0:	84 3d 40 2f 	xnord  %l5, %o7, %g2
    2ac4:	84 3d 40 30 	xnord  %l5, %l0, %g2
    2ac8:	84 3d 40 31 	xnord  %l5, %l1, %g2
    2acc:	84 3d 40 32 	xnord  %l5, %l2, %g2
    2ad0:	84 3d 40 33 	xnord  %l5, %l3, %g2
    2ad4:	84 3d 40 34 	xnord  %l5, %l4, %g2
    2ad8:	84 3d 40 35 	xnord  %l5, %l5, %g2
    2adc:	84 3d 40 36 	xnord  %l5, %l6, %g2
    2ae0:	84 3d 40 37 	xnord  %l5, %l7, %g2
    2ae4:	84 3d 40 38 	xnord  %l5, %i0, %g2
    2ae8:	84 3d 40 39 	xnord  %l5, %i1, %g2
    2aec:	84 3d 40 3a 	xnord  %l5, %i2, %g2
    2af0:	84 3d 40 3b 	xnord  %l5, %i3, %g2
    2af4:	84 3d 40 3c 	xnord  %l5, %i4, %g2
    2af8:	84 3d 40 3d 	xnord  %l5, %i5, %g2
    2afc:	84 3d 40 3e 	xnord  %l5, %fp, %g2
    2b00:	84 3d 40 3f 	xnord  %l5, %i7, %g2
    2b04:	84 3d 80 20 	xnord  %l6, %g0, %g2
    2b08:	84 3d 80 21 	xnord  %l6, %g1, %g2
    2b0c:	84 3d 80 22 	xnord  %l6, %g2, %g2
    2b10:	84 3d 80 23 	xnord  %l6, %g3, %g2
    2b14:	84 3d 80 24 	xnord  %l6, %g4, %g2
    2b18:	84 3d 80 25 	xnord  %l6, %g5, %g2
    2b1c:	84 3d 80 26 	xnord  %l6, %g6, %g2
    2b20:	84 3d 80 27 	xnord  %l6, %g7, %g2
    2b24:	84 3d 80 28 	xnord  %l6, %o0, %g2
    2b28:	84 3d 80 29 	xnord  %l6, %o1, %g2
    2b2c:	84 3d 80 2a 	xnord  %l6, %o2, %g2
    2b30:	84 3d 80 2b 	xnord  %l6, %o3, %g2
    2b34:	84 3d 80 2c 	xnord  %l6, %o4, %g2
    2b38:	84 3d 80 2d 	xnord  %l6, %o5, %g2
    2b3c:	84 3d 80 2e 	xnord  %l6, %sp, %g2
    2b40:	84 3d 80 2f 	xnord  %l6, %o7, %g2
    2b44:	84 3d 80 30 	xnord  %l6, %l0, %g2
    2b48:	84 3d 80 31 	xnord  %l6, %l1, %g2
    2b4c:	84 3d 80 32 	xnord  %l6, %l2, %g2
    2b50:	84 3d 80 33 	xnord  %l6, %l3, %g2
    2b54:	84 3d 80 34 	xnord  %l6, %l4, %g2
    2b58:	84 3d 80 35 	xnord  %l6, %l5, %g2
    2b5c:	84 3d 80 36 	xnord  %l6, %l6, %g2
    2b60:	84 3d 80 37 	xnord  %l6, %l7, %g2
    2b64:	84 3d 80 38 	xnord  %l6, %i0, %g2
    2b68:	84 3d 80 39 	xnord  %l6, %i1, %g2
    2b6c:	84 3d 80 3a 	xnord  %l6, %i2, %g2
    2b70:	84 3d 80 3b 	xnord  %l6, %i3, %g2
    2b74:	84 3d 80 3c 	xnord  %l6, %i4, %g2
    2b78:	84 3d 80 3d 	xnord  %l6, %i5, %g2
    2b7c:	84 3d 80 3e 	xnord  %l6, %fp, %g2
    2b80:	84 3d 80 3f 	xnord  %l6, %i7, %g2
    2b84:	84 3d c0 20 	xnord  %l7, %g0, %g2
    2b88:	84 3d c0 21 	xnord  %l7, %g1, %g2
    2b8c:	84 3d c0 22 	xnord  %l7, %g2, %g2
    2b90:	84 3d c0 23 	xnord  %l7, %g3, %g2
    2b94:	84 3d c0 24 	xnord  %l7, %g4, %g2
    2b98:	84 3d c0 25 	xnord  %l7, %g5, %g2
    2b9c:	84 3d c0 26 	xnord  %l7, %g6, %g2
    2ba0:	84 3d c0 27 	xnord  %l7, %g7, %g2
    2ba4:	84 3d c0 28 	xnord  %l7, %o0, %g2
    2ba8:	84 3d c0 29 	xnord  %l7, %o1, %g2
    2bac:	84 3d c0 2a 	xnord  %l7, %o2, %g2
    2bb0:	84 3d c0 2b 	xnord  %l7, %o3, %g2
    2bb4:	84 3d c0 2c 	xnord  %l7, %o4, %g2
    2bb8:	84 3d c0 2d 	xnord  %l7, %o5, %g2
    2bbc:	84 3d c0 2e 	xnord  %l7, %sp, %g2
    2bc0:	84 3d c0 2f 	xnord  %l7, %o7, %g2
    2bc4:	84 3d c0 30 	xnord  %l7, %l0, %g2
    2bc8:	84 3d c0 31 	xnord  %l7, %l1, %g2
    2bcc:	84 3d c0 32 	xnord  %l7, %l2, %g2
    2bd0:	84 3d c0 33 	xnord  %l7, %l3, %g2
    2bd4:	84 3d c0 34 	xnord  %l7, %l4, %g2
    2bd8:	84 3d c0 35 	xnord  %l7, %l5, %g2
    2bdc:	84 3d c0 36 	xnord  %l7, %l6, %g2
    2be0:	84 3d c0 37 	xnord  %l7, %l7, %g2
    2be4:	84 3d c0 38 	xnord  %l7, %i0, %g2
    2be8:	84 3d c0 39 	xnord  %l7, %i1, %g2
    2bec:	84 3d c0 3a 	xnord  %l7, %i2, %g2
    2bf0:	84 3d c0 3b 	xnord  %l7, %i3, %g2
    2bf4:	84 3d c0 3c 	xnord  %l7, %i4, %g2
    2bf8:	84 3d c0 3d 	xnord  %l7, %i5, %g2
    2bfc:	84 3d c0 3e 	xnord  %l7, %fp, %g2
    2c00:	84 3d c0 3f 	xnord  %l7, %i7, %g2
    2c04:	84 3e 00 20 	xnord  %i0, %g0, %g2
    2c08:	84 3e 00 21 	xnord  %i0, %g1, %g2
    2c0c:	84 3e 00 22 	xnord  %i0, %g2, %g2
    2c10:	84 3e 00 23 	xnord  %i0, %g3, %g2
    2c14:	84 3e 00 24 	xnord  %i0, %g4, %g2
    2c18:	84 3e 00 25 	xnord  %i0, %g5, %g2
    2c1c:	84 3e 00 26 	xnord  %i0, %g6, %g2
    2c20:	84 3e 00 27 	xnord  %i0, %g7, %g2
    2c24:	84 3e 00 28 	xnord  %i0, %o0, %g2
    2c28:	84 3e 00 29 	xnord  %i0, %o1, %g2
    2c2c:	84 3e 00 2a 	xnord  %i0, %o2, %g2
    2c30:	84 3e 00 2b 	xnord  %i0, %o3, %g2
    2c34:	84 3e 00 2c 	xnord  %i0, %o4, %g2
    2c38:	84 3e 00 2d 	xnord  %i0, %o5, %g2
    2c3c:	84 3e 00 2e 	xnord  %i0, %sp, %g2
    2c40:	84 3e 00 2f 	xnord  %i0, %o7, %g2
    2c44:	84 3e 00 30 	xnord  %i0, %l0, %g2
    2c48:	84 3e 00 31 	xnord  %i0, %l1, %g2
    2c4c:	84 3e 00 32 	xnord  %i0, %l2, %g2
    2c50:	84 3e 00 33 	xnord  %i0, %l3, %g2
    2c54:	84 3e 00 34 	xnord  %i0, %l4, %g2
    2c58:	84 3e 00 35 	xnord  %i0, %l5, %g2
    2c5c:	84 3e 00 36 	xnord  %i0, %l6, %g2
    2c60:	84 3e 00 37 	xnord  %i0, %l7, %g2
    2c64:	84 3e 00 38 	xnord  %i0, %i0, %g2
    2c68:	84 3e 00 39 	xnord  %i0, %i1, %g2
    2c6c:	84 3e 00 3a 	xnord  %i0, %i2, %g2
    2c70:	84 3e 00 3b 	xnord  %i0, %i3, %g2
    2c74:	84 3e 00 3c 	xnord  %i0, %i4, %g2
    2c78:	84 3e 00 3d 	xnord  %i0, %i5, %g2
    2c7c:	84 3e 00 3e 	xnord  %i0, %fp, %g2
    2c80:	84 3e 00 3f 	xnord  %i0, %i7, %g2
    2c84:	84 3e 40 20 	xnord  %i1, %g0, %g2
    2c88:	84 3e 40 21 	xnord  %i1, %g1, %g2
    2c8c:	84 3e 40 22 	xnord  %i1, %g2, %g2
    2c90:	84 3e 40 23 	xnord  %i1, %g3, %g2
    2c94:	84 3e 40 24 	xnord  %i1, %g4, %g2
    2c98:	84 3e 40 25 	xnord  %i1, %g5, %g2
    2c9c:	84 3e 40 26 	xnord  %i1, %g6, %g2
    2ca0:	84 3e 40 27 	xnord  %i1, %g7, %g2
    2ca4:	84 3e 40 28 	xnord  %i1, %o0, %g2
    2ca8:	84 3e 40 29 	xnord  %i1, %o1, %g2
    2cac:	84 3e 40 2a 	xnord  %i1, %o2, %g2
    2cb0:	84 3e 40 2b 	xnord  %i1, %o3, %g2
    2cb4:	84 3e 40 2c 	xnord  %i1, %o4, %g2
    2cb8:	84 3e 40 2d 	xnord  %i1, %o5, %g2
    2cbc:	84 3e 40 2e 	xnord  %i1, %sp, %g2
    2cc0:	84 3e 40 2f 	xnord  %i1, %o7, %g2
    2cc4:	84 3e 40 30 	xnord  %i1, %l0, %g2
    2cc8:	84 3e 40 31 	xnord  %i1, %l1, %g2
    2ccc:	84 3e 40 32 	xnord  %i1, %l2, %g2
    2cd0:	84 3e 40 33 	xnord  %i1, %l3, %g2
    2cd4:	84 3e 40 34 	xnord  %i1, %l4, %g2
    2cd8:	84 3e 40 35 	xnord  %i1, %l5, %g2
    2cdc:	84 3e 40 36 	xnord  %i1, %l6, %g2
    2ce0:	84 3e 40 37 	xnord  %i1, %l7, %g2
    2ce4:	84 3e 40 38 	xnord  %i1, %i0, %g2
    2ce8:	84 3e 40 39 	xnord  %i1, %i1, %g2
    2cec:	84 3e 40 3a 	xnord  %i1, %i2, %g2
    2cf0:	84 3e 40 3b 	xnord  %i1, %i3, %g2
    2cf4:	84 3e 40 3c 	xnord  %i1, %i4, %g2
    2cf8:	84 3e 40 3d 	xnord  %i1, %i5, %g2
    2cfc:	84 3e 40 3e 	xnord  %i1, %fp, %g2
    2d00:	84 3e 40 3f 	xnord  %i1, %i7, %g2
    2d04:	84 3e 80 20 	xnord  %i2, %g0, %g2
    2d08:	84 3e 80 21 	xnord  %i2, %g1, %g2
    2d0c:	84 3e 80 22 	xnord  %i2, %g2, %g2
    2d10:	84 3e 80 23 	xnord  %i2, %g3, %g2
    2d14:	84 3e 80 24 	xnord  %i2, %g4, %g2
    2d18:	84 3e 80 25 	xnord  %i2, %g5, %g2
    2d1c:	84 3e 80 26 	xnord  %i2, %g6, %g2
    2d20:	84 3e 80 27 	xnord  %i2, %g7, %g2
    2d24:	84 3e 80 28 	xnord  %i2, %o0, %g2
    2d28:	84 3e 80 29 	xnord  %i2, %o1, %g2
    2d2c:	84 3e 80 2a 	xnord  %i2, %o2, %g2
    2d30:	84 3e 80 2b 	xnord  %i2, %o3, %g2
    2d34:	84 3e 80 2c 	xnord  %i2, %o4, %g2
    2d38:	84 3e 80 2d 	xnord  %i2, %o5, %g2
    2d3c:	84 3e 80 2e 	xnord  %i2, %sp, %g2
    2d40:	84 3e 80 2f 	xnord  %i2, %o7, %g2
    2d44:	84 3e 80 30 	xnord  %i2, %l0, %g2
    2d48:	84 3e 80 31 	xnord  %i2, %l1, %g2
    2d4c:	84 3e 80 32 	xnord  %i2, %l2, %g2
    2d50:	84 3e 80 33 	xnord  %i2, %l3, %g2
    2d54:	84 3e 80 34 	xnord  %i2, %l4, %g2
    2d58:	84 3e 80 35 	xnord  %i2, %l5, %g2
    2d5c:	84 3e 80 36 	xnord  %i2, %l6, %g2
    2d60:	84 3e 80 37 	xnord  %i2, %l7, %g2
    2d64:	84 3e 80 38 	xnord  %i2, %i0, %g2
    2d68:	84 3e 80 39 	xnord  %i2, %i1, %g2
    2d6c:	84 3e 80 3a 	xnord  %i2, %i2, %g2
    2d70:	84 3e 80 3b 	xnord  %i2, %i3, %g2
    2d74:	84 3e 80 3c 	xnord  %i2, %i4, %g2
    2d78:	84 3e 80 3d 	xnord  %i2, %i5, %g2
    2d7c:	84 3e 80 3e 	xnord  %i2, %fp, %g2
    2d80:	84 3e 80 3f 	xnord  %i2, %i7, %g2
    2d84:	84 3e c0 20 	xnord  %i3, %g0, %g2
    2d88:	84 3e c0 21 	xnord  %i3, %g1, %g2
    2d8c:	84 3e c0 22 	xnord  %i3, %g2, %g2
    2d90:	84 3e c0 23 	xnord  %i3, %g3, %g2
    2d94:	84 3e c0 24 	xnord  %i3, %g4, %g2
    2d98:	84 3e c0 25 	xnord  %i3, %g5, %g2
    2d9c:	84 3e c0 26 	xnord  %i3, %g6, %g2
    2da0:	84 3e c0 27 	xnord  %i3, %g7, %g2
    2da4:	84 3e c0 28 	xnord  %i3, %o0, %g2
    2da8:	84 3e c0 29 	xnord  %i3, %o1, %g2
    2dac:	84 3e c0 2a 	xnord  %i3, %o2, %g2
    2db0:	84 3e c0 2b 	xnord  %i3, %o3, %g2
    2db4:	84 3e c0 2c 	xnord  %i3, %o4, %g2
    2db8:	84 3e c0 2d 	xnord  %i3, %o5, %g2
    2dbc:	84 3e c0 2e 	xnord  %i3, %sp, %g2
    2dc0:	84 3e c0 2f 	xnord  %i3, %o7, %g2
    2dc4:	84 3e c0 30 	xnord  %i3, %l0, %g2
    2dc8:	84 3e c0 31 	xnord  %i3, %l1, %g2
    2dcc:	84 3e c0 32 	xnord  %i3, %l2, %g2
    2dd0:	84 3e c0 33 	xnord  %i3, %l3, %g2
    2dd4:	84 3e c0 34 	xnord  %i3, %l4, %g2
    2dd8:	84 3e c0 35 	xnord  %i3, %l5, %g2
    2ddc:	84 3e c0 36 	xnord  %i3, %l6, %g2
    2de0:	84 3e c0 37 	xnord  %i3, %l7, %g2
    2de4:	84 3e c0 38 	xnord  %i3, %i0, %g2
    2de8:	84 3e c0 39 	xnord  %i3, %i1, %g2
    2dec:	84 3e c0 3a 	xnord  %i3, %i2, %g2
    2df0:	84 3e c0 3b 	xnord  %i3, %i3, %g2
    2df4:	84 3e c0 3c 	xnord  %i3, %i4, %g2
    2df8:	84 3e c0 3d 	xnord  %i3, %i5, %g2
    2dfc:	84 3e c0 3e 	xnord  %i3, %fp, %g2
    2e00:	84 3e c0 3f 	xnord  %i3, %i7, %g2
    2e04:	84 3f 00 20 	xnord  %i4, %g0, %g2
    2e08:	84 3f 00 21 	xnord  %i4, %g1, %g2
    2e0c:	84 3f 00 22 	xnord  %i4, %g2, %g2
    2e10:	84 3f 00 23 	xnord  %i4, %g3, %g2
    2e14:	84 3f 00 24 	xnord  %i4, %g4, %g2
    2e18:	84 3f 00 25 	xnord  %i4, %g5, %g2
    2e1c:	84 3f 00 26 	xnord  %i4, %g6, %g2
    2e20:	84 3f 00 27 	xnord  %i4, %g7, %g2
    2e24:	84 3f 00 28 	xnord  %i4, %o0, %g2
    2e28:	84 3f 00 29 	xnord  %i4, %o1, %g2
    2e2c:	84 3f 00 2a 	xnord  %i4, %o2, %g2
    2e30:	84 3f 00 2b 	xnord  %i4, %o3, %g2
    2e34:	84 3f 00 2c 	xnord  %i4, %o4, %g2
    2e38:	84 3f 00 2d 	xnord  %i4, %o5, %g2
    2e3c:	84 3f 00 2e 	xnord  %i4, %sp, %g2
    2e40:	84 3f 00 2f 	xnord  %i4, %o7, %g2
    2e44:	84 3f 00 30 	xnord  %i4, %l0, %g2
    2e48:	84 3f 00 31 	xnord  %i4, %l1, %g2
    2e4c:	84 3f 00 32 	xnord  %i4, %l2, %g2
    2e50:	84 3f 00 33 	xnord  %i4, %l3, %g2
    2e54:	84 3f 00 34 	xnord  %i4, %l4, %g2
    2e58:	84 3f 00 35 	xnord  %i4, %l5, %g2
    2e5c:	84 3f 00 36 	xnord  %i4, %l6, %g2
    2e60:	84 3f 00 37 	xnord  %i4, %l7, %g2
    2e64:	84 3f 00 38 	xnord  %i4, %i0, %g2
    2e68:	84 3f 00 39 	xnord  %i4, %i1, %g2
    2e6c:	84 3f 00 3a 	xnord  %i4, %i2, %g2
    2e70:	84 3f 00 3b 	xnord  %i4, %i3, %g2
    2e74:	84 3f 00 3c 	xnord  %i4, %i4, %g2
    2e78:	84 3f 00 3d 	xnord  %i4, %i5, %g2
    2e7c:	84 3f 00 3e 	xnord  %i4, %fp, %g2
    2e80:	84 3f 00 3f 	xnord  %i4, %i7, %g2
    2e84:	84 3f 40 20 	xnord  %i5, %g0, %g2
    2e88:	84 3f 40 21 	xnord  %i5, %g1, %g2
    2e8c:	84 3f 40 22 	xnord  %i5, %g2, %g2
    2e90:	84 3f 40 23 	xnord  %i5, %g3, %g2
    2e94:	84 3f 40 24 	xnord  %i5, %g4, %g2
    2e98:	84 3f 40 25 	xnord  %i5, %g5, %g2
    2e9c:	84 3f 40 26 	xnord  %i5, %g6, %g2
    2ea0:	84 3f 40 27 	xnord  %i5, %g7, %g2
    2ea4:	84 3f 40 28 	xnord  %i5, %o0, %g2
    2ea8:	84 3f 40 29 	xnord  %i5, %o1, %g2
    2eac:	84 3f 40 2a 	xnord  %i5, %o2, %g2
    2eb0:	84 3f 40 2b 	xnord  %i5, %o3, %g2
    2eb4:	84 3f 40 2c 	xnord  %i5, %o4, %g2
    2eb8:	84 3f 40 2d 	xnord  %i5, %o5, %g2
    2ebc:	84 3f 40 2e 	xnord  %i5, %sp, %g2
    2ec0:	84 3f 40 2f 	xnord  %i5, %o7, %g2
    2ec4:	84 3f 40 30 	xnord  %i5, %l0, %g2
    2ec8:	84 3f 40 31 	xnord  %i5, %l1, %g2
    2ecc:	84 3f 40 32 	xnord  %i5, %l2, %g2
    2ed0:	84 3f 40 33 	xnord  %i5, %l3, %g2
    2ed4:	84 3f 40 34 	xnord  %i5, %l4, %g2
    2ed8:	84 3f 40 35 	xnord  %i5, %l5, %g2
    2edc:	84 3f 40 36 	xnord  %i5, %l6, %g2
    2ee0:	84 3f 40 37 	xnord  %i5, %l7, %g2
    2ee4:	84 3f 40 38 	xnord  %i5, %i0, %g2
    2ee8:	84 3f 40 39 	xnord  %i5, %i1, %g2
    2eec:	84 3f 40 3a 	xnord  %i5, %i2, %g2
    2ef0:	84 3f 40 3b 	xnord  %i5, %i3, %g2
    2ef4:	84 3f 40 3c 	xnord  %i5, %i4, %g2
    2ef8:	84 3f 40 3d 	xnord  %i5, %i5, %g2
    2efc:	84 3f 40 3e 	xnord  %i5, %fp, %g2
    2f00:	84 3f 40 3f 	xnord  %i5, %i7, %g2
    2f04:	84 3f 80 20 	xnord  %fp, %g0, %g2
    2f08:	84 3f 80 21 	xnord  %fp, %g1, %g2
    2f0c:	84 3f 80 22 	xnord  %fp, %g2, %g2
    2f10:	84 3f 80 23 	xnord  %fp, %g3, %g2
    2f14:	84 3f 80 24 	xnord  %fp, %g4, %g2
    2f18:	84 3f 80 25 	xnord  %fp, %g5, %g2
    2f1c:	84 3f 80 26 	xnord  %fp, %g6, %g2
    2f20:	84 3f 80 27 	xnord  %fp, %g7, %g2
    2f24:	84 3f 80 28 	xnord  %fp, %o0, %g2
    2f28:	84 3f 80 29 	xnord  %fp, %o1, %g2
    2f2c:	84 3f 80 2a 	xnord  %fp, %o2, %g2
    2f30:	84 3f 80 2b 	xnord  %fp, %o3, %g2
    2f34:	84 3f 80 2c 	xnord  %fp, %o4, %g2
    2f38:	84 3f 80 2d 	xnord  %fp, %o5, %g2
    2f3c:	84 3f 80 2e 	xnord  %fp, %sp, %g2
    2f40:	84 3f 80 2f 	xnord  %fp, %o7, %g2
    2f44:	84 3f 80 30 	xnord  %fp, %l0, %g2
    2f48:	84 3f 80 31 	xnord  %fp, %l1, %g2
    2f4c:	84 3f 80 32 	xnord  %fp, %l2, %g2
    2f50:	84 3f 80 33 	xnord  %fp, %l3, %g2
    2f54:	84 3f 80 34 	xnord  %fp, %l4, %g2
    2f58:	84 3f 80 35 	xnord  %fp, %l5, %g2
    2f5c:	84 3f 80 36 	xnord  %fp, %l6, %g2
    2f60:	84 3f 80 37 	xnord  %fp, %l7, %g2
    2f64:	84 3f 80 38 	xnord  %fp, %i0, %g2
    2f68:	84 3f 80 39 	xnord  %fp, %i1, %g2
    2f6c:	84 3f 80 3a 	xnord  %fp, %i2, %g2
    2f70:	84 3f 80 3b 	xnord  %fp, %i3, %g2
    2f74:	84 3f 80 3c 	xnord  %fp, %i4, %g2
    2f78:	84 3f 80 3d 	xnord  %fp, %i5, %g2
    2f7c:	84 3f 80 3e 	xnord  %fp, %fp, %g2
    2f80:	84 3f 80 3f 	xnord  %fp, %i7, %g2
    2f84:	84 3f c0 20 	xnord  %i7, %g0, %g2
    2f88:	84 3f c0 21 	xnord  %i7, %g1, %g2
    2f8c:	84 3f c0 22 	xnord  %i7, %g2, %g2
    2f90:	84 3f c0 23 	xnord  %i7, %g3, %g2
    2f94:	84 3f c0 24 	xnord  %i7, %g4, %g2
    2f98:	84 3f c0 25 	xnord  %i7, %g5, %g2
    2f9c:	84 3f c0 26 	xnord  %i7, %g6, %g2
    2fa0:	84 3f c0 27 	xnord  %i7, %g7, %g2
    2fa4:	84 3f c0 28 	xnord  %i7, %o0, %g2
    2fa8:	84 3f c0 29 	xnord  %i7, %o1, %g2
    2fac:	84 3f c0 2a 	xnord  %i7, %o2, %g2
    2fb0:	84 3f c0 2b 	xnord  %i7, %o3, %g2
    2fb4:	84 3f c0 2c 	xnord  %i7, %o4, %g2
    2fb8:	84 3f c0 2d 	xnord  %i7, %o5, %g2
    2fbc:	84 3f c0 2e 	xnord  %i7, %sp, %g2
    2fc0:	84 3f c0 2f 	xnord  %i7, %o7, %g2
    2fc4:	84 3f c0 30 	xnord  %i7, %l0, %g2
    2fc8:	84 3f c0 31 	xnord  %i7, %l1, %g2
    2fcc:	84 3f c0 32 	xnord  %i7, %l2, %g2
    2fd0:	84 3f c0 33 	xnord  %i7, %l3, %g2
    2fd4:	84 3f c0 34 	xnord  %i7, %l4, %g2
    2fd8:	84 3f c0 35 	xnord  %i7, %l5, %g2
    2fdc:	84 3f c0 36 	xnord  %i7, %l6, %g2
    2fe0:	84 3f c0 37 	xnord  %i7, %l7, %g2
    2fe4:	84 3f c0 38 	xnord  %i7, %i0, %g2
    2fe8:	84 3f c0 39 	xnord  %i7, %i1, %g2
    2fec:	84 3f c0 3a 	xnord  %i7, %i2, %g2
    2ff0:	84 3f c0 3b 	xnord  %i7, %i3, %g2
    2ff4:	84 3f c0 3c 	xnord  %i7, %i4, %g2
    2ff8:	84 3f c0 3d 	xnord  %i7, %i5, %g2
    2ffc:	84 3f c0 3e 	xnord  %i7, %fp, %g2
    3000:	84 3f c0 3f 	xnord  %i7, %i7, %g2
    3004:	86 38 00 20 	xnord  %g0, %g0, %g3
    3008:	86 38 00 21 	xnord  %g0, %g1, %g3
    300c:	86 38 00 22 	xnord  %g0, %g2, %g3
    3010:	86 38 00 23 	xnord  %g0, %g3, %g3
    3014:	86 38 00 24 	xnord  %g0, %g4, %g3
    3018:	86 38 00 25 	xnord  %g0, %g5, %g3
    301c:	86 38 00 26 	xnord  %g0, %g6, %g3
    3020:	86 38 00 27 	xnord  %g0, %g7, %g3
    3024:	86 38 00 28 	xnord  %g0, %o0, %g3
    3028:	86 38 00 29 	xnord  %g0, %o1, %g3
    302c:	86 38 00 2a 	xnord  %g0, %o2, %g3
    3030:	86 38 00 2b 	xnord  %g0, %o3, %g3
    3034:	86 38 00 2c 	xnord  %g0, %o4, %g3
    3038:	86 38 00 2d 	xnord  %g0, %o5, %g3
    303c:	86 38 00 2e 	xnord  %g0, %sp, %g3
    3040:	86 38 00 2f 	xnord  %g0, %o7, %g3
    3044:	86 38 00 30 	xnord  %g0, %l0, %g3
    3048:	86 38 00 31 	xnord  %g0, %l1, %g3
    304c:	86 38 00 32 	xnord  %g0, %l2, %g3
    3050:	86 38 00 33 	xnord  %g0, %l3, %g3
    3054:	86 38 00 34 	xnord  %g0, %l4, %g3
    3058:	86 38 00 35 	xnord  %g0, %l5, %g3
    305c:	86 38 00 36 	xnord  %g0, %l6, %g3
    3060:	86 38 00 37 	xnord  %g0, %l7, %g3
    3064:	86 38 00 38 	xnord  %g0, %i0, %g3
    3068:	86 38 00 39 	xnord  %g0, %i1, %g3
    306c:	86 38 00 3a 	xnord  %g0, %i2, %g3
    3070:	86 38 00 3b 	xnord  %g0, %i3, %g3
    3074:	86 38 00 3c 	xnord  %g0, %i4, %g3
    3078:	86 38 00 3d 	xnord  %g0, %i5, %g3
    307c:	86 38 00 3e 	xnord  %g0, %fp, %g3
    3080:	86 38 00 3f 	xnord  %g0, %i7, %g3
    3084:	86 38 40 20 	xnord  %g1, %g0, %g3
    3088:	86 38 40 21 	xnord  %g1, %g1, %g3
    308c:	86 38 40 22 	xnord  %g1, %g2, %g3
    3090:	86 38 40 23 	xnord  %g1, %g3, %g3
    3094:	86 38 40 24 	xnord  %g1, %g4, %g3
    3098:	86 38 40 25 	xnord  %g1, %g5, %g3
    309c:	86 38 40 26 	xnord  %g1, %g6, %g3
    30a0:	86 38 40 27 	xnord  %g1, %g7, %g3
    30a4:	86 38 40 28 	xnord  %g1, %o0, %g3
    30a8:	86 38 40 29 	xnord  %g1, %o1, %g3
    30ac:	86 38 40 2a 	xnord  %g1, %o2, %g3
    30b0:	86 38 40 2b 	xnord  %g1, %o3, %g3
    30b4:	86 38 40 2c 	xnord  %g1, %o4, %g3
    30b8:	86 38 40 2d 	xnord  %g1, %o5, %g3
    30bc:	86 38 40 2e 	xnord  %g1, %sp, %g3
    30c0:	86 38 40 2f 	xnord  %g1, %o7, %g3
    30c4:	86 38 40 30 	xnord  %g1, %l0, %g3
    30c8:	86 38 40 31 	xnord  %g1, %l1, %g3
    30cc:	86 38 40 32 	xnord  %g1, %l2, %g3
    30d0:	86 38 40 33 	xnord  %g1, %l3, %g3
    30d4:	86 38 40 34 	xnord  %g1, %l4, %g3
    30d8:	86 38 40 35 	xnord  %g1, %l5, %g3
    30dc:	86 38 40 36 	xnord  %g1, %l6, %g3
    30e0:	86 38 40 37 	xnord  %g1, %l7, %g3
    30e4:	86 38 40 38 	xnord  %g1, %i0, %g3
    30e8:	86 38 40 39 	xnord  %g1, %i1, %g3
    30ec:	86 38 40 3a 	xnord  %g1, %i2, %g3
    30f0:	86 38 40 3b 	xnord  %g1, %i3, %g3
    30f4:	86 38 40 3c 	xnord  %g1, %i4, %g3
    30f8:	86 38 40 3d 	xnord  %g1, %i5, %g3
    30fc:	86 38 40 3e 	xnord  %g1, %fp, %g3
    3100:	86 38 40 3f 	xnord  %g1, %i7, %g3
    3104:	86 38 80 20 	xnord  %g2, %g0, %g3
    3108:	86 38 80 21 	xnord  %g2, %g1, %g3
    310c:	86 38 80 22 	xnord  %g2, %g2, %g3
    3110:	86 38 80 23 	xnord  %g2, %g3, %g3
    3114:	86 38 80 24 	xnord  %g2, %g4, %g3
    3118:	86 38 80 25 	xnord  %g2, %g5, %g3
    311c:	86 38 80 26 	xnord  %g2, %g6, %g3
    3120:	86 38 80 27 	xnord  %g2, %g7, %g3
    3124:	86 38 80 28 	xnord  %g2, %o0, %g3
    3128:	86 38 80 29 	xnord  %g2, %o1, %g3
    312c:	86 38 80 2a 	xnord  %g2, %o2, %g3
    3130:	86 38 80 2b 	xnord  %g2, %o3, %g3
    3134:	86 38 80 2c 	xnord  %g2, %o4, %g3
    3138:	86 38 80 2d 	xnord  %g2, %o5, %g3
    313c:	86 38 80 2e 	xnord  %g2, %sp, %g3
    3140:	86 38 80 2f 	xnord  %g2, %o7, %g3
    3144:	86 38 80 30 	xnord  %g2, %l0, %g3
    3148:	86 38 80 31 	xnord  %g2, %l1, %g3
    314c:	86 38 80 32 	xnord  %g2, %l2, %g3
    3150:	86 38 80 33 	xnord  %g2, %l3, %g3
    3154:	86 38 80 34 	xnord  %g2, %l4, %g3
    3158:	86 38 80 35 	xnord  %g2, %l5, %g3
    315c:	86 38 80 36 	xnord  %g2, %l6, %g3
    3160:	86 38 80 37 	xnord  %g2, %l7, %g3
    3164:	86 38 80 38 	xnord  %g2, %i0, %g3
    3168:	86 38 80 39 	xnord  %g2, %i1, %g3
    316c:	86 38 80 3a 	xnord  %g2, %i2, %g3
    3170:	86 38 80 3b 	xnord  %g2, %i3, %g3
    3174:	86 38 80 3c 	xnord  %g2, %i4, %g3
    3178:	86 38 80 3d 	xnord  %g2, %i5, %g3
    317c:	86 38 80 3e 	xnord  %g2, %fp, %g3
    3180:	86 38 80 3f 	xnord  %g2, %i7, %g3
    3184:	86 38 c0 20 	xnord  %g3, %g0, %g3
    3188:	86 38 c0 21 	xnord  %g3, %g1, %g3
    318c:	86 38 c0 22 	xnord  %g3, %g2, %g3
    3190:	86 38 c0 23 	xnord  %g3, %g3, %g3
    3194:	86 38 c0 24 	xnord  %g3, %g4, %g3
    3198:	86 38 c0 25 	xnord  %g3, %g5, %g3
    319c:	86 38 c0 26 	xnord  %g3, %g6, %g3
    31a0:	86 38 c0 27 	xnord  %g3, %g7, %g3
    31a4:	86 38 c0 28 	xnord  %g3, %o0, %g3
    31a8:	86 38 c0 29 	xnord  %g3, %o1, %g3
    31ac:	86 38 c0 2a 	xnord  %g3, %o2, %g3
    31b0:	86 38 c0 2b 	xnord  %g3, %o3, %g3
    31b4:	86 38 c0 2c 	xnord  %g3, %o4, %g3
    31b8:	86 38 c0 2d 	xnord  %g3, %o5, %g3
    31bc:	86 38 c0 2e 	xnord  %g3, %sp, %g3
    31c0:	86 38 c0 2f 	xnord  %g3, %o7, %g3
    31c4:	86 38 c0 30 	xnord  %g3, %l0, %g3
    31c8:	86 38 c0 31 	xnord  %g3, %l1, %g3
    31cc:	86 38 c0 32 	xnord  %g3, %l2, %g3
    31d0:	86 38 c0 33 	xnord  %g3, %l3, %g3
    31d4:	86 38 c0 34 	xnord  %g3, %l4, %g3
    31d8:	86 38 c0 35 	xnord  %g3, %l5, %g3
    31dc:	86 38 c0 36 	xnord  %g3, %l6, %g3
    31e0:	86 38 c0 37 	xnord  %g3, %l7, %g3
    31e4:	86 38 c0 38 	xnord  %g3, %i0, %g3
    31e8:	86 38 c0 39 	xnord  %g3, %i1, %g3
    31ec:	86 38 c0 3a 	xnord  %g3, %i2, %g3
    31f0:	86 38 c0 3b 	xnord  %g3, %i3, %g3
    31f4:	86 38 c0 3c 	xnord  %g3, %i4, %g3
    31f8:	86 38 c0 3d 	xnord  %g3, %i5, %g3
    31fc:	86 38 c0 3e 	xnord  %g3, %fp, %g3
    3200:	86 38 c0 3f 	xnord  %g3, %i7, %g3
    3204:	86 39 00 20 	xnord  %g4, %g0, %g3
    3208:	86 39 00 21 	xnord  %g4, %g1, %g3
    320c:	86 39 00 22 	xnord  %g4, %g2, %g3
    3210:	86 39 00 23 	xnord  %g4, %g3, %g3
    3214:	86 39 00 24 	xnord  %g4, %g4, %g3
    3218:	86 39 00 25 	xnord  %g4, %g5, %g3
    321c:	86 39 00 26 	xnord  %g4, %g6, %g3
    3220:	86 39 00 27 	xnord  %g4, %g7, %g3
    3224:	86 39 00 28 	xnord  %g4, %o0, %g3
    3228:	86 39 00 29 	xnord  %g4, %o1, %g3
    322c:	86 39 00 2a 	xnord  %g4, %o2, %g3
    3230:	86 39 00 2b 	xnord  %g4, %o3, %g3
    3234:	86 39 00 2c 	xnord  %g4, %o4, %g3
    3238:	86 39 00 2d 	xnord  %g4, %o5, %g3
    323c:	86 39 00 2e 	xnord  %g4, %sp, %g3
    3240:	86 39 00 2f 	xnord  %g4, %o7, %g3
    3244:	86 39 00 30 	xnord  %g4, %l0, %g3
    3248:	86 39 00 31 	xnord  %g4, %l1, %g3
    324c:	86 39 00 32 	xnord  %g4, %l2, %g3
    3250:	86 39 00 33 	xnord  %g4, %l3, %g3
    3254:	86 39 00 34 	xnord  %g4, %l4, %g3
    3258:	86 39 00 35 	xnord  %g4, %l5, %g3
    325c:	86 39 00 36 	xnord  %g4, %l6, %g3
    3260:	86 39 00 37 	xnord  %g4, %l7, %g3
    3264:	86 39 00 38 	xnord  %g4, %i0, %g3
    3268:	86 39 00 39 	xnord  %g4, %i1, %g3
    326c:	86 39 00 3a 	xnord  %g4, %i2, %g3
    3270:	86 39 00 3b 	xnord  %g4, %i3, %g3
    3274:	86 39 00 3c 	xnord  %g4, %i4, %g3
    3278:	86 39 00 3d 	xnord  %g4, %i5, %g3
    327c:	86 39 00 3e 	xnord  %g4, %fp, %g3
    3280:	86 39 00 3f 	xnord  %g4, %i7, %g3
    3284:	86 39 40 20 	xnord  %g5, %g0, %g3
    3288:	86 39 40 21 	xnord  %g5, %g1, %g3
    328c:	86 39 40 22 	xnord  %g5, %g2, %g3
    3290:	86 39 40 23 	xnord  %g5, %g3, %g3
    3294:	86 39 40 24 	xnord  %g5, %g4, %g3
    3298:	86 39 40 25 	xnord  %g5, %g5, %g3
    329c:	86 39 40 26 	xnord  %g5, %g6, %g3
    32a0:	86 39 40 27 	xnord  %g5, %g7, %g3
    32a4:	86 39 40 28 	xnord  %g5, %o0, %g3
    32a8:	86 39 40 29 	xnord  %g5, %o1, %g3
    32ac:	86 39 40 2a 	xnord  %g5, %o2, %g3
    32b0:	86 39 40 2b 	xnord  %g5, %o3, %g3
    32b4:	86 39 40 2c 	xnord  %g5, %o4, %g3
    32b8:	86 39 40 2d 	xnord  %g5, %o5, %g3
    32bc:	86 39 40 2e 	xnord  %g5, %sp, %g3
    32c0:	86 39 40 2f 	xnord  %g5, %o7, %g3
    32c4:	86 39 40 30 	xnord  %g5, %l0, %g3
    32c8:	86 39 40 31 	xnord  %g5, %l1, %g3
    32cc:	86 39 40 32 	xnord  %g5, %l2, %g3
    32d0:	86 39 40 33 	xnord  %g5, %l3, %g3
    32d4:	86 39 40 34 	xnord  %g5, %l4, %g3
    32d8:	86 39 40 35 	xnord  %g5, %l5, %g3
    32dc:	86 39 40 36 	xnord  %g5, %l6, %g3
    32e0:	86 39 40 37 	xnord  %g5, %l7, %g3
    32e4:	86 39 40 38 	xnord  %g5, %i0, %g3
    32e8:	86 39 40 39 	xnord  %g5, %i1, %g3
    32ec:	86 39 40 3a 	xnord  %g5, %i2, %g3
    32f0:	86 39 40 3b 	xnord  %g5, %i3, %g3
    32f4:	86 39 40 3c 	xnord  %g5, %i4, %g3
    32f8:	86 39 40 3d 	xnord  %g5, %i5, %g3
    32fc:	86 39 40 3e 	xnord  %g5, %fp, %g3
    3300:	86 39 40 3f 	xnord  %g5, %i7, %g3
    3304:	86 39 80 20 	xnord  %g6, %g0, %g3
    3308:	86 39 80 21 	xnord  %g6, %g1, %g3
    330c:	86 39 80 22 	xnord  %g6, %g2, %g3
    3310:	86 39 80 23 	xnord  %g6, %g3, %g3
    3314:	86 39 80 24 	xnord  %g6, %g4, %g3
    3318:	86 39 80 25 	xnord  %g6, %g5, %g3
    331c:	86 39 80 26 	xnord  %g6, %g6, %g3
    3320:	86 39 80 27 	xnord  %g6, %g7, %g3
    3324:	86 39 80 28 	xnord  %g6, %o0, %g3
    3328:	86 39 80 29 	xnord  %g6, %o1, %g3
    332c:	86 39 80 2a 	xnord  %g6, %o2, %g3
    3330:	86 39 80 2b 	xnord  %g6, %o3, %g3
    3334:	86 39 80 2c 	xnord  %g6, %o4, %g3
    3338:	86 39 80 2d 	xnord  %g6, %o5, %g3
    333c:	86 39 80 2e 	xnord  %g6, %sp, %g3
    3340:	86 39 80 2f 	xnord  %g6, %o7, %g3
    3344:	86 39 80 30 	xnord  %g6, %l0, %g3
    3348:	86 39 80 31 	xnord  %g6, %l1, %g3
    334c:	86 39 80 32 	xnord  %g6, %l2, %g3
    3350:	86 39 80 33 	xnord  %g6, %l3, %g3
    3354:	86 39 80 34 	xnord  %g6, %l4, %g3
    3358:	86 39 80 35 	xnord  %g6, %l5, %g3
    335c:	86 39 80 36 	xnord  %g6, %l6, %g3
    3360:	86 39 80 37 	xnord  %g6, %l7, %g3
    3364:	86 39 80 38 	xnord  %g6, %i0, %g3
    3368:	86 39 80 39 	xnord  %g6, %i1, %g3
    336c:	86 39 80 3a 	xnord  %g6, %i2, %g3
    3370:	86 39 80 3b 	xnord  %g6, %i3, %g3
    3374:	86 39 80 3c 	xnord  %g6, %i4, %g3
    3378:	86 39 80 3d 	xnord  %g6, %i5, %g3
    337c:	86 39 80 3e 	xnord  %g6, %fp, %g3
    3380:	86 39 80 3f 	xnord  %g6, %i7, %g3
    3384:	86 39 c0 20 	xnord  %g7, %g0, %g3
    3388:	86 39 c0 21 	xnord  %g7, %g1, %g3
    338c:	86 39 c0 22 	xnord  %g7, %g2, %g3
    3390:	86 39 c0 23 	xnord  %g7, %g3, %g3
    3394:	86 39 c0 24 	xnord  %g7, %g4, %g3
    3398:	86 39 c0 25 	xnord  %g7, %g5, %g3
    339c:	86 39 c0 26 	xnord  %g7, %g6, %g3
    33a0:	86 39 c0 27 	xnord  %g7, %g7, %g3
    33a4:	86 39 c0 28 	xnord  %g7, %o0, %g3
    33a8:	86 39 c0 29 	xnord  %g7, %o1, %g3
    33ac:	86 39 c0 2a 	xnord  %g7, %o2, %g3
    33b0:	86 39 c0 2b 	xnord  %g7, %o3, %g3
    33b4:	86 39 c0 2c 	xnord  %g7, %o4, %g3
    33b8:	86 39 c0 2d 	xnord  %g7, %o5, %g3
    33bc:	86 39 c0 2e 	xnord  %g7, %sp, %g3
    33c0:	86 39 c0 2f 	xnord  %g7, %o7, %g3
    33c4:	86 39 c0 30 	xnord  %g7, %l0, %g3
    33c8:	86 39 c0 31 	xnord  %g7, %l1, %g3
    33cc:	86 39 c0 32 	xnord  %g7, %l2, %g3
    33d0:	86 39 c0 33 	xnord  %g7, %l3, %g3
    33d4:	86 39 c0 34 	xnord  %g7, %l4, %g3
    33d8:	86 39 c0 35 	xnord  %g7, %l5, %g3
    33dc:	86 39 c0 36 	xnord  %g7, %l6, %g3
    33e0:	86 39 c0 37 	xnord  %g7, %l7, %g3
    33e4:	86 39 c0 38 	xnord  %g7, %i0, %g3
    33e8:	86 39 c0 39 	xnord  %g7, %i1, %g3
    33ec:	86 39 c0 3a 	xnord  %g7, %i2, %g3
    33f0:	86 39 c0 3b 	xnord  %g7, %i3, %g3
    33f4:	86 39 c0 3c 	xnord  %g7, %i4, %g3
    33f8:	86 39 c0 3d 	xnord  %g7, %i5, %g3
    33fc:	86 39 c0 3e 	xnord  %g7, %fp, %g3
    3400:	86 39 c0 3f 	xnord  %g7, %i7, %g3
    3404:	86 3a 00 20 	xnord  %o0, %g0, %g3
    3408:	86 3a 00 21 	xnord  %o0, %g1, %g3
    340c:	86 3a 00 22 	xnord  %o0, %g2, %g3
    3410:	86 3a 00 23 	xnord  %o0, %g3, %g3
    3414:	86 3a 00 24 	xnord  %o0, %g4, %g3
    3418:	86 3a 00 25 	xnord  %o0, %g5, %g3
    341c:	86 3a 00 26 	xnord  %o0, %g6, %g3
    3420:	86 3a 00 27 	xnord  %o0, %g7, %g3
    3424:	86 3a 00 28 	xnord  %o0, %o0, %g3
    3428:	86 3a 00 29 	xnord  %o0, %o1, %g3
    342c:	86 3a 00 2a 	xnord  %o0, %o2, %g3
    3430:	86 3a 00 2b 	xnord  %o0, %o3, %g3
    3434:	86 3a 00 2c 	xnord  %o0, %o4, %g3
    3438:	86 3a 00 2d 	xnord  %o0, %o5, %g3
    343c:	86 3a 00 2e 	xnord  %o0, %sp, %g3
    3440:	86 3a 00 2f 	xnord  %o0, %o7, %g3
    3444:	86 3a 00 30 	xnord  %o0, %l0, %g3
    3448:	86 3a 00 31 	xnord  %o0, %l1, %g3
    344c:	86 3a 00 32 	xnord  %o0, %l2, %g3
    3450:	86 3a 00 33 	xnord  %o0, %l3, %g3
    3454:	86 3a 00 34 	xnord  %o0, %l4, %g3
    3458:	86 3a 00 35 	xnord  %o0, %l5, %g3
    345c:	86 3a 00 36 	xnord  %o0, %l6, %g3
    3460:	86 3a 00 37 	xnord  %o0, %l7, %g3
    3464:	86 3a 00 38 	xnord  %o0, %i0, %g3
    3468:	86 3a 00 39 	xnord  %o0, %i1, %g3
    346c:	86 3a 00 3a 	xnord  %o0, %i2, %g3
    3470:	86 3a 00 3b 	xnord  %o0, %i3, %g3
    3474:	86 3a 00 3c 	xnord  %o0, %i4, %g3
    3478:	86 3a 00 3d 	xnord  %o0, %i5, %g3
    347c:	86 3a 00 3e 	xnord  %o0, %fp, %g3
    3480:	86 3a 00 3f 	xnord  %o0, %i7, %g3
    3484:	86 3a 40 20 	xnord  %o1, %g0, %g3
    3488:	86 3a 40 21 	xnord  %o1, %g1, %g3
    348c:	86 3a 40 22 	xnord  %o1, %g2, %g3
    3490:	86 3a 40 23 	xnord  %o1, %g3, %g3
    3494:	86 3a 40 24 	xnord  %o1, %g4, %g3
    3498:	86 3a 40 25 	xnord  %o1, %g5, %g3
    349c:	86 3a 40 26 	xnord  %o1, %g6, %g3
    34a0:	86 3a 40 27 	xnord  %o1, %g7, %g3
    34a4:	86 3a 40 28 	xnord  %o1, %o0, %g3
    34a8:	86 3a 40 29 	xnord  %o1, %o1, %g3
    34ac:	86 3a 40 2a 	xnord  %o1, %o2, %g3
    34b0:	86 3a 40 2b 	xnord  %o1, %o3, %g3
    34b4:	86 3a 40 2c 	xnord  %o1, %o4, %g3
    34b8:	86 3a 40 2d 	xnord  %o1, %o5, %g3
    34bc:	86 3a 40 2e 	xnord  %o1, %sp, %g3
    34c0:	86 3a 40 2f 	xnord  %o1, %o7, %g3
    34c4:	86 3a 40 30 	xnord  %o1, %l0, %g3
    34c8:	86 3a 40 31 	xnord  %o1, %l1, %g3
    34cc:	86 3a 40 32 	xnord  %o1, %l2, %g3
    34d0:	86 3a 40 33 	xnord  %o1, %l3, %g3
    34d4:	86 3a 40 34 	xnord  %o1, %l4, %g3
    34d8:	86 3a 40 35 	xnord  %o1, %l5, %g3
    34dc:	86 3a 40 36 	xnord  %o1, %l6, %g3
    34e0:	86 3a 40 37 	xnord  %o1, %l7, %g3
    34e4:	86 3a 40 38 	xnord  %o1, %i0, %g3
    34e8:	86 3a 40 39 	xnord  %o1, %i1, %g3
    34ec:	86 3a 40 3a 	xnord  %o1, %i2, %g3
    34f0:	86 3a 40 3b 	xnord  %o1, %i3, %g3
    34f4:	86 3a 40 3c 	xnord  %o1, %i4, %g3
    34f8:	86 3a 40 3d 	xnord  %o1, %i5, %g3
    34fc:	86 3a 40 3e 	xnord  %o1, %fp, %g3
    3500:	86 3a 40 3f 	xnord  %o1, %i7, %g3
    3504:	86 3a 80 20 	xnord  %o2, %g0, %g3
    3508:	86 3a 80 21 	xnord  %o2, %g1, %g3
    350c:	86 3a 80 22 	xnord  %o2, %g2, %g3
    3510:	86 3a 80 23 	xnord  %o2, %g3, %g3
    3514:	86 3a 80 24 	xnord  %o2, %g4, %g3
    3518:	86 3a 80 25 	xnord  %o2, %g5, %g3
    351c:	86 3a 80 26 	xnord  %o2, %g6, %g3
    3520:	86 3a 80 27 	xnord  %o2, %g7, %g3
    3524:	86 3a 80 28 	xnord  %o2, %o0, %g3
    3528:	86 3a 80 29 	xnord  %o2, %o1, %g3
    352c:	86 3a 80 2a 	xnord  %o2, %o2, %g3
    3530:	86 3a 80 2b 	xnord  %o2, %o3, %g3
    3534:	86 3a 80 2c 	xnord  %o2, %o4, %g3
    3538:	86 3a 80 2d 	xnord  %o2, %o5, %g3
    353c:	86 3a 80 2e 	xnord  %o2, %sp, %g3
    3540:	86 3a 80 2f 	xnord  %o2, %o7, %g3
    3544:	86 3a 80 30 	xnord  %o2, %l0, %g3
    3548:	86 3a 80 31 	xnord  %o2, %l1, %g3
    354c:	86 3a 80 32 	xnord  %o2, %l2, %g3
    3550:	86 3a 80 33 	xnord  %o2, %l3, %g3
    3554:	86 3a 80 34 	xnord  %o2, %l4, %g3
    3558:	86 3a 80 35 	xnord  %o2, %l5, %g3
    355c:	86 3a 80 36 	xnord  %o2, %l6, %g3
    3560:	86 3a 80 37 	xnord  %o2, %l7, %g3
    3564:	86 3a 80 38 	xnord  %o2, %i0, %g3
    3568:	86 3a 80 39 	xnord  %o2, %i1, %g3
    356c:	86 3a 80 3a 	xnord  %o2, %i2, %g3
    3570:	86 3a 80 3b 	xnord  %o2, %i3, %g3
    3574:	86 3a 80 3c 	xnord  %o2, %i4, %g3
    3578:	86 3a 80 3d 	xnord  %o2, %i5, %g3
    357c:	86 3a 80 3e 	xnord  %o2, %fp, %g3
    3580:	86 3a 80 3f 	xnord  %o2, %i7, %g3
    3584:	86 3a c0 20 	xnord  %o3, %g0, %g3
    3588:	86 3a c0 21 	xnord  %o3, %g1, %g3
    358c:	86 3a c0 22 	xnord  %o3, %g2, %g3
    3590:	86 3a c0 23 	xnord  %o3, %g3, %g3
    3594:	86 3a c0 24 	xnord  %o3, %g4, %g3
    3598:	86 3a c0 25 	xnord  %o3, %g5, %g3
    359c:	86 3a c0 26 	xnord  %o3, %g6, %g3
    35a0:	86 3a c0 27 	xnord  %o3, %g7, %g3
    35a4:	86 3a c0 28 	xnord  %o3, %o0, %g3
    35a8:	86 3a c0 29 	xnord  %o3, %o1, %g3
    35ac:	86 3a c0 2a 	xnord  %o3, %o2, %g3
    35b0:	86 3a c0 2b 	xnord  %o3, %o3, %g3
    35b4:	86 3a c0 2c 	xnord  %o3, %o4, %g3
    35b8:	86 3a c0 2d 	xnord  %o3, %o5, %g3
    35bc:	86 3a c0 2e 	xnord  %o3, %sp, %g3
    35c0:	86 3a c0 2f 	xnord  %o3, %o7, %g3
    35c4:	86 3a c0 30 	xnord  %o3, %l0, %g3
    35c8:	86 3a c0 31 	xnord  %o3, %l1, %g3
    35cc:	86 3a c0 32 	xnord  %o3, %l2, %g3
    35d0:	86 3a c0 33 	xnord  %o3, %l3, %g3
    35d4:	86 3a c0 34 	xnord  %o3, %l4, %g3
    35d8:	86 3a c0 35 	xnord  %o3, %l5, %g3
    35dc:	86 3a c0 36 	xnord  %o3, %l6, %g3
    35e0:	86 3a c0 37 	xnord  %o3, %l7, %g3
    35e4:	86 3a c0 38 	xnord  %o3, %i0, %g3
    35e8:	86 3a c0 39 	xnord  %o3, %i1, %g3
    35ec:	86 3a c0 3a 	xnord  %o3, %i2, %g3
    35f0:	86 3a c0 3b 	xnord  %o3, %i3, %g3
    35f4:	86 3a c0 3c 	xnord  %o3, %i4, %g3
    35f8:	86 3a c0 3d 	xnord  %o3, %i5, %g3
    35fc:	86 3a c0 3e 	xnord  %o3, %fp, %g3
    3600:	86 3a c0 3f 	xnord  %o3, %i7, %g3
    3604:	86 3b 00 20 	xnord  %o4, %g0, %g3
    3608:	86 3b 00 21 	xnord  %o4, %g1, %g3
    360c:	86 3b 00 22 	xnord  %o4, %g2, %g3
    3610:	86 3b 00 23 	xnord  %o4, %g3, %g3
    3614:	86 3b 00 24 	xnord  %o4, %g4, %g3
    3618:	86 3b 00 25 	xnord  %o4, %g5, %g3
    361c:	86 3b 00 26 	xnord  %o4, %g6, %g3
    3620:	86 3b 00 27 	xnord  %o4, %g7, %g3
    3624:	86 3b 00 28 	xnord  %o4, %o0, %g3
    3628:	86 3b 00 29 	xnord  %o4, %o1, %g3
    362c:	86 3b 00 2a 	xnord  %o4, %o2, %g3
    3630:	86 3b 00 2b 	xnord  %o4, %o3, %g3
    3634:	86 3b 00 2c 	xnord  %o4, %o4, %g3
    3638:	86 3b 00 2d 	xnord  %o4, %o5, %g3
    363c:	86 3b 00 2e 	xnord  %o4, %sp, %g3
    3640:	86 3b 00 2f 	xnord  %o4, %o7, %g3
    3644:	86 3b 00 30 	xnord  %o4, %l0, %g3
    3648:	86 3b 00 31 	xnord  %o4, %l1, %g3
    364c:	86 3b 00 32 	xnord  %o4, %l2, %g3
    3650:	86 3b 00 33 	xnord  %o4, %l3, %g3
    3654:	86 3b 00 34 	xnord  %o4, %l4, %g3
    3658:	86 3b 00 35 	xnord  %o4, %l5, %g3
    365c:	86 3b 00 36 	xnord  %o4, %l6, %g3
    3660:	86 3b 00 37 	xnord  %o4, %l7, %g3
    3664:	86 3b 00 38 	xnord  %o4, %i0, %g3
    3668:	86 3b 00 39 	xnord  %o4, %i1, %g3
    366c:	86 3b 00 3a 	xnord  %o4, %i2, %g3
    3670:	86 3b 00 3b 	xnord  %o4, %i3, %g3
    3674:	86 3b 00 3c 	xnord  %o4, %i4, %g3
    3678:	86 3b 00 3d 	xnord  %o4, %i5, %g3
    367c:	86 3b 00 3e 	xnord  %o4, %fp, %g3
    3680:	86 3b 00 3f 	xnord  %o4, %i7, %g3
    3684:	86 3b 40 20 	xnord  %o5, %g0, %g3
    3688:	86 3b 40 21 	xnord  %o5, %g1, %g3
    368c:	86 3b 40 22 	xnord  %o5, %g2, %g3
    3690:	86 3b 40 23 	xnord  %o5, %g3, %g3
    3694:	86 3b 40 24 	xnord  %o5, %g4, %g3
    3698:	86 3b 40 25 	xnord  %o5, %g5, %g3
    369c:	86 3b 40 26 	xnord  %o5, %g6, %g3
    36a0:	86 3b 40 27 	xnord  %o5, %g7, %g3
    36a4:	86 3b 40 28 	xnord  %o5, %o0, %g3
    36a8:	86 3b 40 29 	xnord  %o5, %o1, %g3
    36ac:	86 3b 40 2a 	xnord  %o5, %o2, %g3
    36b0:	86 3b 40 2b 	xnord  %o5, %o3, %g3
    36b4:	86 3b 40 2c 	xnord  %o5, %o4, %g3
    36b8:	86 3b 40 2d 	xnord  %o5, %o5, %g3
    36bc:	86 3b 40 2e 	xnord  %o5, %sp, %g3
    36c0:	86 3b 40 2f 	xnord  %o5, %o7, %g3
    36c4:	86 3b 40 30 	xnord  %o5, %l0, %g3
    36c8:	86 3b 40 31 	xnord  %o5, %l1, %g3
    36cc:	86 3b 40 32 	xnord  %o5, %l2, %g3
    36d0:	86 3b 40 33 	xnord  %o5, %l3, %g3
    36d4:	86 3b 40 34 	xnord  %o5, %l4, %g3
    36d8:	86 3b 40 35 	xnord  %o5, %l5, %g3
    36dc:	86 3b 40 36 	xnord  %o5, %l6, %g3
    36e0:	86 3b 40 37 	xnord  %o5, %l7, %g3
    36e4:	86 3b 40 38 	xnord  %o5, %i0, %g3
    36e8:	86 3b 40 39 	xnord  %o5, %i1, %g3
    36ec:	86 3b 40 3a 	xnord  %o5, %i2, %g3
    36f0:	86 3b 40 3b 	xnord  %o5, %i3, %g3
    36f4:	86 3b 40 3c 	xnord  %o5, %i4, %g3
    36f8:	86 3b 40 3d 	xnord  %o5, %i5, %g3
    36fc:	86 3b 40 3e 	xnord  %o5, %fp, %g3
    3700:	86 3b 40 3f 	xnord  %o5, %i7, %g3
    3704:	86 3b 80 20 	xnord  %sp, %g0, %g3
    3708:	86 3b 80 21 	xnord  %sp, %g1, %g3
    370c:	86 3b 80 22 	xnord  %sp, %g2, %g3
    3710:	86 3b 80 23 	xnord  %sp, %g3, %g3
    3714:	86 3b 80 24 	xnord  %sp, %g4, %g3
    3718:	86 3b 80 25 	xnord  %sp, %g5, %g3
    371c:	86 3b 80 26 	xnord  %sp, %g6, %g3
    3720:	86 3b 80 27 	xnord  %sp, %g7, %g3
    3724:	86 3b 80 28 	xnord  %sp, %o0, %g3
    3728:	86 3b 80 29 	xnord  %sp, %o1, %g3
    372c:	86 3b 80 2a 	xnord  %sp, %o2, %g3
    3730:	86 3b 80 2b 	xnord  %sp, %o3, %g3
    3734:	86 3b 80 2c 	xnord  %sp, %o4, %g3
    3738:	86 3b 80 2d 	xnord  %sp, %o5, %g3
    373c:	86 3b 80 2e 	xnord  %sp, %sp, %g3
    3740:	86 3b 80 2f 	xnord  %sp, %o7, %g3
    3744:	86 3b 80 30 	xnord  %sp, %l0, %g3
    3748:	86 3b 80 31 	xnord  %sp, %l1, %g3
    374c:	86 3b 80 32 	xnord  %sp, %l2, %g3
    3750:	86 3b 80 33 	xnord  %sp, %l3, %g3
    3754:	86 3b 80 34 	xnord  %sp, %l4, %g3
    3758:	86 3b 80 35 	xnord  %sp, %l5, %g3
    375c:	86 3b 80 36 	xnord  %sp, %l6, %g3
    3760:	86 3b 80 37 	xnord  %sp, %l7, %g3
    3764:	86 3b 80 38 	xnord  %sp, %i0, %g3
    3768:	86 3b 80 39 	xnord  %sp, %i1, %g3
    376c:	86 3b 80 3a 	xnord  %sp, %i2, %g3
    3770:	86 3b 80 3b 	xnord  %sp, %i3, %g3
    3774:	86 3b 80 3c 	xnord  %sp, %i4, %g3
    3778:	86 3b 80 3d 	xnord  %sp, %i5, %g3
    377c:	86 3b 80 3e 	xnord  %sp, %fp, %g3
    3780:	86 3b 80 3f 	xnord  %sp, %i7, %g3
    3784:	86 3b c0 20 	xnord  %o7, %g0, %g3
    3788:	86 3b c0 21 	xnord  %o7, %g1, %g3
    378c:	86 3b c0 22 	xnord  %o7, %g2, %g3
    3790:	86 3b c0 23 	xnord  %o7, %g3, %g3
    3794:	86 3b c0 24 	xnord  %o7, %g4, %g3
    3798:	86 3b c0 25 	xnord  %o7, %g5, %g3
    379c:	86 3b c0 26 	xnord  %o7, %g6, %g3
    37a0:	86 3b c0 27 	xnord  %o7, %g7, %g3
    37a4:	86 3b c0 28 	xnord  %o7, %o0, %g3
    37a8:	86 3b c0 29 	xnord  %o7, %o1, %g3
    37ac:	86 3b c0 2a 	xnord  %o7, %o2, %g3
    37b0:	86 3b c0 2b 	xnord  %o7, %o3, %g3
    37b4:	86 3b c0 2c 	xnord  %o7, %o4, %g3
    37b8:	86 3b c0 2d 	xnord  %o7, %o5, %g3
    37bc:	86 3b c0 2e 	xnord  %o7, %sp, %g3
    37c0:	86 3b c0 2f 	xnord  %o7, %o7, %g3
    37c4:	86 3b c0 30 	xnord  %o7, %l0, %g3
    37c8:	86 3b c0 31 	xnord  %o7, %l1, %g3
    37cc:	86 3b c0 32 	xnord  %o7, %l2, %g3
    37d0:	86 3b c0 33 	xnord  %o7, %l3, %g3
    37d4:	86 3b c0 34 	xnord  %o7, %l4, %g3
    37d8:	86 3b c0 35 	xnord  %o7, %l5, %g3
    37dc:	86 3b c0 36 	xnord  %o7, %l6, %g3
    37e0:	86 3b c0 37 	xnord  %o7, %l7, %g3
    37e4:	86 3b c0 38 	xnord  %o7, %i0, %g3
    37e8:	86 3b c0 39 	xnord  %o7, %i1, %g3
    37ec:	86 3b c0 3a 	xnord  %o7, %i2, %g3
    37f0:	86 3b c0 3b 	xnord  %o7, %i3, %g3
    37f4:	86 3b c0 3c 	xnord  %o7, %i4, %g3
    37f8:	86 3b c0 3d 	xnord  %o7, %i5, %g3
    37fc:	86 3b c0 3e 	xnord  %o7, %fp, %g3
    3800:	86 3b c0 3f 	xnord  %o7, %i7, %g3
    3804:	86 3c 00 20 	xnord  %l0, %g0, %g3
    3808:	86 3c 00 21 	xnord  %l0, %g1, %g3
    380c:	86 3c 00 22 	xnord  %l0, %g2, %g3
    3810:	86 3c 00 23 	xnord  %l0, %g3, %g3
    3814:	86 3c 00 24 	xnord  %l0, %g4, %g3
    3818:	86 3c 00 25 	xnord  %l0, %g5, %g3
    381c:	86 3c 00 26 	xnord  %l0, %g6, %g3
    3820:	86 3c 00 27 	xnord  %l0, %g7, %g3
    3824:	86 3c 00 28 	xnord  %l0, %o0, %g3
    3828:	86 3c 00 29 	xnord  %l0, %o1, %g3
    382c:	86 3c 00 2a 	xnord  %l0, %o2, %g3
    3830:	86 3c 00 2b 	xnord  %l0, %o3, %g3
    3834:	86 3c 00 2c 	xnord  %l0, %o4, %g3
    3838:	86 3c 00 2d 	xnord  %l0, %o5, %g3
    383c:	86 3c 00 2e 	xnord  %l0, %sp, %g3
    3840:	86 3c 00 2f 	xnord  %l0, %o7, %g3
    3844:	86 3c 00 30 	xnord  %l0, %l0, %g3
    3848:	86 3c 00 31 	xnord  %l0, %l1, %g3
    384c:	86 3c 00 32 	xnord  %l0, %l2, %g3
    3850:	86 3c 00 33 	xnord  %l0, %l3, %g3
    3854:	86 3c 00 34 	xnord  %l0, %l4, %g3
    3858:	86 3c 00 35 	xnord  %l0, %l5, %g3
    385c:	86 3c 00 36 	xnord  %l0, %l6, %g3
    3860:	86 3c 00 37 	xnord  %l0, %l7, %g3
    3864:	86 3c 00 38 	xnord  %l0, %i0, %g3
    3868:	86 3c 00 39 	xnord  %l0, %i1, %g3
    386c:	86 3c 00 3a 	xnord  %l0, %i2, %g3
    3870:	86 3c 00 3b 	xnord  %l0, %i3, %g3
    3874:	86 3c 00 3c 	xnord  %l0, %i4, %g3
    3878:	86 3c 00 3d 	xnord  %l0, %i5, %g3
    387c:	86 3c 00 3e 	xnord  %l0, %fp, %g3
    3880:	86 3c 00 3f 	xnord  %l0, %i7, %g3
    3884:	86 3c 40 20 	xnord  %l1, %g0, %g3
    3888:	86 3c 40 21 	xnord  %l1, %g1, %g3
    388c:	86 3c 40 22 	xnord  %l1, %g2, %g3
    3890:	86 3c 40 23 	xnord  %l1, %g3, %g3
    3894:	86 3c 40 24 	xnord  %l1, %g4, %g3
    3898:	86 3c 40 25 	xnord  %l1, %g5, %g3
    389c:	86 3c 40 26 	xnord  %l1, %g6, %g3
    38a0:	86 3c 40 27 	xnord  %l1, %g7, %g3
    38a4:	86 3c 40 28 	xnord  %l1, %o0, %g3
    38a8:	86 3c 40 29 	xnord  %l1, %o1, %g3
    38ac:	86 3c 40 2a 	xnord  %l1, %o2, %g3
    38b0:	86 3c 40 2b 	xnord  %l1, %o3, %g3
    38b4:	86 3c 40 2c 	xnord  %l1, %o4, %g3
    38b8:	86 3c 40 2d 	xnord  %l1, %o5, %g3
    38bc:	86 3c 40 2e 	xnord  %l1, %sp, %g3
    38c0:	86 3c 40 2f 	xnord  %l1, %o7, %g3
    38c4:	86 3c 40 30 	xnord  %l1, %l0, %g3
    38c8:	86 3c 40 31 	xnord  %l1, %l1, %g3
    38cc:	86 3c 40 32 	xnord  %l1, %l2, %g3
    38d0:	86 3c 40 33 	xnord  %l1, %l3, %g3
    38d4:	86 3c 40 34 	xnord  %l1, %l4, %g3
    38d8:	86 3c 40 35 	xnord  %l1, %l5, %g3
    38dc:	86 3c 40 36 	xnord  %l1, %l6, %g3
    38e0:	86 3c 40 37 	xnord  %l1, %l7, %g3
    38e4:	86 3c 40 38 	xnord  %l1, %i0, %g3
    38e8:	86 3c 40 39 	xnord  %l1, %i1, %g3
    38ec:	86 3c 40 3a 	xnord  %l1, %i2, %g3
    38f0:	86 3c 40 3b 	xnord  %l1, %i3, %g3
    38f4:	86 3c 40 3c 	xnord  %l1, %i4, %g3
    38f8:	86 3c 40 3d 	xnord  %l1, %i5, %g3
    38fc:	86 3c 40 3e 	xnord  %l1, %fp, %g3
    3900:	86 3c 40 3f 	xnord  %l1, %i7, %g3
    3904:	86 3c 80 20 	xnord  %l2, %g0, %g3
    3908:	86 3c 80 21 	xnord  %l2, %g1, %g3
    390c:	86 3c 80 22 	xnord  %l2, %g2, %g3
    3910:	86 3c 80 23 	xnord  %l2, %g3, %g3
    3914:	86 3c 80 24 	xnord  %l2, %g4, %g3
    3918:	86 3c 80 25 	xnord  %l2, %g5, %g3
    391c:	86 3c 80 26 	xnord  %l2, %g6, %g3
    3920:	86 3c 80 27 	xnord  %l2, %g7, %g3
    3924:	86 3c 80 28 	xnord  %l2, %o0, %g3
    3928:	86 3c 80 29 	xnord  %l2, %o1, %g3
    392c:	86 3c 80 2a 	xnord  %l2, %o2, %g3
    3930:	86 3c 80 2b 	xnord  %l2, %o3, %g3
    3934:	86 3c 80 2c 	xnord  %l2, %o4, %g3
    3938:	86 3c 80 2d 	xnord  %l2, %o5, %g3
    393c:	86 3c 80 2e 	xnord  %l2, %sp, %g3
    3940:	86 3c 80 2f 	xnord  %l2, %o7, %g3
    3944:	86 3c 80 30 	xnord  %l2, %l0, %g3
    3948:	86 3c 80 31 	xnord  %l2, %l1, %g3
    394c:	86 3c 80 32 	xnord  %l2, %l2, %g3
    3950:	86 3c 80 33 	xnord  %l2, %l3, %g3
    3954:	86 3c 80 34 	xnord  %l2, %l4, %g3
    3958:	86 3c 80 35 	xnord  %l2, %l5, %g3
    395c:	86 3c 80 36 	xnord  %l2, %l6, %g3
    3960:	86 3c 80 37 	xnord  %l2, %l7, %g3
    3964:	86 3c 80 38 	xnord  %l2, %i0, %g3
    3968:	86 3c 80 39 	xnord  %l2, %i1, %g3
    396c:	86 3c 80 3a 	xnord  %l2, %i2, %g3
    3970:	86 3c 80 3b 	xnord  %l2, %i3, %g3
    3974:	86 3c 80 3c 	xnord  %l2, %i4, %g3
    3978:	86 3c 80 3d 	xnord  %l2, %i5, %g3
    397c:	86 3c 80 3e 	xnord  %l2, %fp, %g3
    3980:	86 3c 80 3f 	xnord  %l2, %i7, %g3
    3984:	86 3c c0 20 	xnord  %l3, %g0, %g3
    3988:	86 3c c0 21 	xnord  %l3, %g1, %g3
    398c:	86 3c c0 22 	xnord  %l3, %g2, %g3
    3990:	86 3c c0 23 	xnord  %l3, %g3, %g3
    3994:	86 3c c0 24 	xnord  %l3, %g4, %g3
    3998:	86 3c c0 25 	xnord  %l3, %g5, %g3
    399c:	86 3c c0 26 	xnord  %l3, %g6, %g3
    39a0:	86 3c c0 27 	xnord  %l3, %g7, %g3
    39a4:	86 3c c0 28 	xnord  %l3, %o0, %g3
    39a8:	86 3c c0 29 	xnord  %l3, %o1, %g3
    39ac:	86 3c c0 2a 	xnord  %l3, %o2, %g3
    39b0:	86 3c c0 2b 	xnord  %l3, %o3, %g3
    39b4:	86 3c c0 2c 	xnord  %l3, %o4, %g3
    39b8:	86 3c c0 2d 	xnord  %l3, %o5, %g3
    39bc:	86 3c c0 2e 	xnord  %l3, %sp, %g3
    39c0:	86 3c c0 2f 	xnord  %l3, %o7, %g3
    39c4:	86 3c c0 30 	xnord  %l3, %l0, %g3
    39c8:	86 3c c0 31 	xnord  %l3, %l1, %g3
    39cc:	86 3c c0 32 	xnord  %l3, %l2, %g3
    39d0:	86 3c c0 33 	xnord  %l3, %l3, %g3
    39d4:	86 3c c0 34 	xnord  %l3, %l4, %g3
    39d8:	86 3c c0 35 	xnord  %l3, %l5, %g3
    39dc:	86 3c c0 36 	xnord  %l3, %l6, %g3
    39e0:	86 3c c0 37 	xnord  %l3, %l7, %g3
    39e4:	86 3c c0 38 	xnord  %l3, %i0, %g3
    39e8:	86 3c c0 39 	xnord  %l3, %i1, %g3
    39ec:	86 3c c0 3a 	xnord  %l3, %i2, %g3
    39f0:	86 3c c0 3b 	xnord  %l3, %i3, %g3
    39f4:	86 3c c0 3c 	xnord  %l3, %i4, %g3
    39f8:	86 3c c0 3d 	xnord  %l3, %i5, %g3
    39fc:	86 3c c0 3e 	xnord  %l3, %fp, %g3
    3a00:	86 3c c0 3f 	xnord  %l3, %i7, %g3
    3a04:	86 3d 00 20 	xnord  %l4, %g0, %g3
    3a08:	86 3d 00 21 	xnord  %l4, %g1, %g3
    3a0c:	86 3d 00 22 	xnord  %l4, %g2, %g3
    3a10:	86 3d 00 23 	xnord  %l4, %g3, %g3
    3a14:	86 3d 00 24 	xnord  %l4, %g4, %g3
    3a18:	86 3d 00 25 	xnord  %l4, %g5, %g3
    3a1c:	86 3d 00 26 	xnord  %l4, %g6, %g3
    3a20:	86 3d 00 27 	xnord  %l4, %g7, %g3
    3a24:	86 3d 00 28 	xnord  %l4, %o0, %g3
    3a28:	86 3d 00 29 	xnord  %l4, %o1, %g3
    3a2c:	86 3d 00 2a 	xnord  %l4, %o2, %g3
    3a30:	86 3d 00 2b 	xnord  %l4, %o3, %g3
    3a34:	86 3d 00 2c 	xnord  %l4, %o4, %g3
    3a38:	86 3d 00 2d 	xnord  %l4, %o5, %g3
    3a3c:	86 3d 00 2e 	xnord  %l4, %sp, %g3
    3a40:	86 3d 00 2f 	xnord  %l4, %o7, %g3
    3a44:	86 3d 00 30 	xnord  %l4, %l0, %g3
    3a48:	86 3d 00 31 	xnord  %l4, %l1, %g3
    3a4c:	86 3d 00 32 	xnord  %l4, %l2, %g3
    3a50:	86 3d 00 33 	xnord  %l4, %l3, %g3
    3a54:	86 3d 00 34 	xnord  %l4, %l4, %g3
    3a58:	86 3d 00 35 	xnord  %l4, %l5, %g3
    3a5c:	86 3d 00 36 	xnord  %l4, %l6, %g3
    3a60:	86 3d 00 37 	xnord  %l4, %l7, %g3
    3a64:	86 3d 00 38 	xnord  %l4, %i0, %g3
    3a68:	86 3d 00 39 	xnord  %l4, %i1, %g3
    3a6c:	86 3d 00 3a 	xnord  %l4, %i2, %g3
    3a70:	86 3d 00 3b 	xnord  %l4, %i3, %g3
    3a74:	86 3d 00 3c 	xnord  %l4, %i4, %g3
    3a78:	86 3d 00 3d 	xnord  %l4, %i5, %g3
    3a7c:	86 3d 00 3e 	xnord  %l4, %fp, %g3
    3a80:	86 3d 00 3f 	xnord  %l4, %i7, %g3
    3a84:	86 3d 40 20 	xnord  %l5, %g0, %g3
    3a88:	86 3d 40 21 	xnord  %l5, %g1, %g3
    3a8c:	86 3d 40 22 	xnord  %l5, %g2, %g3
    3a90:	86 3d 40 23 	xnord  %l5, %g3, %g3
    3a94:	86 3d 40 24 	xnord  %l5, %g4, %g3
    3a98:	86 3d 40 25 	xnord  %l5, %g5, %g3
    3a9c:	86 3d 40 26 	xnord  %l5, %g6, %g3
    3aa0:	86 3d 40 27 	xnord  %l5, %g7, %g3
    3aa4:	86 3d 40 28 	xnord  %l5, %o0, %g3
    3aa8:	86 3d 40 29 	xnord  %l5, %o1, %g3
    3aac:	86 3d 40 2a 	xnord  %l5, %o2, %g3
    3ab0:	86 3d 40 2b 	xnord  %l5, %o3, %g3
    3ab4:	86 3d 40 2c 	xnord  %l5, %o4, %g3
    3ab8:	86 3d 40 2d 	xnord  %l5, %o5, %g3
    3abc:	86 3d 40 2e 	xnord  %l5, %sp, %g3
    3ac0:	86 3d 40 2f 	xnord  %l5, %o7, %g3
    3ac4:	86 3d 40 30 	xnord  %l5, %l0, %g3
    3ac8:	86 3d 40 31 	xnord  %l5, %l1, %g3
    3acc:	86 3d 40 32 	xnord  %l5, %l2, %g3
    3ad0:	86 3d 40 33 	xnord  %l5, %l3, %g3
    3ad4:	86 3d 40 34 	xnord  %l5, %l4, %g3
    3ad8:	86 3d 40 35 	xnord  %l5, %l5, %g3
    3adc:	86 3d 40 36 	xnord  %l5, %l6, %g3
    3ae0:	86 3d 40 37 	xnord  %l5, %l7, %g3
    3ae4:	86 3d 40 38 	xnord  %l5, %i0, %g3
    3ae8:	86 3d 40 39 	xnord  %l5, %i1, %g3
    3aec:	86 3d 40 3a 	xnord  %l5, %i2, %g3
    3af0:	86 3d 40 3b 	xnord  %l5, %i3, %g3
    3af4:	86 3d 40 3c 	xnord  %l5, %i4, %g3
    3af8:	86 3d 40 3d 	xnord  %l5, %i5, %g3
    3afc:	86 3d 40 3e 	xnord  %l5, %fp, %g3
    3b00:	86 3d 40 3f 	xnord  %l5, %i7, %g3
    3b04:	86 3d 80 20 	xnord  %l6, %g0, %g3
    3b08:	86 3d 80 21 	xnord  %l6, %g1, %g3
    3b0c:	86 3d 80 22 	xnord  %l6, %g2, %g3
    3b10:	86 3d 80 23 	xnord  %l6, %g3, %g3
    3b14:	86 3d 80 24 	xnord  %l6, %g4, %g3
    3b18:	86 3d 80 25 	xnord  %l6, %g5, %g3
    3b1c:	86 3d 80 26 	xnord  %l6, %g6, %g3
    3b20:	86 3d 80 27 	xnord  %l6, %g7, %g3
    3b24:	86 3d 80 28 	xnord  %l6, %o0, %g3
    3b28:	86 3d 80 29 	xnord  %l6, %o1, %g3
    3b2c:	86 3d 80 2a 	xnord  %l6, %o2, %g3
    3b30:	86 3d 80 2b 	xnord  %l6, %o3, %g3
    3b34:	86 3d 80 2c 	xnord  %l6, %o4, %g3
    3b38:	86 3d 80 2d 	xnord  %l6, %o5, %g3
    3b3c:	86 3d 80 2e 	xnord  %l6, %sp, %g3
    3b40:	86 3d 80 2f 	xnord  %l6, %o7, %g3
    3b44:	86 3d 80 30 	xnord  %l6, %l0, %g3
    3b48:	86 3d 80 31 	xnord  %l6, %l1, %g3
    3b4c:	86 3d 80 32 	xnord  %l6, %l2, %g3
    3b50:	86 3d 80 33 	xnord  %l6, %l3, %g3
    3b54:	86 3d 80 34 	xnord  %l6, %l4, %g3
    3b58:	86 3d 80 35 	xnord  %l6, %l5, %g3
    3b5c:	86 3d 80 36 	xnord  %l6, %l6, %g3
    3b60:	86 3d 80 37 	xnord  %l6, %l7, %g3
    3b64:	86 3d 80 38 	xnord  %l6, %i0, %g3
    3b68:	86 3d 80 39 	xnord  %l6, %i1, %g3
    3b6c:	86 3d 80 3a 	xnord  %l6, %i2, %g3
    3b70:	86 3d 80 3b 	xnord  %l6, %i3, %g3
    3b74:	86 3d 80 3c 	xnord  %l6, %i4, %g3
    3b78:	86 3d 80 3d 	xnord  %l6, %i5, %g3
    3b7c:	86 3d 80 3e 	xnord  %l6, %fp, %g3
    3b80:	86 3d 80 3f 	xnord  %l6, %i7, %g3
    3b84:	86 3d c0 20 	xnord  %l7, %g0, %g3
    3b88:	86 3d c0 21 	xnord  %l7, %g1, %g3
    3b8c:	86 3d c0 22 	xnord  %l7, %g2, %g3
    3b90:	86 3d c0 23 	xnord  %l7, %g3, %g3
    3b94:	86 3d c0 24 	xnord  %l7, %g4, %g3
    3b98:	86 3d c0 25 	xnord  %l7, %g5, %g3
    3b9c:	86 3d c0 26 	xnord  %l7, %g6, %g3
    3ba0:	86 3d c0 27 	xnord  %l7, %g7, %g3
    3ba4:	86 3d c0 28 	xnord  %l7, %o0, %g3
    3ba8:	86 3d c0 29 	xnord  %l7, %o1, %g3
    3bac:	86 3d c0 2a 	xnord  %l7, %o2, %g3
    3bb0:	86 3d c0 2b 	xnord  %l7, %o3, %g3
    3bb4:	86 3d c0 2c 	xnord  %l7, %o4, %g3
    3bb8:	86 3d c0 2d 	xnord  %l7, %o5, %g3
    3bbc:	86 3d c0 2e 	xnord  %l7, %sp, %g3
    3bc0:	86 3d c0 2f 	xnord  %l7, %o7, %g3
    3bc4:	86 3d c0 30 	xnord  %l7, %l0, %g3
    3bc8:	86 3d c0 31 	xnord  %l7, %l1, %g3
    3bcc:	86 3d c0 32 	xnord  %l7, %l2, %g3
    3bd0:	86 3d c0 33 	xnord  %l7, %l3, %g3
    3bd4:	86 3d c0 34 	xnord  %l7, %l4, %g3
    3bd8:	86 3d c0 35 	xnord  %l7, %l5, %g3
    3bdc:	86 3d c0 36 	xnord  %l7, %l6, %g3
    3be0:	86 3d c0 37 	xnord  %l7, %l7, %g3
    3be4:	86 3d c0 38 	xnord  %l7, %i0, %g3
    3be8:	86 3d c0 39 	xnord  %l7, %i1, %g3
    3bec:	86 3d c0 3a 	xnord  %l7, %i2, %g3
    3bf0:	86 3d c0 3b 	xnord  %l7, %i3, %g3
    3bf4:	86 3d c0 3c 	xnord  %l7, %i4, %g3
    3bf8:	86 3d c0 3d 	xnord  %l7, %i5, %g3
    3bfc:	86 3d c0 3e 	xnord  %l7, %fp, %g3
    3c00:	86 3d c0 3f 	xnord  %l7, %i7, %g3
    3c04:	86 3e 00 20 	xnord  %i0, %g0, %g3
    3c08:	86 3e 00 21 	xnord  %i0, %g1, %g3
    3c0c:	86 3e 00 22 	xnord  %i0, %g2, %g3
    3c10:	86 3e 00 23 	xnord  %i0, %g3, %g3
    3c14:	86 3e 00 24 	xnord  %i0, %g4, %g3
    3c18:	86 3e 00 25 	xnord  %i0, %g5, %g3
    3c1c:	86 3e 00 26 	xnord  %i0, %g6, %g3
    3c20:	86 3e 00 27 	xnord  %i0, %g7, %g3
    3c24:	86 3e 00 28 	xnord  %i0, %o0, %g3
    3c28:	86 3e 00 29 	xnord  %i0, %o1, %g3
    3c2c:	86 3e 00 2a 	xnord  %i0, %o2, %g3
    3c30:	86 3e 00 2b 	xnord  %i0, %o3, %g3
    3c34:	86 3e 00 2c 	xnord  %i0, %o4, %g3
    3c38:	86 3e 00 2d 	xnord  %i0, %o5, %g3
    3c3c:	86 3e 00 2e 	xnord  %i0, %sp, %g3
    3c40:	86 3e 00 2f 	xnord  %i0, %o7, %g3
    3c44:	86 3e 00 30 	xnord  %i0, %l0, %g3
    3c48:	86 3e 00 31 	xnord  %i0, %l1, %g3
    3c4c:	86 3e 00 32 	xnord  %i0, %l2, %g3
    3c50:	86 3e 00 33 	xnord  %i0, %l3, %g3
    3c54:	86 3e 00 34 	xnord  %i0, %l4, %g3
    3c58:	86 3e 00 35 	xnord  %i0, %l5, %g3
    3c5c:	86 3e 00 36 	xnord  %i0, %l6, %g3
    3c60:	86 3e 00 37 	xnord  %i0, %l7, %g3
    3c64:	86 3e 00 38 	xnord  %i0, %i0, %g3
    3c68:	86 3e 00 39 	xnord  %i0, %i1, %g3
    3c6c:	86 3e 00 3a 	xnord  %i0, %i2, %g3
    3c70:	86 3e 00 3b 	xnord  %i0, %i3, %g3
    3c74:	86 3e 00 3c 	xnord  %i0, %i4, %g3
    3c78:	86 3e 00 3d 	xnord  %i0, %i5, %g3
    3c7c:	86 3e 00 3e 	xnord  %i0, %fp, %g3
    3c80:	86 3e 00 3f 	xnord  %i0, %i7, %g3
    3c84:	86 3e 40 20 	xnord  %i1, %g0, %g3
    3c88:	86 3e 40 21 	xnord  %i1, %g1, %g3
    3c8c:	86 3e 40 22 	xnord  %i1, %g2, %g3
    3c90:	86 3e 40 23 	xnord  %i1, %g3, %g3
    3c94:	86 3e 40 24 	xnord  %i1, %g4, %g3
    3c98:	86 3e 40 25 	xnord  %i1, %g5, %g3
    3c9c:	86 3e 40 26 	xnord  %i1, %g6, %g3
    3ca0:	86 3e 40 27 	xnord  %i1, %g7, %g3
    3ca4:	86 3e 40 28 	xnord  %i1, %o0, %g3
    3ca8:	86 3e 40 29 	xnord  %i1, %o1, %g3
    3cac:	86 3e 40 2a 	xnord  %i1, %o2, %g3
    3cb0:	86 3e 40 2b 	xnord  %i1, %o3, %g3
    3cb4:	86 3e 40 2c 	xnord  %i1, %o4, %g3
    3cb8:	86 3e 40 2d 	xnord  %i1, %o5, %g3
    3cbc:	86 3e 40 2e 	xnord  %i1, %sp, %g3
    3cc0:	86 3e 40 2f 	xnord  %i1, %o7, %g3
    3cc4:	86 3e 40 30 	xnord  %i1, %l0, %g3
    3cc8:	86 3e 40 31 	xnord  %i1, %l1, %g3
    3ccc:	86 3e 40 32 	xnord  %i1, %l2, %g3
    3cd0:	86 3e 40 33 	xnord  %i1, %l3, %g3
    3cd4:	86 3e 40 34 	xnord  %i1, %l4, %g3
    3cd8:	86 3e 40 35 	xnord  %i1, %l5, %g3
    3cdc:	86 3e 40 36 	xnord  %i1, %l6, %g3
    3ce0:	86 3e 40 37 	xnord  %i1, %l7, %g3
    3ce4:	86 3e 40 38 	xnord  %i1, %i0, %g3
    3ce8:	86 3e 40 39 	xnord  %i1, %i1, %g3
    3cec:	86 3e 40 3a 	xnord  %i1, %i2, %g3
    3cf0:	86 3e 40 3b 	xnord  %i1, %i3, %g3
    3cf4:	86 3e 40 3c 	xnord  %i1, %i4, %g3
    3cf8:	86 3e 40 3d 	xnord  %i1, %i5, %g3
    3cfc:	86 3e 40 3e 	xnord  %i1, %fp, %g3
    3d00:	86 3e 40 3f 	xnord  %i1, %i7, %g3
    3d04:	86 3e 80 20 	xnord  %i2, %g0, %g3
    3d08:	86 3e 80 21 	xnord  %i2, %g1, %g3
    3d0c:	86 3e 80 22 	xnord  %i2, %g2, %g3
    3d10:	86 3e 80 23 	xnord  %i2, %g3, %g3
    3d14:	86 3e 80 24 	xnord  %i2, %g4, %g3
    3d18:	86 3e 80 25 	xnord  %i2, %g5, %g3
    3d1c:	86 3e 80 26 	xnord  %i2, %g6, %g3
    3d20:	86 3e 80 27 	xnord  %i2, %g7, %g3
    3d24:	86 3e 80 28 	xnord  %i2, %o0, %g3
    3d28:	86 3e 80 29 	xnord  %i2, %o1, %g3
    3d2c:	86 3e 80 2a 	xnord  %i2, %o2, %g3
    3d30:	86 3e 80 2b 	xnord  %i2, %o3, %g3
    3d34:	86 3e 80 2c 	xnord  %i2, %o4, %g3
    3d38:	86 3e 80 2d 	xnord  %i2, %o5, %g3
    3d3c:	86 3e 80 2e 	xnord  %i2, %sp, %g3
    3d40:	86 3e 80 2f 	xnord  %i2, %o7, %g3
    3d44:	86 3e 80 30 	xnord  %i2, %l0, %g3
    3d48:	86 3e 80 31 	xnord  %i2, %l1, %g3
    3d4c:	86 3e 80 32 	xnord  %i2, %l2, %g3
    3d50:	86 3e 80 33 	xnord  %i2, %l3, %g3
    3d54:	86 3e 80 34 	xnord  %i2, %l4, %g3
    3d58:	86 3e 80 35 	xnord  %i2, %l5, %g3
    3d5c:	86 3e 80 36 	xnord  %i2, %l6, %g3
    3d60:	86 3e 80 37 	xnord  %i2, %l7, %g3
    3d64:	86 3e 80 38 	xnord  %i2, %i0, %g3
    3d68:	86 3e 80 39 	xnord  %i2, %i1, %g3
    3d6c:	86 3e 80 3a 	xnord  %i2, %i2, %g3
    3d70:	86 3e 80 3b 	xnord  %i2, %i3, %g3
    3d74:	86 3e 80 3c 	xnord  %i2, %i4, %g3
    3d78:	86 3e 80 3d 	xnord  %i2, %i5, %g3
    3d7c:	86 3e 80 3e 	xnord  %i2, %fp, %g3
    3d80:	86 3e 80 3f 	xnord  %i2, %i7, %g3
    3d84:	86 3e c0 20 	xnord  %i3, %g0, %g3
    3d88:	86 3e c0 21 	xnord  %i3, %g1, %g3
    3d8c:	86 3e c0 22 	xnord  %i3, %g2, %g3
    3d90:	86 3e c0 23 	xnord  %i3, %g3, %g3
    3d94:	86 3e c0 24 	xnord  %i3, %g4, %g3
    3d98:	86 3e c0 25 	xnord  %i3, %g5, %g3
    3d9c:	86 3e c0 26 	xnord  %i3, %g6, %g3
    3da0:	86 3e c0 27 	xnord  %i3, %g7, %g3
    3da4:	86 3e c0 28 	xnord  %i3, %o0, %g3
    3da8:	86 3e c0 29 	xnord  %i3, %o1, %g3
    3dac:	86 3e c0 2a 	xnord  %i3, %o2, %g3
    3db0:	86 3e c0 2b 	xnord  %i3, %o3, %g3
    3db4:	86 3e c0 2c 	xnord  %i3, %o4, %g3
    3db8:	86 3e c0 2d 	xnord  %i3, %o5, %g3
    3dbc:	86 3e c0 2e 	xnord  %i3, %sp, %g3
    3dc0:	86 3e c0 2f 	xnord  %i3, %o7, %g3
    3dc4:	86 3e c0 30 	xnord  %i3, %l0, %g3
    3dc8:	86 3e c0 31 	xnord  %i3, %l1, %g3
    3dcc:	86 3e c0 32 	xnord  %i3, %l2, %g3
    3dd0:	86 3e c0 33 	xnord  %i3, %l3, %g3
    3dd4:	86 3e c0 34 	xnord  %i3, %l4, %g3
    3dd8:	86 3e c0 35 	xnord  %i3, %l5, %g3
    3ddc:	86 3e c0 36 	xnord  %i3, %l6, %g3
    3de0:	86 3e c0 37 	xnord  %i3, %l7, %g3
    3de4:	86 3e c0 38 	xnord  %i3, %i0, %g3
    3de8:	86 3e c0 39 	xnord  %i3, %i1, %g3
    3dec:	86 3e c0 3a 	xnord  %i3, %i2, %g3
    3df0:	86 3e c0 3b 	xnord  %i3, %i3, %g3
    3df4:	86 3e c0 3c 	xnord  %i3, %i4, %g3
    3df8:	86 3e c0 3d 	xnord  %i3, %i5, %g3
    3dfc:	86 3e c0 3e 	xnord  %i3, %fp, %g3
    3e00:	86 3e c0 3f 	xnord  %i3, %i7, %g3
    3e04:	86 3f 00 20 	xnord  %i4, %g0, %g3
    3e08:	86 3f 00 21 	xnord  %i4, %g1, %g3
    3e0c:	86 3f 00 22 	xnord  %i4, %g2, %g3
    3e10:	86 3f 00 23 	xnord  %i4, %g3, %g3
    3e14:	86 3f 00 24 	xnord  %i4, %g4, %g3
    3e18:	86 3f 00 25 	xnord  %i4, %g5, %g3
    3e1c:	86 3f 00 26 	xnord  %i4, %g6, %g3
    3e20:	86 3f 00 27 	xnord  %i4, %g7, %g3
    3e24:	86 3f 00 28 	xnord  %i4, %o0, %g3
    3e28:	86 3f 00 29 	xnord  %i4, %o1, %g3
    3e2c:	86 3f 00 2a 	xnord  %i4, %o2, %g3
    3e30:	86 3f 00 2b 	xnord  %i4, %o3, %g3
    3e34:	86 3f 00 2c 	xnord  %i4, %o4, %g3
    3e38:	86 3f 00 2d 	xnord  %i4, %o5, %g3
    3e3c:	86 3f 00 2e 	xnord  %i4, %sp, %g3
    3e40:	86 3f 00 2f 	xnord  %i4, %o7, %g3
    3e44:	86 3f 00 30 	xnord  %i4, %l0, %g3
    3e48:	86 3f 00 31 	xnord  %i4, %l1, %g3
    3e4c:	86 3f 00 32 	xnord  %i4, %l2, %g3
    3e50:	86 3f 00 33 	xnord  %i4, %l3, %g3
    3e54:	86 3f 00 34 	xnord  %i4, %l4, %g3
    3e58:	86 3f 00 35 	xnord  %i4, %l5, %g3
    3e5c:	86 3f 00 36 	xnord  %i4, %l6, %g3
    3e60:	86 3f 00 37 	xnord  %i4, %l7, %g3
    3e64:	86 3f 00 38 	xnord  %i4, %i0, %g3
    3e68:	86 3f 00 39 	xnord  %i4, %i1, %g3
    3e6c:	86 3f 00 3a 	xnord  %i4, %i2, %g3
    3e70:	86 3f 00 3b 	xnord  %i4, %i3, %g3
    3e74:	86 3f 00 3c 	xnord  %i4, %i4, %g3
    3e78:	86 3f 00 3d 	xnord  %i4, %i5, %g3
    3e7c:	86 3f 00 3e 	xnord  %i4, %fp, %g3
    3e80:	86 3f 00 3f 	xnord  %i4, %i7, %g3
    3e84:	86 3f 40 20 	xnord  %i5, %g0, %g3
    3e88:	86 3f 40 21 	xnord  %i5, %g1, %g3
    3e8c:	86 3f 40 22 	xnord  %i5, %g2, %g3
    3e90:	86 3f 40 23 	xnord  %i5, %g3, %g3
    3e94:	86 3f 40 24 	xnord  %i5, %g4, %g3
    3e98:	86 3f 40 25 	xnord  %i5, %g5, %g3
    3e9c:	86 3f 40 26 	xnord  %i5, %g6, %g3
    3ea0:	86 3f 40 27 	xnord  %i5, %g7, %g3
    3ea4:	86 3f 40 28 	xnord  %i5, %o0, %g3
    3ea8:	86 3f 40 29 	xnord  %i5, %o1, %g3
    3eac:	86 3f 40 2a 	xnord  %i5, %o2, %g3
    3eb0:	86 3f 40 2b 	xnord  %i5, %o3, %g3
    3eb4:	86 3f 40 2c 	xnord  %i5, %o4, %g3
    3eb8:	86 3f 40 2d 	xnord  %i5, %o5, %g3
    3ebc:	86 3f 40 2e 	xnord  %i5, %sp, %g3
    3ec0:	86 3f 40 2f 	xnord  %i5, %o7, %g3
    3ec4:	86 3f 40 30 	xnord  %i5, %l0, %g3
    3ec8:	86 3f 40 31 	xnord  %i5, %l1, %g3
    3ecc:	86 3f 40 32 	xnord  %i5, %l2, %g3
    3ed0:	86 3f 40 33 	xnord  %i5, %l3, %g3
    3ed4:	86 3f 40 34 	xnord  %i5, %l4, %g3
    3ed8:	86 3f 40 35 	xnord  %i5, %l5, %g3
    3edc:	86 3f 40 36 	xnord  %i5, %l6, %g3
    3ee0:	86 3f 40 37 	xnord  %i5, %l7, %g3
    3ee4:	86 3f 40 38 	xnord  %i5, %i0, %g3
    3ee8:	86 3f 40 39 	xnord  %i5, %i1, %g3
    3eec:	86 3f 40 3a 	xnord  %i5, %i2, %g3
    3ef0:	86 3f 40 3b 	xnord  %i5, %i3, %g3
    3ef4:	86 3f 40 3c 	xnord  %i5, %i4, %g3
    3ef8:	86 3f 40 3d 	xnord  %i5, %i5, %g3
    3efc:	86 3f 40 3e 	xnord  %i5, %fp, %g3
    3f00:	86 3f 40 3f 	xnord  %i5, %i7, %g3
    3f04:	86 3f 80 20 	xnord  %fp, %g0, %g3
    3f08:	86 3f 80 21 	xnord  %fp, %g1, %g3
    3f0c:	86 3f 80 22 	xnord  %fp, %g2, %g3
    3f10:	86 3f 80 23 	xnord  %fp, %g3, %g3
    3f14:	86 3f 80 24 	xnord  %fp, %g4, %g3
    3f18:	86 3f 80 25 	xnord  %fp, %g5, %g3
    3f1c:	86 3f 80 26 	xnord  %fp, %g6, %g3
    3f20:	86 3f 80 27 	xnord  %fp, %g7, %g3
    3f24:	86 3f 80 28 	xnord  %fp, %o0, %g3
    3f28:	86 3f 80 29 	xnord  %fp, %o1, %g3
    3f2c:	86 3f 80 2a 	xnord  %fp, %o2, %g3
    3f30:	86 3f 80 2b 	xnord  %fp, %o3, %g3
    3f34:	86 3f 80 2c 	xnord  %fp, %o4, %g3
    3f38:	86 3f 80 2d 	xnord  %fp, %o5, %g3
    3f3c:	86 3f 80 2e 	xnord  %fp, %sp, %g3
    3f40:	86 3f 80 2f 	xnord  %fp, %o7, %g3
    3f44:	86 3f 80 30 	xnord  %fp, %l0, %g3
    3f48:	86 3f 80 31 	xnord  %fp, %l1, %g3
    3f4c:	86 3f 80 32 	xnord  %fp, %l2, %g3
    3f50:	86 3f 80 33 	xnord  %fp, %l3, %g3
    3f54:	86 3f 80 34 	xnord  %fp, %l4, %g3
    3f58:	86 3f 80 35 	xnord  %fp, %l5, %g3
    3f5c:	86 3f 80 36 	xnord  %fp, %l6, %g3
    3f60:	86 3f 80 37 	xnord  %fp, %l7, %g3
    3f64:	86 3f 80 38 	xnord  %fp, %i0, %g3
    3f68:	86 3f 80 39 	xnord  %fp, %i1, %g3
    3f6c:	86 3f 80 3a 	xnord  %fp, %i2, %g3
    3f70:	86 3f 80 3b 	xnord  %fp, %i3, %g3
    3f74:	86 3f 80 3c 	xnord  %fp, %i4, %g3
    3f78:	86 3f 80 3d 	xnord  %fp, %i5, %g3
    3f7c:	86 3f 80 3e 	xnord  %fp, %fp, %g3
    3f80:	86 3f 80 3f 	xnord  %fp, %i7, %g3
    3f84:	86 3f c0 20 	xnord  %i7, %g0, %g3
    3f88:	86 3f c0 21 	xnord  %i7, %g1, %g3
    3f8c:	86 3f c0 22 	xnord  %i7, %g2, %g3
    3f90:	86 3f c0 23 	xnord  %i7, %g3, %g3
    3f94:	86 3f c0 24 	xnord  %i7, %g4, %g3
    3f98:	86 3f c0 25 	xnord  %i7, %g5, %g3
    3f9c:	86 3f c0 26 	xnord  %i7, %g6, %g3
    3fa0:	86 3f c0 27 	xnord  %i7, %g7, %g3
    3fa4:	86 3f c0 28 	xnord  %i7, %o0, %g3
    3fa8:	86 3f c0 29 	xnord  %i7, %o1, %g3
    3fac:	86 3f c0 2a 	xnord  %i7, %o2, %g3
    3fb0:	86 3f c0 2b 	xnord  %i7, %o3, %g3
    3fb4:	86 3f c0 2c 	xnord  %i7, %o4, %g3
    3fb8:	86 3f c0 2d 	xnord  %i7, %o5, %g3
    3fbc:	86 3f c0 2e 	xnord  %i7, %sp, %g3
    3fc0:	86 3f c0 2f 	xnord  %i7, %o7, %g3
    3fc4:	86 3f c0 30 	xnord  %i7, %l0, %g3
    3fc8:	86 3f c0 31 	xnord  %i7, %l1, %g3
    3fcc:	86 3f c0 32 	xnord  %i7, %l2, %g3
    3fd0:	86 3f c0 33 	xnord  %i7, %l3, %g3
    3fd4:	86 3f c0 34 	xnord  %i7, %l4, %g3
    3fd8:	86 3f c0 35 	xnord  %i7, %l5, %g3
    3fdc:	86 3f c0 36 	xnord  %i7, %l6, %g3
    3fe0:	86 3f c0 37 	xnord  %i7, %l7, %g3
    3fe4:	86 3f c0 38 	xnord  %i7, %i0, %g3
    3fe8:	86 3f c0 39 	xnord  %i7, %i1, %g3
    3fec:	86 3f c0 3a 	xnord  %i7, %i2, %g3
    3ff0:	86 3f c0 3b 	xnord  %i7, %i3, %g3
    3ff4:	86 3f c0 3c 	xnord  %i7, %i4, %g3
    3ff8:	86 3f c0 3d 	xnord  %i7, %i5, %g3
    3ffc:	86 3f c0 3e 	xnord  %i7, %fp, %g3
    4000:	86 3f c0 3f 	xnord  %i7, %i7, %g3
    4004:	88 38 00 20 	xnord  %g0, %g0, %g4
    4008:	88 38 00 21 	xnord  %g0, %g1, %g4
    400c:	88 38 00 22 	xnord  %g0, %g2, %g4
    4010:	88 38 00 23 	xnord  %g0, %g3, %g4
    4014:	88 38 00 24 	xnord  %g0, %g4, %g4
    4018:	88 38 00 25 	xnord  %g0, %g5, %g4
    401c:	88 38 00 26 	xnord  %g0, %g6, %g4
    4020:	88 38 00 27 	xnord  %g0, %g7, %g4
    4024:	88 38 00 28 	xnord  %g0, %o0, %g4
    4028:	88 38 00 29 	xnord  %g0, %o1, %g4
    402c:	88 38 00 2a 	xnord  %g0, %o2, %g4
    4030:	88 38 00 2b 	xnord  %g0, %o3, %g4
    4034:	88 38 00 2c 	xnord  %g0, %o4, %g4
    4038:	88 38 00 2d 	xnord  %g0, %o5, %g4
    403c:	88 38 00 2e 	xnord  %g0, %sp, %g4
    4040:	88 38 00 2f 	xnord  %g0, %o7, %g4
    4044:	88 38 00 30 	xnord  %g0, %l0, %g4
    4048:	88 38 00 31 	xnord  %g0, %l1, %g4
    404c:	88 38 00 32 	xnord  %g0, %l2, %g4
    4050:	88 38 00 33 	xnord  %g0, %l3, %g4
    4054:	88 38 00 34 	xnord  %g0, %l4, %g4
    4058:	88 38 00 35 	xnord  %g0, %l5, %g4
    405c:	88 38 00 36 	xnord  %g0, %l6, %g4
    4060:	88 38 00 37 	xnord  %g0, %l7, %g4
    4064:	88 38 00 38 	xnord  %g0, %i0, %g4
    4068:	88 38 00 39 	xnord  %g0, %i1, %g4
    406c:	88 38 00 3a 	xnord  %g0, %i2, %g4
    4070:	88 38 00 3b 	xnord  %g0, %i3, %g4
    4074:	88 38 00 3c 	xnord  %g0, %i4, %g4
    4078:	88 38 00 3d 	xnord  %g0, %i5, %g4
    407c:	88 38 00 3e 	xnord  %g0, %fp, %g4
    4080:	88 38 00 3f 	xnord  %g0, %i7, %g4
    4084:	88 38 40 20 	xnord  %g1, %g0, %g4
    4088:	88 38 40 21 	xnord  %g1, %g1, %g4
    408c:	88 38 40 22 	xnord  %g1, %g2, %g4
    4090:	88 38 40 23 	xnord  %g1, %g3, %g4
    4094:	88 38 40 24 	xnord  %g1, %g4, %g4
    4098:	88 38 40 25 	xnord  %g1, %g5, %g4
    409c:	88 38 40 26 	xnord  %g1, %g6, %g4
    40a0:	88 38 40 27 	xnord  %g1, %g7, %g4
    40a4:	88 38 40 28 	xnord  %g1, %o0, %g4
    40a8:	88 38 40 29 	xnord  %g1, %o1, %g4
    40ac:	88 38 40 2a 	xnord  %g1, %o2, %g4
    40b0:	88 38 40 2b 	xnord  %g1, %o3, %g4
    40b4:	88 38 40 2c 	xnord  %g1, %o4, %g4
    40b8:	88 38 40 2d 	xnord  %g1, %o5, %g4
    40bc:	88 38 40 2e 	xnord  %g1, %sp, %g4
    40c0:	88 38 40 2f 	xnord  %g1, %o7, %g4
    40c4:	88 38 40 30 	xnord  %g1, %l0, %g4
    40c8:	88 38 40 31 	xnord  %g1, %l1, %g4
    40cc:	88 38 40 32 	xnord  %g1, %l2, %g4
    40d0:	88 38 40 33 	xnord  %g1, %l3, %g4
    40d4:	88 38 40 34 	xnord  %g1, %l4, %g4
    40d8:	88 38 40 35 	xnord  %g1, %l5, %g4
    40dc:	88 38 40 36 	xnord  %g1, %l6, %g4
    40e0:	88 38 40 37 	xnord  %g1, %l7, %g4
    40e4:	88 38 40 38 	xnord  %g1, %i0, %g4
    40e8:	88 38 40 39 	xnord  %g1, %i1, %g4
    40ec:	88 38 40 3a 	xnord  %g1, %i2, %g4
    40f0:	88 38 40 3b 	xnord  %g1, %i3, %g4
    40f4:	88 38 40 3c 	xnord  %g1, %i4, %g4
    40f8:	88 38 40 3d 	xnord  %g1, %i5, %g4
    40fc:	88 38 40 3e 	xnord  %g1, %fp, %g4
    4100:	88 38 40 3f 	xnord  %g1, %i7, %g4
    4104:	88 38 80 20 	xnord  %g2, %g0, %g4
    4108:	88 38 80 21 	xnord  %g2, %g1, %g4
    410c:	88 38 80 22 	xnord  %g2, %g2, %g4
    4110:	88 38 80 23 	xnord  %g2, %g3, %g4
    4114:	88 38 80 24 	xnord  %g2, %g4, %g4
    4118:	88 38 80 25 	xnord  %g2, %g5, %g4
    411c:	88 38 80 26 	xnord  %g2, %g6, %g4
    4120:	88 38 80 27 	xnord  %g2, %g7, %g4
    4124:	88 38 80 28 	xnord  %g2, %o0, %g4
    4128:	88 38 80 29 	xnord  %g2, %o1, %g4
    412c:	88 38 80 2a 	xnord  %g2, %o2, %g4
    4130:	88 38 80 2b 	xnord  %g2, %o3, %g4
    4134:	88 38 80 2c 	xnord  %g2, %o4, %g4
    4138:	88 38 80 2d 	xnord  %g2, %o5, %g4
    413c:	88 38 80 2e 	xnord  %g2, %sp, %g4
    4140:	88 38 80 2f 	xnord  %g2, %o7, %g4
    4144:	88 38 80 30 	xnord  %g2, %l0, %g4
    4148:	88 38 80 31 	xnord  %g2, %l1, %g4
    414c:	88 38 80 32 	xnord  %g2, %l2, %g4
    4150:	88 38 80 33 	xnord  %g2, %l3, %g4
    4154:	88 38 80 34 	xnord  %g2, %l4, %g4
    4158:	88 38 80 35 	xnord  %g2, %l5, %g4
    415c:	88 38 80 36 	xnord  %g2, %l6, %g4
    4160:	88 38 80 37 	xnord  %g2, %l7, %g4
    4164:	88 38 80 38 	xnord  %g2, %i0, %g4
    4168:	88 38 80 39 	xnord  %g2, %i1, %g4
    416c:	88 38 80 3a 	xnord  %g2, %i2, %g4
    4170:	88 38 80 3b 	xnord  %g2, %i3, %g4
    4174:	88 38 80 3c 	xnord  %g2, %i4, %g4
    4178:	88 38 80 3d 	xnord  %g2, %i5, %g4
    417c:	88 38 80 3e 	xnord  %g2, %fp, %g4
    4180:	88 38 80 3f 	xnord  %g2, %i7, %g4
    4184:	88 38 c0 20 	xnord  %g3, %g0, %g4
    4188:	88 38 c0 21 	xnord  %g3, %g1, %g4
    418c:	88 38 c0 22 	xnord  %g3, %g2, %g4
    4190:	88 38 c0 23 	xnord  %g3, %g3, %g4
    4194:	88 38 c0 24 	xnord  %g3, %g4, %g4
    4198:	88 38 c0 25 	xnord  %g3, %g5, %g4
    419c:	88 38 c0 26 	xnord  %g3, %g6, %g4
    41a0:	88 38 c0 27 	xnord  %g3, %g7, %g4
    41a4:	88 38 c0 28 	xnord  %g3, %o0, %g4
    41a8:	88 38 c0 29 	xnord  %g3, %o1, %g4
    41ac:	88 38 c0 2a 	xnord  %g3, %o2, %g4
    41b0:	88 38 c0 2b 	xnord  %g3, %o3, %g4
    41b4:	88 38 c0 2c 	xnord  %g3, %o4, %g4
    41b8:	88 38 c0 2d 	xnord  %g3, %o5, %g4
    41bc:	88 38 c0 2e 	xnord  %g3, %sp, %g4
    41c0:	88 38 c0 2f 	xnord  %g3, %o7, %g4
    41c4:	88 38 c0 30 	xnord  %g3, %l0, %g4
    41c8:	88 38 c0 31 	xnord  %g3, %l1, %g4
    41cc:	88 38 c0 32 	xnord  %g3, %l2, %g4
    41d0:	88 38 c0 33 	xnord  %g3, %l3, %g4
    41d4:	88 38 c0 34 	xnord  %g3, %l4, %g4
    41d8:	88 38 c0 35 	xnord  %g3, %l5, %g4
    41dc:	88 38 c0 36 	xnord  %g3, %l6, %g4
    41e0:	88 38 c0 37 	xnord  %g3, %l7, %g4
    41e4:	88 38 c0 38 	xnord  %g3, %i0, %g4
    41e8:	88 38 c0 39 	xnord  %g3, %i1, %g4
    41ec:	88 38 c0 3a 	xnord  %g3, %i2, %g4
    41f0:	88 38 c0 3b 	xnord  %g3, %i3, %g4
    41f4:	88 38 c0 3c 	xnord  %g3, %i4, %g4
    41f8:	88 38 c0 3d 	xnord  %g3, %i5, %g4
    41fc:	88 38 c0 3e 	xnord  %g3, %fp, %g4
    4200:	88 38 c0 3f 	xnord  %g3, %i7, %g4
    4204:	88 39 00 20 	xnord  %g4, %g0, %g4
    4208:	88 39 00 21 	xnord  %g4, %g1, %g4
    420c:	88 39 00 22 	xnord  %g4, %g2, %g4
    4210:	88 39 00 23 	xnord  %g4, %g3, %g4
    4214:	88 39 00 24 	xnord  %g4, %g4, %g4
    4218:	88 39 00 25 	xnord  %g4, %g5, %g4
    421c:	88 39 00 26 	xnord  %g4, %g6, %g4
    4220:	88 39 00 27 	xnord  %g4, %g7, %g4
    4224:	88 39 00 28 	xnord  %g4, %o0, %g4
    4228:	88 39 00 29 	xnord  %g4, %o1, %g4
    422c:	88 39 00 2a 	xnord  %g4, %o2, %g4
    4230:	88 39 00 2b 	xnord  %g4, %o3, %g4
    4234:	88 39 00 2c 	xnord  %g4, %o4, %g4
    4238:	88 39 00 2d 	xnord  %g4, %o5, %g4
    423c:	88 39 00 2e 	xnord  %g4, %sp, %g4
    4240:	88 39 00 2f 	xnord  %g4, %o7, %g4
    4244:	88 39 00 30 	xnord  %g4, %l0, %g4
    4248:	88 39 00 31 	xnord  %g4, %l1, %g4
    424c:	88 39 00 32 	xnord  %g4, %l2, %g4
    4250:	88 39 00 33 	xnord  %g4, %l3, %g4
    4254:	88 39 00 34 	xnord  %g4, %l4, %g4
    4258:	88 39 00 35 	xnord  %g4, %l5, %g4
    425c:	88 39 00 36 	xnord  %g4, %l6, %g4
    4260:	88 39 00 37 	xnord  %g4, %l7, %g4
    4264:	88 39 00 38 	xnord  %g4, %i0, %g4
    4268:	88 39 00 39 	xnord  %g4, %i1, %g4
    426c:	88 39 00 3a 	xnord  %g4, %i2, %g4
    4270:	88 39 00 3b 	xnord  %g4, %i3, %g4
    4274:	88 39 00 3c 	xnord  %g4, %i4, %g4
    4278:	88 39 00 3d 	xnord  %g4, %i5, %g4
    427c:	88 39 00 3e 	xnord  %g4, %fp, %g4
    4280:	88 39 00 3f 	xnord  %g4, %i7, %g4
    4284:	88 39 40 20 	xnord  %g5, %g0, %g4
    4288:	88 39 40 21 	xnord  %g5, %g1, %g4
    428c:	88 39 40 22 	xnord  %g5, %g2, %g4
    4290:	88 39 40 23 	xnord  %g5, %g3, %g4
    4294:	88 39 40 24 	xnord  %g5, %g4, %g4
    4298:	88 39 40 25 	xnord  %g5, %g5, %g4
    429c:	88 39 40 26 	xnord  %g5, %g6, %g4
    42a0:	88 39 40 27 	xnord  %g5, %g7, %g4
    42a4:	88 39 40 28 	xnord  %g5, %o0, %g4
    42a8:	88 39 40 29 	xnord  %g5, %o1, %g4
    42ac:	88 39 40 2a 	xnord  %g5, %o2, %g4
    42b0:	88 39 40 2b 	xnord  %g5, %o3, %g4
    42b4:	88 39 40 2c 	xnord  %g5, %o4, %g4
    42b8:	88 39 40 2d 	xnord  %g5, %o5, %g4
    42bc:	88 39 40 2e 	xnord  %g5, %sp, %g4
    42c0:	88 39 40 2f 	xnord  %g5, %o7, %g4
    42c4:	88 39 40 30 	xnord  %g5, %l0, %g4
    42c8:	88 39 40 31 	xnord  %g5, %l1, %g4
    42cc:	88 39 40 32 	xnord  %g5, %l2, %g4
    42d0:	88 39 40 33 	xnord  %g5, %l3, %g4
    42d4:	88 39 40 34 	xnord  %g5, %l4, %g4
    42d8:	88 39 40 35 	xnord  %g5, %l5, %g4
    42dc:	88 39 40 36 	xnord  %g5, %l6, %g4
    42e0:	88 39 40 37 	xnord  %g5, %l7, %g4
    42e4:	88 39 40 38 	xnord  %g5, %i0, %g4
    42e8:	88 39 40 39 	xnord  %g5, %i1, %g4
    42ec:	88 39 40 3a 	xnord  %g5, %i2, %g4
    42f0:	88 39 40 3b 	xnord  %g5, %i3, %g4
    42f4:	88 39 40 3c 	xnord  %g5, %i4, %g4
    42f8:	88 39 40 3d 	xnord  %g5, %i5, %g4
    42fc:	88 39 40 3e 	xnord  %g5, %fp, %g4
    4300:	88 39 40 3f 	xnord  %g5, %i7, %g4
    4304:	88 39 80 20 	xnord  %g6, %g0, %g4
    4308:	88 39 80 21 	xnord  %g6, %g1, %g4
    430c:	88 39 80 22 	xnord  %g6, %g2, %g4
    4310:	88 39 80 23 	xnord  %g6, %g3, %g4
    4314:	88 39 80 24 	xnord  %g6, %g4, %g4
    4318:	88 39 80 25 	xnord  %g6, %g5, %g4
    431c:	88 39 80 26 	xnord  %g6, %g6, %g4
    4320:	88 39 80 27 	xnord  %g6, %g7, %g4
    4324:	88 39 80 28 	xnord  %g6, %o0, %g4
    4328:	88 39 80 29 	xnord  %g6, %o1, %g4
    432c:	88 39 80 2a 	xnord  %g6, %o2, %g4
    4330:	88 39 80 2b 	xnord  %g6, %o3, %g4
    4334:	88 39 80 2c 	xnord  %g6, %o4, %g4
    4338:	88 39 80 2d 	xnord  %g6, %o5, %g4
    433c:	88 39 80 2e 	xnord  %g6, %sp, %g4
    4340:	88 39 80 2f 	xnord  %g6, %o7, %g4
    4344:	88 39 80 30 	xnord  %g6, %l0, %g4
    4348:	88 39 80 31 	xnord  %g6, %l1, %g4
    434c:	88 39 80 32 	xnord  %g6, %l2, %g4
    4350:	88 39 80 33 	xnord  %g6, %l3, %g4
    4354:	88 39 80 34 	xnord  %g6, %l4, %g4
    4358:	88 39 80 35 	xnord  %g6, %l5, %g4
    435c:	88 39 80 36 	xnord  %g6, %l6, %g4
    4360:	88 39 80 37 	xnord  %g6, %l7, %g4
    4364:	88 39 80 38 	xnord  %g6, %i0, %g4
    4368:	88 39 80 39 	xnord  %g6, %i1, %g4
    436c:	88 39 80 3a 	xnord  %g6, %i2, %g4
    4370:	88 39 80 3b 	xnord  %g6, %i3, %g4
    4374:	88 39 80 3c 	xnord  %g6, %i4, %g4
    4378:	88 39 80 3d 	xnord  %g6, %i5, %g4
    437c:	88 39 80 3e 	xnord  %g6, %fp, %g4
    4380:	88 39 80 3f 	xnord  %g6, %i7, %g4
    4384:	88 39 c0 20 	xnord  %g7, %g0, %g4
    4388:	88 39 c0 21 	xnord  %g7, %g1, %g4
    438c:	88 39 c0 22 	xnord  %g7, %g2, %g4
    4390:	88 39 c0 23 	xnord  %g7, %g3, %g4
    4394:	88 39 c0 24 	xnord  %g7, %g4, %g4
    4398:	88 39 c0 25 	xnord  %g7, %g5, %g4
    439c:	88 39 c0 26 	xnord  %g7, %g6, %g4
    43a0:	88 39 c0 27 	xnord  %g7, %g7, %g4
    43a4:	88 39 c0 28 	xnord  %g7, %o0, %g4
    43a8:	88 39 c0 29 	xnord  %g7, %o1, %g4
    43ac:	88 39 c0 2a 	xnord  %g7, %o2, %g4
    43b0:	88 39 c0 2b 	xnord  %g7, %o3, %g4
    43b4:	88 39 c0 2c 	xnord  %g7, %o4, %g4
    43b8:	88 39 c0 2d 	xnord  %g7, %o5, %g4
    43bc:	88 39 c0 2e 	xnord  %g7, %sp, %g4
    43c0:	88 39 c0 2f 	xnord  %g7, %o7, %g4
    43c4:	88 39 c0 30 	xnord  %g7, %l0, %g4
    43c8:	88 39 c0 31 	xnord  %g7, %l1, %g4
    43cc:	88 39 c0 32 	xnord  %g7, %l2, %g4
    43d0:	88 39 c0 33 	xnord  %g7, %l3, %g4
    43d4:	88 39 c0 34 	xnord  %g7, %l4, %g4
    43d8:	88 39 c0 35 	xnord  %g7, %l5, %g4
    43dc:	88 39 c0 36 	xnord  %g7, %l6, %g4
    43e0:	88 39 c0 37 	xnord  %g7, %l7, %g4
    43e4:	88 39 c0 38 	xnord  %g7, %i0, %g4
    43e8:	88 39 c0 39 	xnord  %g7, %i1, %g4
    43ec:	88 39 c0 3a 	xnord  %g7, %i2, %g4
    43f0:	88 39 c0 3b 	xnord  %g7, %i3, %g4
    43f4:	88 39 c0 3c 	xnord  %g7, %i4, %g4
    43f8:	88 39 c0 3d 	xnord  %g7, %i5, %g4
    43fc:	88 39 c0 3e 	xnord  %g7, %fp, %g4
    4400:	88 39 c0 3f 	xnord  %g7, %i7, %g4
    4404:	88 3a 00 20 	xnord  %o0, %g0, %g4
    4408:	88 3a 00 21 	xnord  %o0, %g1, %g4
    440c:	88 3a 00 22 	xnord  %o0, %g2, %g4
    4410:	88 3a 00 23 	xnord  %o0, %g3, %g4
    4414:	88 3a 00 24 	xnord  %o0, %g4, %g4
    4418:	88 3a 00 25 	xnord  %o0, %g5, %g4
    441c:	88 3a 00 26 	xnord  %o0, %g6, %g4
    4420:	88 3a 00 27 	xnord  %o0, %g7, %g4
    4424:	88 3a 00 28 	xnord  %o0, %o0, %g4
    4428:	88 3a 00 29 	xnord  %o0, %o1, %g4
    442c:	88 3a 00 2a 	xnord  %o0, %o2, %g4
    4430:	88 3a 00 2b 	xnord  %o0, %o3, %g4
    4434:	88 3a 00 2c 	xnord  %o0, %o4, %g4
    4438:	88 3a 00 2d 	xnord  %o0, %o5, %g4
    443c:	88 3a 00 2e 	xnord  %o0, %sp, %g4
    4440:	88 3a 00 2f 	xnord  %o0, %o7, %g4
    4444:	88 3a 00 30 	xnord  %o0, %l0, %g4
    4448:	88 3a 00 31 	xnord  %o0, %l1, %g4
    444c:	88 3a 00 32 	xnord  %o0, %l2, %g4
    4450:	88 3a 00 33 	xnord  %o0, %l3, %g4
    4454:	88 3a 00 34 	xnord  %o0, %l4, %g4
    4458:	88 3a 00 35 	xnord  %o0, %l5, %g4
    445c:	88 3a 00 36 	xnord  %o0, %l6, %g4
    4460:	88 3a 00 37 	xnord  %o0, %l7, %g4
    4464:	88 3a 00 38 	xnord  %o0, %i0, %g4
    4468:	88 3a 00 39 	xnord  %o0, %i1, %g4
    446c:	88 3a 00 3a 	xnord  %o0, %i2, %g4
    4470:	88 3a 00 3b 	xnord  %o0, %i3, %g4
    4474:	88 3a 00 3c 	xnord  %o0, %i4, %g4
    4478:	88 3a 00 3d 	xnord  %o0, %i5, %g4
    447c:	88 3a 00 3e 	xnord  %o0, %fp, %g4
    4480:	88 3a 00 3f 	xnord  %o0, %i7, %g4
    4484:	88 3a 40 20 	xnord  %o1, %g0, %g4
    4488:	88 3a 40 21 	xnord  %o1, %g1, %g4
    448c:	88 3a 40 22 	xnord  %o1, %g2, %g4
    4490:	88 3a 40 23 	xnord  %o1, %g3, %g4
    4494:	88 3a 40 24 	xnord  %o1, %g4, %g4
    4498:	88 3a 40 25 	xnord  %o1, %g5, %g4
    449c:	88 3a 40 26 	xnord  %o1, %g6, %g4
    44a0:	88 3a 40 27 	xnord  %o1, %g7, %g4
    44a4:	88 3a 40 28 	xnord  %o1, %o0, %g4
    44a8:	88 3a 40 29 	xnord  %o1, %o1, %g4
    44ac:	88 3a 40 2a 	xnord  %o1, %o2, %g4
    44b0:	88 3a 40 2b 	xnord  %o1, %o3, %g4
    44b4:	88 3a 40 2c 	xnord  %o1, %o4, %g4
    44b8:	88 3a 40 2d 	xnord  %o1, %o5, %g4
    44bc:	88 3a 40 2e 	xnord  %o1, %sp, %g4
    44c0:	88 3a 40 2f 	xnord  %o1, %o7, %g4
    44c4:	88 3a 40 30 	xnord  %o1, %l0, %g4
    44c8:	88 3a 40 31 	xnord  %o1, %l1, %g4
    44cc:	88 3a 40 32 	xnord  %o1, %l2, %g4
    44d0:	88 3a 40 33 	xnord  %o1, %l3, %g4
    44d4:	88 3a 40 34 	xnord  %o1, %l4, %g4
    44d8:	88 3a 40 35 	xnord  %o1, %l5, %g4
    44dc:	88 3a 40 36 	xnord  %o1, %l6, %g4
    44e0:	88 3a 40 37 	xnord  %o1, %l7, %g4
    44e4:	88 3a 40 38 	xnord  %o1, %i0, %g4
    44e8:	88 3a 40 39 	xnord  %o1, %i1, %g4
    44ec:	88 3a 40 3a 	xnord  %o1, %i2, %g4
    44f0:	88 3a 40 3b 	xnord  %o1, %i3, %g4
    44f4:	88 3a 40 3c 	xnord  %o1, %i4, %g4
    44f8:	88 3a 40 3d 	xnord  %o1, %i5, %g4
    44fc:	88 3a 40 3e 	xnord  %o1, %fp, %g4
    4500:	88 3a 40 3f 	xnord  %o1, %i7, %g4
    4504:	88 3a 80 20 	xnord  %o2, %g0, %g4
    4508:	88 3a 80 21 	xnord  %o2, %g1, %g4
    450c:	88 3a 80 22 	xnord  %o2, %g2, %g4
    4510:	88 3a 80 23 	xnord  %o2, %g3, %g4
    4514:	88 3a 80 24 	xnord  %o2, %g4, %g4
    4518:	88 3a 80 25 	xnord  %o2, %g5, %g4
    451c:	88 3a 80 26 	xnord  %o2, %g6, %g4
    4520:	88 3a 80 27 	xnord  %o2, %g7, %g4
    4524:	88 3a 80 28 	xnord  %o2, %o0, %g4
    4528:	88 3a 80 29 	xnord  %o2, %o1, %g4
    452c:	88 3a 80 2a 	xnord  %o2, %o2, %g4
    4530:	88 3a 80 2b 	xnord  %o2, %o3, %g4
    4534:	88 3a 80 2c 	xnord  %o2, %o4, %g4
    4538:	88 3a 80 2d 	xnord  %o2, %o5, %g4
    453c:	88 3a 80 2e 	xnord  %o2, %sp, %g4
    4540:	88 3a 80 2f 	xnord  %o2, %o7, %g4
    4544:	88 3a 80 30 	xnord  %o2, %l0, %g4
    4548:	88 3a 80 31 	xnord  %o2, %l1, %g4
    454c:	88 3a 80 32 	xnord  %o2, %l2, %g4
    4550:	88 3a 80 33 	xnord  %o2, %l3, %g4
    4554:	88 3a 80 34 	xnord  %o2, %l4, %g4
    4558:	88 3a 80 35 	xnord  %o2, %l5, %g4
    455c:	88 3a 80 36 	xnord  %o2, %l6, %g4
    4560:	88 3a 80 37 	xnord  %o2, %l7, %g4
    4564:	88 3a 80 38 	xnord  %o2, %i0, %g4
    4568:	88 3a 80 39 	xnord  %o2, %i1, %g4
    456c:	88 3a 80 3a 	xnord  %o2, %i2, %g4
    4570:	88 3a 80 3b 	xnord  %o2, %i3, %g4
    4574:	88 3a 80 3c 	xnord  %o2, %i4, %g4
    4578:	88 3a 80 3d 	xnord  %o2, %i5, %g4
    457c:	88 3a 80 3e 	xnord  %o2, %fp, %g4
    4580:	88 3a 80 3f 	xnord  %o2, %i7, %g4
    4584:	88 3a c0 20 	xnord  %o3, %g0, %g4
    4588:	88 3a c0 21 	xnord  %o3, %g1, %g4
    458c:	88 3a c0 22 	xnord  %o3, %g2, %g4
    4590:	88 3a c0 23 	xnord  %o3, %g3, %g4
    4594:	88 3a c0 24 	xnord  %o3, %g4, %g4
    4598:	88 3a c0 25 	xnord  %o3, %g5, %g4
    459c:	88 3a c0 26 	xnord  %o3, %g6, %g4
    45a0:	88 3a c0 27 	xnord  %o3, %g7, %g4
    45a4:	88 3a c0 28 	xnord  %o3, %o0, %g4
    45a8:	88 3a c0 29 	xnord  %o3, %o1, %g4
    45ac:	88 3a c0 2a 	xnord  %o3, %o2, %g4
    45b0:	88 3a c0 2b 	xnord  %o3, %o3, %g4
    45b4:	88 3a c0 2c 	xnord  %o3, %o4, %g4
    45b8:	88 3a c0 2d 	xnord  %o3, %o5, %g4
    45bc:	88 3a c0 2e 	xnord  %o3, %sp, %g4
    45c0:	88 3a c0 2f 	xnord  %o3, %o7, %g4
    45c4:	88 3a c0 30 	xnord  %o3, %l0, %g4
    45c8:	88 3a c0 31 	xnord  %o3, %l1, %g4
    45cc:	88 3a c0 32 	xnord  %o3, %l2, %g4
    45d0:	88 3a c0 33 	xnord  %o3, %l3, %g4
    45d4:	88 3a c0 34 	xnord  %o3, %l4, %g4
    45d8:	88 3a c0 35 	xnord  %o3, %l5, %g4
    45dc:	88 3a c0 36 	xnord  %o3, %l6, %g4
    45e0:	88 3a c0 37 	xnord  %o3, %l7, %g4
    45e4:	88 3a c0 38 	xnord  %o3, %i0, %g4
    45e8:	88 3a c0 39 	xnord  %o3, %i1, %g4
    45ec:	88 3a c0 3a 	xnord  %o3, %i2, %g4
    45f0:	88 3a c0 3b 	xnord  %o3, %i3, %g4
    45f4:	88 3a c0 3c 	xnord  %o3, %i4, %g4
    45f8:	88 3a c0 3d 	xnord  %o3, %i5, %g4
    45fc:	88 3a c0 3e 	xnord  %o3, %fp, %g4
    4600:	88 3a c0 3f 	xnord  %o3, %i7, %g4
    4604:	88 3b 00 20 	xnord  %o4, %g0, %g4
    4608:	88 3b 00 21 	xnord  %o4, %g1, %g4
    460c:	88 3b 00 22 	xnord  %o4, %g2, %g4
    4610:	88 3b 00 23 	xnord  %o4, %g3, %g4
    4614:	88 3b 00 24 	xnord  %o4, %g4, %g4
    4618:	88 3b 00 25 	xnord  %o4, %g5, %g4
    461c:	88 3b 00 26 	xnord  %o4, %g6, %g4
    4620:	88 3b 00 27 	xnord  %o4, %g7, %g4
    4624:	88 3b 00 28 	xnord  %o4, %o0, %g4
    4628:	88 3b 00 29 	xnord  %o4, %o1, %g4
    462c:	88 3b 00 2a 	xnord  %o4, %o2, %g4
    4630:	88 3b 00 2b 	xnord  %o4, %o3, %g4
    4634:	88 3b 00 2c 	xnord  %o4, %o4, %g4
    4638:	88 3b 00 2d 	xnord  %o4, %o5, %g4
    463c:	88 3b 00 2e 	xnord  %o4, %sp, %g4
    4640:	88 3b 00 2f 	xnord  %o4, %o7, %g4
    4644:	88 3b 00 30 	xnord  %o4, %l0, %g4
    4648:	88 3b 00 31 	xnord  %o4, %l1, %g4
    464c:	88 3b 00 32 	xnord  %o4, %l2, %g4
    4650:	88 3b 00 33 	xnord  %o4, %l3, %g4
    4654:	88 3b 00 34 	xnord  %o4, %l4, %g4
    4658:	88 3b 00 35 	xnord  %o4, %l5, %g4
    465c:	88 3b 00 36 	xnord  %o4, %l6, %g4
    4660:	88 3b 00 37 	xnord  %o4, %l7, %g4
    4664:	88 3b 00 38 	xnord  %o4, %i0, %g4
    4668:	88 3b 00 39 	xnord  %o4, %i1, %g4
    466c:	88 3b 00 3a 	xnord  %o4, %i2, %g4
    4670:	88 3b 00 3b 	xnord  %o4, %i3, %g4
    4674:	88 3b 00 3c 	xnord  %o4, %i4, %g4
    4678:	88 3b 00 3d 	xnord  %o4, %i5, %g4
    467c:	88 3b 00 3e 	xnord  %o4, %fp, %g4
    4680:	88 3b 00 3f 	xnord  %o4, %i7, %g4
    4684:	88 3b 40 20 	xnord  %o5, %g0, %g4
    4688:	88 3b 40 21 	xnord  %o5, %g1, %g4
    468c:	88 3b 40 22 	xnord  %o5, %g2, %g4
    4690:	88 3b 40 23 	xnord  %o5, %g3, %g4
    4694:	88 3b 40 24 	xnord  %o5, %g4, %g4
    4698:	88 3b 40 25 	xnord  %o5, %g5, %g4
    469c:	88 3b 40 26 	xnord  %o5, %g6, %g4
    46a0:	88 3b 40 27 	xnord  %o5, %g7, %g4
    46a4:	88 3b 40 28 	xnord  %o5, %o0, %g4
    46a8:	88 3b 40 29 	xnord  %o5, %o1, %g4
    46ac:	88 3b 40 2a 	xnord  %o5, %o2, %g4
    46b0:	88 3b 40 2b 	xnord  %o5, %o3, %g4
    46b4:	88 3b 40 2c 	xnord  %o5, %o4, %g4
    46b8:	88 3b 40 2d 	xnord  %o5, %o5, %g4
    46bc:	88 3b 40 2e 	xnord  %o5, %sp, %g4
    46c0:	88 3b 40 2f 	xnord  %o5, %o7, %g4
    46c4:	88 3b 40 30 	xnord  %o5, %l0, %g4
    46c8:	88 3b 40 31 	xnord  %o5, %l1, %g4
    46cc:	88 3b 40 32 	xnord  %o5, %l2, %g4
    46d0:	88 3b 40 33 	xnord  %o5, %l3, %g4
    46d4:	88 3b 40 34 	xnord  %o5, %l4, %g4
    46d8:	88 3b 40 35 	xnord  %o5, %l5, %g4
    46dc:	88 3b 40 36 	xnord  %o5, %l6, %g4
    46e0:	88 3b 40 37 	xnord  %o5, %l7, %g4
    46e4:	88 3b 40 38 	xnord  %o5, %i0, %g4
    46e8:	88 3b 40 39 	xnord  %o5, %i1, %g4
    46ec:	88 3b 40 3a 	xnord  %o5, %i2, %g4
    46f0:	88 3b 40 3b 	xnord  %o5, %i3, %g4
    46f4:	88 3b 40 3c 	xnord  %o5, %i4, %g4
    46f8:	88 3b 40 3d 	xnord  %o5, %i5, %g4
    46fc:	88 3b 40 3e 	xnord  %o5, %fp, %g4
    4700:	88 3b 40 3f 	xnord  %o5, %i7, %g4
    4704:	88 3b 80 20 	xnord  %sp, %g0, %g4
    4708:	88 3b 80 21 	xnord  %sp, %g1, %g4
    470c:	88 3b 80 22 	xnord  %sp, %g2, %g4
    4710:	88 3b 80 23 	xnord  %sp, %g3, %g4
    4714:	88 3b 80 24 	xnord  %sp, %g4, %g4
    4718:	88 3b 80 25 	xnord  %sp, %g5, %g4
    471c:	88 3b 80 26 	xnord  %sp, %g6, %g4
    4720:	88 3b 80 27 	xnord  %sp, %g7, %g4
    4724:	88 3b 80 28 	xnord  %sp, %o0, %g4
    4728:	88 3b 80 29 	xnord  %sp, %o1, %g4
    472c:	88 3b 80 2a 	xnord  %sp, %o2, %g4
    4730:	88 3b 80 2b 	xnord  %sp, %o3, %g4
    4734:	88 3b 80 2c 	xnord  %sp, %o4, %g4
    4738:	88 3b 80 2d 	xnord  %sp, %o5, %g4
    473c:	88 3b 80 2e 	xnord  %sp, %sp, %g4
    4740:	88 3b 80 2f 	xnord  %sp, %o7, %g4
    4744:	88 3b 80 30 	xnord  %sp, %l0, %g4
    4748:	88 3b 80 31 	xnord  %sp, %l1, %g4
    474c:	88 3b 80 32 	xnord  %sp, %l2, %g4
    4750:	88 3b 80 33 	xnord  %sp, %l3, %g4
    4754:	88 3b 80 34 	xnord  %sp, %l4, %g4
    4758:	88 3b 80 35 	xnord  %sp, %l5, %g4
    475c:	88 3b 80 36 	xnord  %sp, %l6, %g4
    4760:	88 3b 80 37 	xnord  %sp, %l7, %g4
    4764:	88 3b 80 38 	xnord  %sp, %i0, %g4
    4768:	88 3b 80 39 	xnord  %sp, %i1, %g4
    476c:	88 3b 80 3a 	xnord  %sp, %i2, %g4
    4770:	88 3b 80 3b 	xnord  %sp, %i3, %g4
    4774:	88 3b 80 3c 	xnord  %sp, %i4, %g4
    4778:	88 3b 80 3d 	xnord  %sp, %i5, %g4
    477c:	88 3b 80 3e 	xnord  %sp, %fp, %g4
    4780:	88 3b 80 3f 	xnord  %sp, %i7, %g4
    4784:	88 3b c0 20 	xnord  %o7, %g0, %g4
    4788:	88 3b c0 21 	xnord  %o7, %g1, %g4
    478c:	88 3b c0 22 	xnord  %o7, %g2, %g4
    4790:	88 3b c0 23 	xnord  %o7, %g3, %g4
    4794:	88 3b c0 24 	xnord  %o7, %g4, %g4
    4798:	88 3b c0 25 	xnord  %o7, %g5, %g4
    479c:	88 3b c0 26 	xnord  %o7, %g6, %g4
    47a0:	88 3b c0 27 	xnord  %o7, %g7, %g4
    47a4:	88 3b c0 28 	xnord  %o7, %o0, %g4
    47a8:	88 3b c0 29 	xnord  %o7, %o1, %g4
    47ac:	88 3b c0 2a 	xnord  %o7, %o2, %g4
    47b0:	88 3b c0 2b 	xnord  %o7, %o3, %g4
    47b4:	88 3b c0 2c 	xnord  %o7, %o4, %g4
    47b8:	88 3b c0 2d 	xnord  %o7, %o5, %g4
    47bc:	88 3b c0 2e 	xnord  %o7, %sp, %g4
    47c0:	88 3b c0 2f 	xnord  %o7, %o7, %g4
    47c4:	88 3b c0 30 	xnord  %o7, %l0, %g4
    47c8:	88 3b c0 31 	xnord  %o7, %l1, %g4
    47cc:	88 3b c0 32 	xnord  %o7, %l2, %g4
    47d0:	88 3b c0 33 	xnord  %o7, %l3, %g4
    47d4:	88 3b c0 34 	xnord  %o7, %l4, %g4
    47d8:	88 3b c0 35 	xnord  %o7, %l5, %g4
    47dc:	88 3b c0 36 	xnord  %o7, %l6, %g4
    47e0:	88 3b c0 37 	xnord  %o7, %l7, %g4
    47e4:	88 3b c0 38 	xnord  %o7, %i0, %g4
    47e8:	88 3b c0 39 	xnord  %o7, %i1, %g4
    47ec:	88 3b c0 3a 	xnord  %o7, %i2, %g4
    47f0:	88 3b c0 3b 	xnord  %o7, %i3, %g4
    47f4:	88 3b c0 3c 	xnord  %o7, %i4, %g4
    47f8:	88 3b c0 3d 	xnord  %o7, %i5, %g4
    47fc:	88 3b c0 3e 	xnord  %o7, %fp, %g4
    4800:	88 3b c0 3f 	xnord  %o7, %i7, %g4
    4804:	88 3c 00 20 	xnord  %l0, %g0, %g4
    4808:	88 3c 00 21 	xnord  %l0, %g1, %g4
    480c:	88 3c 00 22 	xnord  %l0, %g2, %g4
    4810:	88 3c 00 23 	xnord  %l0, %g3, %g4
    4814:	88 3c 00 24 	xnord  %l0, %g4, %g4
    4818:	88 3c 00 25 	xnord  %l0, %g5, %g4
    481c:	88 3c 00 26 	xnord  %l0, %g6, %g4
    4820:	88 3c 00 27 	xnord  %l0, %g7, %g4
    4824:	88 3c 00 28 	xnord  %l0, %o0, %g4
    4828:	88 3c 00 29 	xnord  %l0, %o1, %g4
    482c:	88 3c 00 2a 	xnord  %l0, %o2, %g4
    4830:	88 3c 00 2b 	xnord  %l0, %o3, %g4
    4834:	88 3c 00 2c 	xnord  %l0, %o4, %g4
    4838:	88 3c 00 2d 	xnord  %l0, %o5, %g4
    483c:	88 3c 00 2e 	xnord  %l0, %sp, %g4
    4840:	88 3c 00 2f 	xnord  %l0, %o7, %g4
    4844:	88 3c 00 30 	xnord  %l0, %l0, %g4
    4848:	88 3c 00 31 	xnord  %l0, %l1, %g4
    484c:	88 3c 00 32 	xnord  %l0, %l2, %g4
    4850:	88 3c 00 33 	xnord  %l0, %l3, %g4
    4854:	88 3c 00 34 	xnord  %l0, %l4, %g4
    4858:	88 3c 00 35 	xnord  %l0, %l5, %g4
    485c:	88 3c 00 36 	xnord  %l0, %l6, %g4
    4860:	88 3c 00 37 	xnord  %l0, %l7, %g4
    4864:	88 3c 00 38 	xnord  %l0, %i0, %g4
    4868:	88 3c 00 39 	xnord  %l0, %i1, %g4
    486c:	88 3c 00 3a 	xnord  %l0, %i2, %g4
    4870:	88 3c 00 3b 	xnord  %l0, %i3, %g4
    4874:	88 3c 00 3c 	xnord  %l0, %i4, %g4
    4878:	88 3c 00 3d 	xnord  %l0, %i5, %g4
    487c:	88 3c 00 3e 	xnord  %l0, %fp, %g4
    4880:	88 3c 00 3f 	xnord  %l0, %i7, %g4
    4884:	88 3c 40 20 	xnord  %l1, %g0, %g4
    4888:	88 3c 40 21 	xnord  %l1, %g1, %g4
    488c:	88 3c 40 22 	xnord  %l1, %g2, %g4
    4890:	88 3c 40 23 	xnord  %l1, %g3, %g4
    4894:	88 3c 40 24 	xnord  %l1, %g4, %g4
    4898:	88 3c 40 25 	xnord  %l1, %g5, %g4
    489c:	88 3c 40 26 	xnord  %l1, %g6, %g4
    48a0:	88 3c 40 27 	xnord  %l1, %g7, %g4
    48a4:	88 3c 40 28 	xnord  %l1, %o0, %g4
    48a8:	88 3c 40 29 	xnord  %l1, %o1, %g4
    48ac:	88 3c 40 2a 	xnord  %l1, %o2, %g4
    48b0:	88 3c 40 2b 	xnord  %l1, %o3, %g4
    48b4:	88 3c 40 2c 	xnord  %l1, %o4, %g4
    48b8:	88 3c 40 2d 	xnord  %l1, %o5, %g4
    48bc:	88 3c 40 2e 	xnord  %l1, %sp, %g4
    48c0:	88 3c 40 2f 	xnord  %l1, %o7, %g4
    48c4:	88 3c 40 30 	xnord  %l1, %l0, %g4
    48c8:	88 3c 40 31 	xnord  %l1, %l1, %g4
    48cc:	88 3c 40 32 	xnord  %l1, %l2, %g4
    48d0:	88 3c 40 33 	xnord  %l1, %l3, %g4
    48d4:	88 3c 40 34 	xnord  %l1, %l4, %g4
    48d8:	88 3c 40 35 	xnord  %l1, %l5, %g4
    48dc:	88 3c 40 36 	xnord  %l1, %l6, %g4
    48e0:	88 3c 40 37 	xnord  %l1, %l7, %g4
    48e4:	88 3c 40 38 	xnord  %l1, %i0, %g4
    48e8:	88 3c 40 39 	xnord  %l1, %i1, %g4
    48ec:	88 3c 40 3a 	xnord  %l1, %i2, %g4
    48f0:	88 3c 40 3b 	xnord  %l1, %i3, %g4
    48f4:	88 3c 40 3c 	xnord  %l1, %i4, %g4
    48f8:	88 3c 40 3d 	xnord  %l1, %i5, %g4
    48fc:	88 3c 40 3e 	xnord  %l1, %fp, %g4
    4900:	88 3c 40 3f 	xnord  %l1, %i7, %g4
    4904:	88 3c 80 20 	xnord  %l2, %g0, %g4
    4908:	88 3c 80 21 	xnord  %l2, %g1, %g4
    490c:	88 3c 80 22 	xnord  %l2, %g2, %g4
    4910:	88 3c 80 23 	xnord  %l2, %g3, %g4
    4914:	88 3c 80 24 	xnord  %l2, %g4, %g4
    4918:	88 3c 80 25 	xnord  %l2, %g5, %g4
    491c:	88 3c 80 26 	xnord  %l2, %g6, %g4
    4920:	88 3c 80 27 	xnord  %l2, %g7, %g4
    4924:	88 3c 80 28 	xnord  %l2, %o0, %g4
    4928:	88 3c 80 29 	xnord  %l2, %o1, %g4
    492c:	88 3c 80 2a 	xnord  %l2, %o2, %g4
    4930:	88 3c 80 2b 	xnord  %l2, %o3, %g4
    4934:	88 3c 80 2c 	xnord  %l2, %o4, %g4
    4938:	88 3c 80 2d 	xnord  %l2, %o5, %g4
    493c:	88 3c 80 2e 	xnord  %l2, %sp, %g4
    4940:	88 3c 80 2f 	xnord  %l2, %o7, %g4
    4944:	88 3c 80 30 	xnord  %l2, %l0, %g4
    4948:	88 3c 80 31 	xnord  %l2, %l1, %g4
    494c:	88 3c 80 32 	xnord  %l2, %l2, %g4
    4950:	88 3c 80 33 	xnord  %l2, %l3, %g4
    4954:	88 3c 80 34 	xnord  %l2, %l4, %g4
    4958:	88 3c 80 35 	xnord  %l2, %l5, %g4
    495c:	88 3c 80 36 	xnord  %l2, %l6, %g4
    4960:	88 3c 80 37 	xnord  %l2, %l7, %g4
    4964:	88 3c 80 38 	xnord  %l2, %i0, %g4
    4968:	88 3c 80 39 	xnord  %l2, %i1, %g4
    496c:	88 3c 80 3a 	xnord  %l2, %i2, %g4
    4970:	88 3c 80 3b 	xnord  %l2, %i3, %g4
    4974:	88 3c 80 3c 	xnord  %l2, %i4, %g4
    4978:	88 3c 80 3d 	xnord  %l2, %i5, %g4
    497c:	88 3c 80 3e 	xnord  %l2, %fp, %g4
    4980:	88 3c 80 3f 	xnord  %l2, %i7, %g4
    4984:	88 3c c0 20 	xnord  %l3, %g0, %g4
    4988:	88 3c c0 21 	xnord  %l3, %g1, %g4
    498c:	88 3c c0 22 	xnord  %l3, %g2, %g4
    4990:	88 3c c0 23 	xnord  %l3, %g3, %g4
    4994:	88 3c c0 24 	xnord  %l3, %g4, %g4
    4998:	88 3c c0 25 	xnord  %l3, %g5, %g4
    499c:	88 3c c0 26 	xnord  %l3, %g6, %g4
    49a0:	88 3c c0 27 	xnord  %l3, %g7, %g4
    49a4:	88 3c c0 28 	xnord  %l3, %o0, %g4
    49a8:	88 3c c0 29 	xnord  %l3, %o1, %g4
    49ac:	88 3c c0 2a 	xnord  %l3, %o2, %g4
    49b0:	88 3c c0 2b 	xnord  %l3, %o3, %g4
    49b4:	88 3c c0 2c 	xnord  %l3, %o4, %g4
    49b8:	88 3c c0 2d 	xnord  %l3, %o5, %g4
    49bc:	88 3c c0 2e 	xnord  %l3, %sp, %g4
    49c0:	88 3c c0 2f 	xnord  %l3, %o7, %g4
    49c4:	88 3c c0 30 	xnord  %l3, %l0, %g4
    49c8:	88 3c c0 31 	xnord  %l3, %l1, %g4
    49cc:	88 3c c0 32 	xnord  %l3, %l2, %g4
    49d0:	88 3c c0 33 	xnord  %l3, %l3, %g4
    49d4:	88 3c c0 34 	xnord  %l3, %l4, %g4
    49d8:	88 3c c0 35 	xnord  %l3, %l5, %g4
    49dc:	88 3c c0 36 	xnord  %l3, %l6, %g4
    49e0:	88 3c c0 37 	xnord  %l3, %l7, %g4
    49e4:	88 3c c0 38 	xnord  %l3, %i0, %g4
    49e8:	88 3c c0 39 	xnord  %l3, %i1, %g4
    49ec:	88 3c c0 3a 	xnord  %l3, %i2, %g4
    49f0:	88 3c c0 3b 	xnord  %l3, %i3, %g4
    49f4:	88 3c c0 3c 	xnord  %l3, %i4, %g4
    49f8:	88 3c c0 3d 	xnord  %l3, %i5, %g4
    49fc:	88 3c c0 3e 	xnord  %l3, %fp, %g4
    4a00:	88 3c c0 3f 	xnord  %l3, %i7, %g4
    4a04:	88 3d 00 20 	xnord  %l4, %g0, %g4
    4a08:	88 3d 00 21 	xnord  %l4, %g1, %g4
    4a0c:	88 3d 00 22 	xnord  %l4, %g2, %g4
    4a10:	88 3d 00 23 	xnord  %l4, %g3, %g4
    4a14:	88 3d 00 24 	xnord  %l4, %g4, %g4
    4a18:	88 3d 00 25 	xnord  %l4, %g5, %g4
    4a1c:	88 3d 00 26 	xnord  %l4, %g6, %g4
    4a20:	88 3d 00 27 	xnord  %l4, %g7, %g4
    4a24:	88 3d 00 28 	xnord  %l4, %o0, %g4
    4a28:	88 3d 00 29 	xnord  %l4, %o1, %g4
    4a2c:	88 3d 00 2a 	xnord  %l4, %o2, %g4
    4a30:	88 3d 00 2b 	xnord  %l4, %o3, %g4
    4a34:	88 3d 00 2c 	xnord  %l4, %o4, %g4
    4a38:	88 3d 00 2d 	xnord  %l4, %o5, %g4
    4a3c:	88 3d 00 2e 	xnord  %l4, %sp, %g4
    4a40:	88 3d 00 2f 	xnord  %l4, %o7, %g4
    4a44:	88 3d 00 30 	xnord  %l4, %l0, %g4
    4a48:	88 3d 00 31 	xnord  %l4, %l1, %g4
    4a4c:	88 3d 00 32 	xnord  %l4, %l2, %g4
    4a50:	88 3d 00 33 	xnord  %l4, %l3, %g4
    4a54:	88 3d 00 34 	xnord  %l4, %l4, %g4
    4a58:	88 3d 00 35 	xnord  %l4, %l5, %g4
    4a5c:	88 3d 00 36 	xnord  %l4, %l6, %g4
    4a60:	88 3d 00 37 	xnord  %l4, %l7, %g4
    4a64:	88 3d 00 38 	xnord  %l4, %i0, %g4
    4a68:	88 3d 00 39 	xnord  %l4, %i1, %g4
    4a6c:	88 3d 00 3a 	xnord  %l4, %i2, %g4
    4a70:	88 3d 00 3b 	xnord  %l4, %i3, %g4
    4a74:	88 3d 00 3c 	xnord  %l4, %i4, %g4
    4a78:	88 3d 00 3d 	xnord  %l4, %i5, %g4
    4a7c:	88 3d 00 3e 	xnord  %l4, %fp, %g4
    4a80:	88 3d 00 3f 	xnord  %l4, %i7, %g4
    4a84:	88 3d 40 20 	xnord  %l5, %g0, %g4
    4a88:	88 3d 40 21 	xnord  %l5, %g1, %g4
    4a8c:	88 3d 40 22 	xnord  %l5, %g2, %g4
    4a90:	88 3d 40 23 	xnord  %l5, %g3, %g4
    4a94:	88 3d 40 24 	xnord  %l5, %g4, %g4
    4a98:	88 3d 40 25 	xnord  %l5, %g5, %g4
    4a9c:	88 3d 40 26 	xnord  %l5, %g6, %g4
    4aa0:	88 3d 40 27 	xnord  %l5, %g7, %g4
    4aa4:	88 3d 40 28 	xnord  %l5, %o0, %g4
    4aa8:	88 3d 40 29 	xnord  %l5, %o1, %g4
    4aac:	88 3d 40 2a 	xnord  %l5, %o2, %g4
    4ab0:	88 3d 40 2b 	xnord  %l5, %o3, %g4
    4ab4:	88 3d 40 2c 	xnord  %l5, %o4, %g4
    4ab8:	88 3d 40 2d 	xnord  %l5, %o5, %g4
    4abc:	88 3d 40 2e 	xnord  %l5, %sp, %g4
    4ac0:	88 3d 40 2f 	xnord  %l5, %o7, %g4
    4ac4:	88 3d 40 30 	xnord  %l5, %l0, %g4
    4ac8:	88 3d 40 31 	xnord  %l5, %l1, %g4
    4acc:	88 3d 40 32 	xnord  %l5, %l2, %g4
    4ad0:	88 3d 40 33 	xnord  %l5, %l3, %g4
    4ad4:	88 3d 40 34 	xnord  %l5, %l4, %g4
    4ad8:	88 3d 40 35 	xnord  %l5, %l5, %g4
    4adc:	88 3d 40 36 	xnord  %l5, %l6, %g4
    4ae0:	88 3d 40 37 	xnord  %l5, %l7, %g4
    4ae4:	88 3d 40 38 	xnord  %l5, %i0, %g4
    4ae8:	88 3d 40 39 	xnord  %l5, %i1, %g4
    4aec:	88 3d 40 3a 	xnord  %l5, %i2, %g4
    4af0:	88 3d 40 3b 	xnord  %l5, %i3, %g4
    4af4:	88 3d 40 3c 	xnord  %l5, %i4, %g4
    4af8:	88 3d 40 3d 	xnord  %l5, %i5, %g4
    4afc:	88 3d 40 3e 	xnord  %l5, %fp, %g4
    4b00:	88 3d 40 3f 	xnord  %l5, %i7, %g4
    4b04:	88 3d 80 20 	xnord  %l6, %g0, %g4
    4b08:	88 3d 80 21 	xnord  %l6, %g1, %g4
    4b0c:	88 3d 80 22 	xnord  %l6, %g2, %g4
    4b10:	88 3d 80 23 	xnord  %l6, %g3, %g4
    4b14:	88 3d 80 24 	xnord  %l6, %g4, %g4
    4b18:	88 3d 80 25 	xnord  %l6, %g5, %g4
    4b1c:	88 3d 80 26 	xnord  %l6, %g6, %g4
    4b20:	88 3d 80 27 	xnord  %l6, %g7, %g4
    4b24:	88 3d 80 28 	xnord  %l6, %o0, %g4
    4b28:	88 3d 80 29 	xnord  %l6, %o1, %g4
    4b2c:	88 3d 80 2a 	xnord  %l6, %o2, %g4
    4b30:	88 3d 80 2b 	xnord  %l6, %o3, %g4
    4b34:	88 3d 80 2c 	xnord  %l6, %o4, %g4
    4b38:	88 3d 80 2d 	xnord  %l6, %o5, %g4
    4b3c:	88 3d 80 2e 	xnord  %l6, %sp, %g4
    4b40:	88 3d 80 2f 	xnord  %l6, %o7, %g4
    4b44:	88 3d 80 30 	xnord  %l6, %l0, %g4
    4b48:	88 3d 80 31 	xnord  %l6, %l1, %g4
    4b4c:	88 3d 80 32 	xnord  %l6, %l2, %g4
    4b50:	88 3d 80 33 	xnord  %l6, %l3, %g4
    4b54:	88 3d 80 34 	xnord  %l6, %l4, %g4
    4b58:	88 3d 80 35 	xnord  %l6, %l5, %g4
    4b5c:	88 3d 80 36 	xnord  %l6, %l6, %g4
    4b60:	88 3d 80 37 	xnord  %l6, %l7, %g4
    4b64:	88 3d 80 38 	xnord  %l6, %i0, %g4
    4b68:	88 3d 80 39 	xnord  %l6, %i1, %g4
    4b6c:	88 3d 80 3a 	xnord  %l6, %i2, %g4
    4b70:	88 3d 80 3b 	xnord  %l6, %i3, %g4
    4b74:	88 3d 80 3c 	xnord  %l6, %i4, %g4
    4b78:	88 3d 80 3d 	xnord  %l6, %i5, %g4
    4b7c:	88 3d 80 3e 	xnord  %l6, %fp, %g4
    4b80:	88 3d 80 3f 	xnord  %l6, %i7, %g4
    4b84:	88 3d c0 20 	xnord  %l7, %g0, %g4
    4b88:	88 3d c0 21 	xnord  %l7, %g1, %g4
    4b8c:	88 3d c0 22 	xnord  %l7, %g2, %g4
    4b90:	88 3d c0 23 	xnord  %l7, %g3, %g4
    4b94:	88 3d c0 24 	xnord  %l7, %g4, %g4
    4b98:	88 3d c0 25 	xnord  %l7, %g5, %g4
    4b9c:	88 3d c0 26 	xnord  %l7, %g6, %g4
    4ba0:	88 3d c0 27 	xnord  %l7, %g7, %g4
    4ba4:	88 3d c0 28 	xnord  %l7, %o0, %g4
    4ba8:	88 3d c0 29 	xnord  %l7, %o1, %g4
    4bac:	88 3d c0 2a 	xnord  %l7, %o2, %g4
    4bb0:	88 3d c0 2b 	xnord  %l7, %o3, %g4
    4bb4:	88 3d c0 2c 	xnord  %l7, %o4, %g4
    4bb8:	88 3d c0 2d 	xnord  %l7, %o5, %g4
    4bbc:	88 3d c0 2e 	xnord  %l7, %sp, %g4
    4bc0:	88 3d c0 2f 	xnord  %l7, %o7, %g4
    4bc4:	88 3d c0 30 	xnord  %l7, %l0, %g4
    4bc8:	88 3d c0 31 	xnord  %l7, %l1, %g4
    4bcc:	88 3d c0 32 	xnord  %l7, %l2, %g4
    4bd0:	88 3d c0 33 	xnord  %l7, %l3, %g4
    4bd4:	88 3d c0 34 	xnord  %l7, %l4, %g4
    4bd8:	88 3d c0 35 	xnord  %l7, %l5, %g4
    4bdc:	88 3d c0 36 	xnord  %l7, %l6, %g4
    4be0:	88 3d c0 37 	xnord  %l7, %l7, %g4
    4be4:	88 3d c0 38 	xnord  %l7, %i0, %g4
    4be8:	88 3d c0 39 	xnord  %l7, %i1, %g4
    4bec:	88 3d c0 3a 	xnord  %l7, %i2, %g4
    4bf0:	88 3d c0 3b 	xnord  %l7, %i3, %g4
    4bf4:	88 3d c0 3c 	xnord  %l7, %i4, %g4
    4bf8:	88 3d c0 3d 	xnord  %l7, %i5, %g4
    4bfc:	88 3d c0 3e 	xnord  %l7, %fp, %g4
    4c00:	88 3d c0 3f 	xnord  %l7, %i7, %g4
    4c04:	88 3e 00 20 	xnord  %i0, %g0, %g4
    4c08:	88 3e 00 21 	xnord  %i0, %g1, %g4
    4c0c:	88 3e 00 22 	xnord  %i0, %g2, %g4
    4c10:	88 3e 00 23 	xnord  %i0, %g3, %g4
    4c14:	88 3e 00 24 	xnord  %i0, %g4, %g4
    4c18:	88 3e 00 25 	xnord  %i0, %g5, %g4
    4c1c:	88 3e 00 26 	xnord  %i0, %g6, %g4
    4c20:	88 3e 00 27 	xnord  %i0, %g7, %g4
    4c24:	88 3e 00 28 	xnord  %i0, %o0, %g4
    4c28:	88 3e 00 29 	xnord  %i0, %o1, %g4
    4c2c:	88 3e 00 2a 	xnord  %i0, %o2, %g4
    4c30:	88 3e 00 2b 	xnord  %i0, %o3, %g4
    4c34:	88 3e 00 2c 	xnord  %i0, %o4, %g4
    4c38:	88 3e 00 2d 	xnord  %i0, %o5, %g4
    4c3c:	88 3e 00 2e 	xnord  %i0, %sp, %g4
    4c40:	88 3e 00 2f 	xnord  %i0, %o7, %g4
    4c44:	88 3e 00 30 	xnord  %i0, %l0, %g4
    4c48:	88 3e 00 31 	xnord  %i0, %l1, %g4
    4c4c:	88 3e 00 32 	xnord  %i0, %l2, %g4
    4c50:	88 3e 00 33 	xnord  %i0, %l3, %g4
    4c54:	88 3e 00 34 	xnord  %i0, %l4, %g4
    4c58:	88 3e 00 35 	xnord  %i0, %l5, %g4
    4c5c:	88 3e 00 36 	xnord  %i0, %l6, %g4
    4c60:	88 3e 00 37 	xnord  %i0, %l7, %g4
    4c64:	88 3e 00 38 	xnord  %i0, %i0, %g4
    4c68:	88 3e 00 39 	xnord  %i0, %i1, %g4
    4c6c:	88 3e 00 3a 	xnord  %i0, %i2, %g4
    4c70:	88 3e 00 3b 	xnord  %i0, %i3, %g4
    4c74:	88 3e 00 3c 	xnord  %i0, %i4, %g4
    4c78:	88 3e 00 3d 	xnord  %i0, %i5, %g4
    4c7c:	88 3e 00 3e 	xnord  %i0, %fp, %g4
    4c80:	88 3e 00 3f 	xnord  %i0, %i7, %g4
    4c84:	88 3e 40 20 	xnord  %i1, %g0, %g4
    4c88:	88 3e 40 21 	xnord  %i1, %g1, %g4
    4c8c:	88 3e 40 22 	xnord  %i1, %g2, %g4
    4c90:	88 3e 40 23 	xnord  %i1, %g3, %g4
    4c94:	88 3e 40 24 	xnord  %i1, %g4, %g4
    4c98:	88 3e 40 25 	xnord  %i1, %g5, %g4
    4c9c:	88 3e 40 26 	xnord  %i1, %g6, %g4
    4ca0:	88 3e 40 27 	xnord  %i1, %g7, %g4
    4ca4:	88 3e 40 28 	xnord  %i1, %o0, %g4
    4ca8:	88 3e 40 29 	xnord  %i1, %o1, %g4
    4cac:	88 3e 40 2a 	xnord  %i1, %o2, %g4
    4cb0:	88 3e 40 2b 	xnord  %i1, %o3, %g4
    4cb4:	88 3e 40 2c 	xnord  %i1, %o4, %g4
    4cb8:	88 3e 40 2d 	xnord  %i1, %o5, %g4
    4cbc:	88 3e 40 2e 	xnord  %i1, %sp, %g4
    4cc0:	88 3e 40 2f 	xnord  %i1, %o7, %g4
    4cc4:	88 3e 40 30 	xnord  %i1, %l0, %g4
    4cc8:	88 3e 40 31 	xnord  %i1, %l1, %g4
    4ccc:	88 3e 40 32 	xnord  %i1, %l2, %g4
    4cd0:	88 3e 40 33 	xnord  %i1, %l3, %g4
    4cd4:	88 3e 40 34 	xnord  %i1, %l4, %g4
    4cd8:	88 3e 40 35 	xnord  %i1, %l5, %g4
    4cdc:	88 3e 40 36 	xnord  %i1, %l6, %g4
    4ce0:	88 3e 40 37 	xnord  %i1, %l7, %g4
    4ce4:	88 3e 40 38 	xnord  %i1, %i0, %g4
    4ce8:	88 3e 40 39 	xnord  %i1, %i1, %g4
    4cec:	88 3e 40 3a 	xnord  %i1, %i2, %g4
    4cf0:	88 3e 40 3b 	xnord  %i1, %i3, %g4
    4cf4:	88 3e 40 3c 	xnord  %i1, %i4, %g4
    4cf8:	88 3e 40 3d 	xnord  %i1, %i5, %g4
    4cfc:	88 3e 40 3e 	xnord  %i1, %fp, %g4
    4d00:	88 3e 40 3f 	xnord  %i1, %i7, %g4
    4d04:	88 3e 80 20 	xnord  %i2, %g0, %g4
    4d08:	88 3e 80 21 	xnord  %i2, %g1, %g4
    4d0c:	88 3e 80 22 	xnord  %i2, %g2, %g4
    4d10:	88 3e 80 23 	xnord  %i2, %g3, %g4
    4d14:	88 3e 80 24 	xnord  %i2, %g4, %g4
    4d18:	88 3e 80 25 	xnord  %i2, %g5, %g4
    4d1c:	88 3e 80 26 	xnord  %i2, %g6, %g4
    4d20:	88 3e 80 27 	xnord  %i2, %g7, %g4
    4d24:	88 3e 80 28 	xnord  %i2, %o0, %g4
    4d28:	88 3e 80 29 	xnord  %i2, %o1, %g4
    4d2c:	88 3e 80 2a 	xnord  %i2, %o2, %g4
    4d30:	88 3e 80 2b 	xnord  %i2, %o3, %g4
    4d34:	88 3e 80 2c 	xnord  %i2, %o4, %g4
    4d38:	88 3e 80 2d 	xnord  %i2, %o5, %g4
    4d3c:	88 3e 80 2e 	xnord  %i2, %sp, %g4
    4d40:	88 3e 80 2f 	xnord  %i2, %o7, %g4
    4d44:	88 3e 80 30 	xnord  %i2, %l0, %g4
    4d48:	88 3e 80 31 	xnord  %i2, %l1, %g4
    4d4c:	88 3e 80 32 	xnord  %i2, %l2, %g4
    4d50:	88 3e 80 33 	xnord  %i2, %l3, %g4
    4d54:	88 3e 80 34 	xnord  %i2, %l4, %g4
    4d58:	88 3e 80 35 	xnord  %i2, %l5, %g4
    4d5c:	88 3e 80 36 	xnord  %i2, %l6, %g4
    4d60:	88 3e 80 37 	xnord  %i2, %l7, %g4
    4d64:	88 3e 80 38 	xnord  %i2, %i0, %g4
    4d68:	88 3e 80 39 	xnord  %i2, %i1, %g4
    4d6c:	88 3e 80 3a 	xnord  %i2, %i2, %g4
    4d70:	88 3e 80 3b 	xnord  %i2, %i3, %g4
    4d74:	88 3e 80 3c 	xnord  %i2, %i4, %g4
    4d78:	88 3e 80 3d 	xnord  %i2, %i5, %g4
    4d7c:	88 3e 80 3e 	xnord  %i2, %fp, %g4
    4d80:	88 3e 80 3f 	xnord  %i2, %i7, %g4
    4d84:	88 3e c0 20 	xnord  %i3, %g0, %g4
    4d88:	88 3e c0 21 	xnord  %i3, %g1, %g4
    4d8c:	88 3e c0 22 	xnord  %i3, %g2, %g4
    4d90:	88 3e c0 23 	xnord  %i3, %g3, %g4
    4d94:	88 3e c0 24 	xnord  %i3, %g4, %g4
    4d98:	88 3e c0 25 	xnord  %i3, %g5, %g4
    4d9c:	88 3e c0 26 	xnord  %i3, %g6, %g4
    4da0:	88 3e c0 27 	xnord  %i3, %g7, %g4
    4da4:	88 3e c0 28 	xnord  %i3, %o0, %g4
    4da8:	88 3e c0 29 	xnord  %i3, %o1, %g4
    4dac:	88 3e c0 2a 	xnord  %i3, %o2, %g4
    4db0:	88 3e c0 2b 	xnord  %i3, %o3, %g4
    4db4:	88 3e c0 2c 	xnord  %i3, %o4, %g4
    4db8:	88 3e c0 2d 	xnord  %i3, %o5, %g4
    4dbc:	88 3e c0 2e 	xnord  %i3, %sp, %g4
    4dc0:	88 3e c0 2f 	xnord  %i3, %o7, %g4
    4dc4:	88 3e c0 30 	xnord  %i3, %l0, %g4
    4dc8:	88 3e c0 31 	xnord  %i3, %l1, %g4
    4dcc:	88 3e c0 32 	xnord  %i3, %l2, %g4
    4dd0:	88 3e c0 33 	xnord  %i3, %l3, %g4
    4dd4:	88 3e c0 34 	xnord  %i3, %l4, %g4
    4dd8:	88 3e c0 35 	xnord  %i3, %l5, %g4
    4ddc:	88 3e c0 36 	xnord  %i3, %l6, %g4
    4de0:	88 3e c0 37 	xnord  %i3, %l7, %g4
    4de4:	88 3e c0 38 	xnord  %i3, %i0, %g4
    4de8:	88 3e c0 39 	xnord  %i3, %i1, %g4
    4dec:	88 3e c0 3a 	xnord  %i3, %i2, %g4
    4df0:	88 3e c0 3b 	xnord  %i3, %i3, %g4
    4df4:	88 3e c0 3c 	xnord  %i3, %i4, %g4
    4df8:	88 3e c0 3d 	xnord  %i3, %i5, %g4
    4dfc:	88 3e c0 3e 	xnord  %i3, %fp, %g4
    4e00:	88 3e c0 3f 	xnord  %i3, %i7, %g4
    4e04:	88 3f 00 20 	xnord  %i4, %g0, %g4
    4e08:	88 3f 00 21 	xnord  %i4, %g1, %g4
    4e0c:	88 3f 00 22 	xnord  %i4, %g2, %g4
    4e10:	88 3f 00 23 	xnord  %i4, %g3, %g4
    4e14:	88 3f 00 24 	xnord  %i4, %g4, %g4
    4e18:	88 3f 00 25 	xnord  %i4, %g5, %g4
    4e1c:	88 3f 00 26 	xnord  %i4, %g6, %g4
    4e20:	88 3f 00 27 	xnord  %i4, %g7, %g4
    4e24:	88 3f 00 28 	xnord  %i4, %o0, %g4
    4e28:	88 3f 00 29 	xnord  %i4, %o1, %g4
    4e2c:	88 3f 00 2a 	xnord  %i4, %o2, %g4
    4e30:	88 3f 00 2b 	xnord  %i4, %o3, %g4
    4e34:	88 3f 00 2c 	xnord  %i4, %o4, %g4
    4e38:	88 3f 00 2d 	xnord  %i4, %o5, %g4
    4e3c:	88 3f 00 2e 	xnord  %i4, %sp, %g4
    4e40:	88 3f 00 2f 	xnord  %i4, %o7, %g4
    4e44:	88 3f 00 30 	xnord  %i4, %l0, %g4
    4e48:	88 3f 00 31 	xnord  %i4, %l1, %g4
    4e4c:	88 3f 00 32 	xnord  %i4, %l2, %g4
    4e50:	88 3f 00 33 	xnord  %i4, %l3, %g4
    4e54:	88 3f 00 34 	xnord  %i4, %l4, %g4
    4e58:	88 3f 00 35 	xnord  %i4, %l5, %g4
    4e5c:	88 3f 00 36 	xnord  %i4, %l6, %g4
    4e60:	88 3f 00 37 	xnord  %i4, %l7, %g4
    4e64:	88 3f 00 38 	xnord  %i4, %i0, %g4
    4e68:	88 3f 00 39 	xnord  %i4, %i1, %g4
    4e6c:	88 3f 00 3a 	xnord  %i4, %i2, %g4
    4e70:	88 3f 00 3b 	xnord  %i4, %i3, %g4
    4e74:	88 3f 00 3c 	xnord  %i4, %i4, %g4
    4e78:	88 3f 00 3d 	xnord  %i4, %i5, %g4
    4e7c:	88 3f 00 3e 	xnord  %i4, %fp, %g4
    4e80:	88 3f 00 3f 	xnord  %i4, %i7, %g4
    4e84:	88 3f 40 20 	xnord  %i5, %g0, %g4
    4e88:	88 3f 40 21 	xnord  %i5, %g1, %g4
    4e8c:	88 3f 40 22 	xnord  %i5, %g2, %g4
    4e90:	88 3f 40 23 	xnord  %i5, %g3, %g4
    4e94:	88 3f 40 24 	xnord  %i5, %g4, %g4
    4e98:	88 3f 40 25 	xnord  %i5, %g5, %g4
    4e9c:	88 3f 40 26 	xnord  %i5, %g6, %g4
    4ea0:	88 3f 40 27 	xnord  %i5, %g7, %g4
    4ea4:	88 3f 40 28 	xnord  %i5, %o0, %g4
    4ea8:	88 3f 40 29 	xnord  %i5, %o1, %g4
    4eac:	88 3f 40 2a 	xnord  %i5, %o2, %g4
    4eb0:	88 3f 40 2b 	xnord  %i5, %o3, %g4
    4eb4:	88 3f 40 2c 	xnord  %i5, %o4, %g4
    4eb8:	88 3f 40 2d 	xnord  %i5, %o5, %g4
    4ebc:	88 3f 40 2e 	xnord  %i5, %sp, %g4
    4ec0:	88 3f 40 2f 	xnord  %i5, %o7, %g4
    4ec4:	88 3f 40 30 	xnord  %i5, %l0, %g4
    4ec8:	88 3f 40 31 	xnord  %i5, %l1, %g4
    4ecc:	88 3f 40 32 	xnord  %i5, %l2, %g4
    4ed0:	88 3f 40 33 	xnord  %i5, %l3, %g4
    4ed4:	88 3f 40 34 	xnord  %i5, %l4, %g4
    4ed8:	88 3f 40 35 	xnord  %i5, %l5, %g4
    4edc:	88 3f 40 36 	xnord  %i5, %l6, %g4
    4ee0:	88 3f 40 37 	xnord  %i5, %l7, %g4
    4ee4:	88 3f 40 38 	xnord  %i5, %i0, %g4
    4ee8:	88 3f 40 39 	xnord  %i5, %i1, %g4
    4eec:	88 3f 40 3a 	xnord  %i5, %i2, %g4
    4ef0:	88 3f 40 3b 	xnord  %i5, %i3, %g4
    4ef4:	88 3f 40 3c 	xnord  %i5, %i4, %g4
    4ef8:	88 3f 40 3d 	xnord  %i5, %i5, %g4
    4efc:	88 3f 40 3e 	xnord  %i5, %fp, %g4
    4f00:	88 3f 40 3f 	xnord  %i5, %i7, %g4
    4f04:	88 3f 80 20 	xnord  %fp, %g0, %g4
    4f08:	88 3f 80 21 	xnord  %fp, %g1, %g4
    4f0c:	88 3f 80 22 	xnord  %fp, %g2, %g4
    4f10:	88 3f 80 23 	xnord  %fp, %g3, %g4
    4f14:	88 3f 80 24 	xnord  %fp, %g4, %g4
    4f18:	88 3f 80 25 	xnord  %fp, %g5, %g4
    4f1c:	88 3f 80 26 	xnord  %fp, %g6, %g4
    4f20:	88 3f 80 27 	xnord  %fp, %g7, %g4
    4f24:	88 3f 80 28 	xnord  %fp, %o0, %g4
    4f28:	88 3f 80 29 	xnord  %fp, %o1, %g4
    4f2c:	88 3f 80 2a 	xnord  %fp, %o2, %g4
    4f30:	88 3f 80 2b 	xnord  %fp, %o3, %g4
    4f34:	88 3f 80 2c 	xnord  %fp, %o4, %g4
    4f38:	88 3f 80 2d 	xnord  %fp, %o5, %g4
    4f3c:	88 3f 80 2e 	xnord  %fp, %sp, %g4
    4f40:	88 3f 80 2f 	xnord  %fp, %o7, %g4
    4f44:	88 3f 80 30 	xnord  %fp, %l0, %g4
    4f48:	88 3f 80 31 	xnord  %fp, %l1, %g4
    4f4c:	88 3f 80 32 	xnord  %fp, %l2, %g4
    4f50:	88 3f 80 33 	xnord  %fp, %l3, %g4
    4f54:	88 3f 80 34 	xnord  %fp, %l4, %g4
    4f58:	88 3f 80 35 	xnord  %fp, %l5, %g4
    4f5c:	88 3f 80 36 	xnord  %fp, %l6, %g4
    4f60:	88 3f 80 37 	xnord  %fp, %l7, %g4
    4f64:	88 3f 80 38 	xnord  %fp, %i0, %g4
    4f68:	88 3f 80 39 	xnord  %fp, %i1, %g4
    4f6c:	88 3f 80 3a 	xnord  %fp, %i2, %g4
    4f70:	88 3f 80 3b 	xnord  %fp, %i3, %g4
    4f74:	88 3f 80 3c 	xnord  %fp, %i4, %g4
    4f78:	88 3f 80 3d 	xnord  %fp, %i5, %g4
    4f7c:	88 3f 80 3e 	xnord  %fp, %fp, %g4
    4f80:	88 3f 80 3f 	xnord  %fp, %i7, %g4
    4f84:	88 3f c0 20 	xnord  %i7, %g0, %g4
    4f88:	88 3f c0 21 	xnord  %i7, %g1, %g4
    4f8c:	88 3f c0 22 	xnord  %i7, %g2, %g4
    4f90:	88 3f c0 23 	xnord  %i7, %g3, %g4
    4f94:	88 3f c0 24 	xnord  %i7, %g4, %g4
    4f98:	88 3f c0 25 	xnord  %i7, %g5, %g4
    4f9c:	88 3f c0 26 	xnord  %i7, %g6, %g4
    4fa0:	88 3f c0 27 	xnord  %i7, %g7, %g4
    4fa4:	88 3f c0 28 	xnord  %i7, %o0, %g4
    4fa8:	88 3f c0 29 	xnord  %i7, %o1, %g4
    4fac:	88 3f c0 2a 	xnord  %i7, %o2, %g4
    4fb0:	88 3f c0 2b 	xnord  %i7, %o3, %g4
    4fb4:	88 3f c0 2c 	xnord  %i7, %o4, %g4
    4fb8:	88 3f c0 2d 	xnord  %i7, %o5, %g4
    4fbc:	88 3f c0 2e 	xnord  %i7, %sp, %g4
    4fc0:	88 3f c0 2f 	xnord  %i7, %o7, %g4
    4fc4:	88 3f c0 30 	xnord  %i7, %l0, %g4
    4fc8:	88 3f c0 31 	xnord  %i7, %l1, %g4
    4fcc:	88 3f c0 32 	xnord  %i7, %l2, %g4
    4fd0:	88 3f c0 33 	xnord  %i7, %l3, %g4
    4fd4:	88 3f c0 34 	xnord  %i7, %l4, %g4
    4fd8:	88 3f c0 35 	xnord  %i7, %l5, %g4
    4fdc:	88 3f c0 36 	xnord  %i7, %l6, %g4
    4fe0:	88 3f c0 37 	xnord  %i7, %l7, %g4
    4fe4:	88 3f c0 38 	xnord  %i7, %i0, %g4
    4fe8:	88 3f c0 39 	xnord  %i7, %i1, %g4
    4fec:	88 3f c0 3a 	xnord  %i7, %i2, %g4
    4ff0:	88 3f c0 3b 	xnord  %i7, %i3, %g4
    4ff4:	88 3f c0 3c 	xnord  %i7, %i4, %g4
    4ff8:	88 3f c0 3d 	xnord  %i7, %i5, %g4
    4ffc:	88 3f c0 3e 	xnord  %i7, %fp, %g4
    5000:	88 3f c0 3f 	xnord  %i7, %i7, %g4
    5004:	8a 38 00 20 	xnord  %g0, %g0, %g5
    5008:	8a 38 00 21 	xnord  %g0, %g1, %g5
    500c:	8a 38 00 22 	xnord  %g0, %g2, %g5
    5010:	8a 38 00 23 	xnord  %g0, %g3, %g5
    5014:	8a 38 00 24 	xnord  %g0, %g4, %g5
    5018:	8a 38 00 25 	xnord  %g0, %g5, %g5
    501c:	8a 38 00 26 	xnord  %g0, %g6, %g5
    5020:	8a 38 00 27 	xnord  %g0, %g7, %g5
    5024:	8a 38 00 28 	xnord  %g0, %o0, %g5
    5028:	8a 38 00 29 	xnord  %g0, %o1, %g5
    502c:	8a 38 00 2a 	xnord  %g0, %o2, %g5
    5030:	8a 38 00 2b 	xnord  %g0, %o3, %g5
    5034:	8a 38 00 2c 	xnord  %g0, %o4, %g5
    5038:	8a 38 00 2d 	xnord  %g0, %o5, %g5
    503c:	8a 38 00 2e 	xnord  %g0, %sp, %g5
    5040:	8a 38 00 2f 	xnord  %g0, %o7, %g5
    5044:	8a 38 00 30 	xnord  %g0, %l0, %g5
    5048:	8a 38 00 31 	xnord  %g0, %l1, %g5
    504c:	8a 38 00 32 	xnord  %g0, %l2, %g5
    5050:	8a 38 00 33 	xnord  %g0, %l3, %g5
    5054:	8a 38 00 34 	xnord  %g0, %l4, %g5
    5058:	8a 38 00 35 	xnord  %g0, %l5, %g5
    505c:	8a 38 00 36 	xnord  %g0, %l6, %g5
    5060:	8a 38 00 37 	xnord  %g0, %l7, %g5
    5064:	8a 38 00 38 	xnord  %g0, %i0, %g5
    5068:	8a 38 00 39 	xnord  %g0, %i1, %g5
    506c:	8a 38 00 3a 	xnord  %g0, %i2, %g5
    5070:	8a 38 00 3b 	xnord  %g0, %i3, %g5
    5074:	8a 38 00 3c 	xnord  %g0, %i4, %g5
    5078:	8a 38 00 3d 	xnord  %g0, %i5, %g5
    507c:	8a 38 00 3e 	xnord  %g0, %fp, %g5
    5080:	8a 38 00 3f 	xnord  %g0, %i7, %g5
    5084:	8a 38 40 20 	xnord  %g1, %g0, %g5
    5088:	8a 38 40 21 	xnord  %g1, %g1, %g5
    508c:	8a 38 40 22 	xnord  %g1, %g2, %g5
    5090:	8a 38 40 23 	xnord  %g1, %g3, %g5
    5094:	8a 38 40 24 	xnord  %g1, %g4, %g5
    5098:	8a 38 40 25 	xnord  %g1, %g5, %g5
    509c:	8a 38 40 26 	xnord  %g1, %g6, %g5
    50a0:	8a 38 40 27 	xnord  %g1, %g7, %g5
    50a4:	8a 38 40 28 	xnord  %g1, %o0, %g5
    50a8:	8a 38 40 29 	xnord  %g1, %o1, %g5
    50ac:	8a 38 40 2a 	xnord  %g1, %o2, %g5
    50b0:	8a 38 40 2b 	xnord  %g1, %o3, %g5
    50b4:	8a 38 40 2c 	xnord  %g1, %o4, %g5
    50b8:	8a 38 40 2d 	xnord  %g1, %o5, %g5
    50bc:	8a 38 40 2e 	xnord  %g1, %sp, %g5
    50c0:	8a 38 40 2f 	xnord  %g1, %o7, %g5
    50c4:	8a 38 40 30 	xnord  %g1, %l0, %g5
    50c8:	8a 38 40 31 	xnord  %g1, %l1, %g5
    50cc:	8a 38 40 32 	xnord  %g1, %l2, %g5
    50d0:	8a 38 40 33 	xnord  %g1, %l3, %g5
    50d4:	8a 38 40 34 	xnord  %g1, %l4, %g5
    50d8:	8a 38 40 35 	xnord  %g1, %l5, %g5
    50dc:	8a 38 40 36 	xnord  %g1, %l6, %g5
    50e0:	8a 38 40 37 	xnord  %g1, %l7, %g5
    50e4:	8a 38 40 38 	xnord  %g1, %i0, %g5
    50e8:	8a 38 40 39 	xnord  %g1, %i1, %g5
    50ec:	8a 38 40 3a 	xnord  %g1, %i2, %g5
    50f0:	8a 38 40 3b 	xnord  %g1, %i3, %g5
    50f4:	8a 38 40 3c 	xnord  %g1, %i4, %g5
    50f8:	8a 38 40 3d 	xnord  %g1, %i5, %g5
    50fc:	8a 38 40 3e 	xnord  %g1, %fp, %g5
    5100:	8a 38 40 3f 	xnord  %g1, %i7, %g5
    5104:	8a 38 80 20 	xnord  %g2, %g0, %g5
    5108:	8a 38 80 21 	xnord  %g2, %g1, %g5
    510c:	8a 38 80 22 	xnord  %g2, %g2, %g5
    5110:	8a 38 80 23 	xnord  %g2, %g3, %g5
    5114:	8a 38 80 24 	xnord  %g2, %g4, %g5
    5118:	8a 38 80 25 	xnord  %g2, %g5, %g5
    511c:	8a 38 80 26 	xnord  %g2, %g6, %g5
    5120:	8a 38 80 27 	xnord  %g2, %g7, %g5
    5124:	8a 38 80 28 	xnord  %g2, %o0, %g5
    5128:	8a 38 80 29 	xnord  %g2, %o1, %g5
    512c:	8a 38 80 2a 	xnord  %g2, %o2, %g5
    5130:	8a 38 80 2b 	xnord  %g2, %o3, %g5
    5134:	8a 38 80 2c 	xnord  %g2, %o4, %g5
    5138:	8a 38 80 2d 	xnord  %g2, %o5, %g5
    513c:	8a 38 80 2e 	xnord  %g2, %sp, %g5
    5140:	8a 38 80 2f 	xnord  %g2, %o7, %g5
    5144:	8a 38 80 30 	xnord  %g2, %l0, %g5
    5148:	8a 38 80 31 	xnord  %g2, %l1, %g5
    514c:	8a 38 80 32 	xnord  %g2, %l2, %g5
    5150:	8a 38 80 33 	xnord  %g2, %l3, %g5
    5154:	8a 38 80 34 	xnord  %g2, %l4, %g5
    5158:	8a 38 80 35 	xnord  %g2, %l5, %g5
    515c:	8a 38 80 36 	xnord  %g2, %l6, %g5
    5160:	8a 38 80 37 	xnord  %g2, %l7, %g5
    5164:	8a 38 80 38 	xnord  %g2, %i0, %g5
    5168:	8a 38 80 39 	xnord  %g2, %i1, %g5
    516c:	8a 38 80 3a 	xnord  %g2, %i2, %g5
    5170:	8a 38 80 3b 	xnord  %g2, %i3, %g5
    5174:	8a 38 80 3c 	xnord  %g2, %i4, %g5
    5178:	8a 38 80 3d 	xnord  %g2, %i5, %g5
    517c:	8a 38 80 3e 	xnord  %g2, %fp, %g5
    5180:	8a 38 80 3f 	xnord  %g2, %i7, %g5
    5184:	8a 38 c0 20 	xnord  %g3, %g0, %g5
    5188:	8a 38 c0 21 	xnord  %g3, %g1, %g5
    518c:	8a 38 c0 22 	xnord  %g3, %g2, %g5
    5190:	8a 38 c0 23 	xnord  %g3, %g3, %g5
    5194:	8a 38 c0 24 	xnord  %g3, %g4, %g5
    5198:	8a 38 c0 25 	xnord  %g3, %g5, %g5
    519c:	8a 38 c0 26 	xnord  %g3, %g6, %g5
    51a0:	8a 38 c0 27 	xnord  %g3, %g7, %g5
    51a4:	8a 38 c0 28 	xnord  %g3, %o0, %g5
    51a8:	8a 38 c0 29 	xnord  %g3, %o1, %g5
    51ac:	8a 38 c0 2a 	xnord  %g3, %o2, %g5
    51b0:	8a 38 c0 2b 	xnord  %g3, %o3, %g5
    51b4:	8a 38 c0 2c 	xnord  %g3, %o4, %g5
    51b8:	8a 38 c0 2d 	xnord  %g3, %o5, %g5
    51bc:	8a 38 c0 2e 	xnord  %g3, %sp, %g5
    51c0:	8a 38 c0 2f 	xnord  %g3, %o7, %g5
    51c4:	8a 38 c0 30 	xnord  %g3, %l0, %g5
    51c8:	8a 38 c0 31 	xnord  %g3, %l1, %g5
    51cc:	8a 38 c0 32 	xnord  %g3, %l2, %g5
    51d0:	8a 38 c0 33 	xnord  %g3, %l3, %g5
    51d4:	8a 38 c0 34 	xnord  %g3, %l4, %g5
    51d8:	8a 38 c0 35 	xnord  %g3, %l5, %g5
    51dc:	8a 38 c0 36 	xnord  %g3, %l6, %g5
    51e0:	8a 38 c0 37 	xnord  %g3, %l7, %g5
    51e4:	8a 38 c0 38 	xnord  %g3, %i0, %g5
    51e8:	8a 38 c0 39 	xnord  %g3, %i1, %g5
    51ec:	8a 38 c0 3a 	xnord  %g3, %i2, %g5
    51f0:	8a 38 c0 3b 	xnord  %g3, %i3, %g5
    51f4:	8a 38 c0 3c 	xnord  %g3, %i4, %g5
    51f8:	8a 38 c0 3d 	xnord  %g3, %i5, %g5
    51fc:	8a 38 c0 3e 	xnord  %g3, %fp, %g5
    5200:	8a 38 c0 3f 	xnord  %g3, %i7, %g5
    5204:	8a 39 00 20 	xnord  %g4, %g0, %g5
    5208:	8a 39 00 21 	xnord  %g4, %g1, %g5
    520c:	8a 39 00 22 	xnord  %g4, %g2, %g5
    5210:	8a 39 00 23 	xnord  %g4, %g3, %g5
    5214:	8a 39 00 24 	xnord  %g4, %g4, %g5
    5218:	8a 39 00 25 	xnord  %g4, %g5, %g5
    521c:	8a 39 00 26 	xnord  %g4, %g6, %g5
    5220:	8a 39 00 27 	xnord  %g4, %g7, %g5
    5224:	8a 39 00 28 	xnord  %g4, %o0, %g5
    5228:	8a 39 00 29 	xnord  %g4, %o1, %g5
    522c:	8a 39 00 2a 	xnord  %g4, %o2, %g5
    5230:	8a 39 00 2b 	xnord  %g4, %o3, %g5
    5234:	8a 39 00 2c 	xnord  %g4, %o4, %g5
    5238:	8a 39 00 2d 	xnord  %g4, %o5, %g5
    523c:	8a 39 00 2e 	xnord  %g4, %sp, %g5
    5240:	8a 39 00 2f 	xnord  %g4, %o7, %g5
    5244:	8a 39 00 30 	xnord  %g4, %l0, %g5
    5248:	8a 39 00 31 	xnord  %g4, %l1, %g5
    524c:	8a 39 00 32 	xnord  %g4, %l2, %g5
    5250:	8a 39 00 33 	xnord  %g4, %l3, %g5
    5254:	8a 39 00 34 	xnord  %g4, %l4, %g5
    5258:	8a 39 00 35 	xnord  %g4, %l5, %g5
    525c:	8a 39 00 36 	xnord  %g4, %l6, %g5
    5260:	8a 39 00 37 	xnord  %g4, %l7, %g5
    5264:	8a 39 00 38 	xnord  %g4, %i0, %g5
    5268:	8a 39 00 39 	xnord  %g4, %i1, %g5
    526c:	8a 39 00 3a 	xnord  %g4, %i2, %g5
    5270:	8a 39 00 3b 	xnord  %g4, %i3, %g5
    5274:	8a 39 00 3c 	xnord  %g4, %i4, %g5
    5278:	8a 39 00 3d 	xnord  %g4, %i5, %g5
    527c:	8a 39 00 3e 	xnord  %g4, %fp, %g5
    5280:	8a 39 00 3f 	xnord  %g4, %i7, %g5
    5284:	8a 39 40 20 	xnord  %g5, %g0, %g5
    5288:	8a 39 40 21 	xnord  %g5, %g1, %g5
    528c:	8a 39 40 22 	xnord  %g5, %g2, %g5
    5290:	8a 39 40 23 	xnord  %g5, %g3, %g5
    5294:	8a 39 40 24 	xnord  %g5, %g4, %g5
    5298:	8a 39 40 25 	xnord  %g5, %g5, %g5
    529c:	8a 39 40 26 	xnord  %g5, %g6, %g5
    52a0:	8a 39 40 27 	xnord  %g5, %g7, %g5
    52a4:	8a 39 40 28 	xnord  %g5, %o0, %g5
    52a8:	8a 39 40 29 	xnord  %g5, %o1, %g5
    52ac:	8a 39 40 2a 	xnord  %g5, %o2, %g5
    52b0:	8a 39 40 2b 	xnord  %g5, %o3, %g5
    52b4:	8a 39 40 2c 	xnord  %g5, %o4, %g5
    52b8:	8a 39 40 2d 	xnord  %g5, %o5, %g5
    52bc:	8a 39 40 2e 	xnord  %g5, %sp, %g5
    52c0:	8a 39 40 2f 	xnord  %g5, %o7, %g5
    52c4:	8a 39 40 30 	xnord  %g5, %l0, %g5
    52c8:	8a 39 40 31 	xnord  %g5, %l1, %g5
    52cc:	8a 39 40 32 	xnord  %g5, %l2, %g5
    52d0:	8a 39 40 33 	xnord  %g5, %l3, %g5
    52d4:	8a 39 40 34 	xnord  %g5, %l4, %g5
    52d8:	8a 39 40 35 	xnord  %g5, %l5, %g5
    52dc:	8a 39 40 36 	xnord  %g5, %l6, %g5
    52e0:	8a 39 40 37 	xnord  %g5, %l7, %g5
    52e4:	8a 39 40 38 	xnord  %g5, %i0, %g5
    52e8:	8a 39 40 39 	xnord  %g5, %i1, %g5
    52ec:	8a 39 40 3a 	xnord  %g5, %i2, %g5
    52f0:	8a 39 40 3b 	xnord  %g5, %i3, %g5
    52f4:	8a 39 40 3c 	xnord  %g5, %i4, %g5
    52f8:	8a 39 40 3d 	xnord  %g5, %i5, %g5
    52fc:	8a 39 40 3e 	xnord  %g5, %fp, %g5
    5300:	8a 39 40 3f 	xnord  %g5, %i7, %g5
    5304:	8a 39 80 20 	xnord  %g6, %g0, %g5
    5308:	8a 39 80 21 	xnord  %g6, %g1, %g5
    530c:	8a 39 80 22 	xnord  %g6, %g2, %g5
    5310:	8a 39 80 23 	xnord  %g6, %g3, %g5
    5314:	8a 39 80 24 	xnord  %g6, %g4, %g5
    5318:	8a 39 80 25 	xnord  %g6, %g5, %g5
    531c:	8a 39 80 26 	xnord  %g6, %g6, %g5
    5320:	8a 39 80 27 	xnord  %g6, %g7, %g5
    5324:	8a 39 80 28 	xnord  %g6, %o0, %g5
    5328:	8a 39 80 29 	xnord  %g6, %o1, %g5
    532c:	8a 39 80 2a 	xnord  %g6, %o2, %g5
    5330:	8a 39 80 2b 	xnord  %g6, %o3, %g5
    5334:	8a 39 80 2c 	xnord  %g6, %o4, %g5
    5338:	8a 39 80 2d 	xnord  %g6, %o5, %g5
    533c:	8a 39 80 2e 	xnord  %g6, %sp, %g5
    5340:	8a 39 80 2f 	xnord  %g6, %o7, %g5
    5344:	8a 39 80 30 	xnord  %g6, %l0, %g5
    5348:	8a 39 80 31 	xnord  %g6, %l1, %g5
    534c:	8a 39 80 32 	xnord  %g6, %l2, %g5
    5350:	8a 39 80 33 	xnord  %g6, %l3, %g5
    5354:	8a 39 80 34 	xnord  %g6, %l4, %g5
    5358:	8a 39 80 35 	xnord  %g6, %l5, %g5
    535c:	8a 39 80 36 	xnord  %g6, %l6, %g5
    5360:	8a 39 80 37 	xnord  %g6, %l7, %g5
    5364:	8a 39 80 38 	xnord  %g6, %i0, %g5
    5368:	8a 39 80 39 	xnord  %g6, %i1, %g5
    536c:	8a 39 80 3a 	xnord  %g6, %i2, %g5
    5370:	8a 39 80 3b 	xnord  %g6, %i3, %g5
    5374:	8a 39 80 3c 	xnord  %g6, %i4, %g5
    5378:	8a 39 80 3d 	xnord  %g6, %i5, %g5
    537c:	8a 39 80 3e 	xnord  %g6, %fp, %g5
    5380:	8a 39 80 3f 	xnord  %g6, %i7, %g5
    5384:	8a 39 c0 20 	xnord  %g7, %g0, %g5
    5388:	8a 39 c0 21 	xnord  %g7, %g1, %g5
    538c:	8a 39 c0 22 	xnord  %g7, %g2, %g5
    5390:	8a 39 c0 23 	xnord  %g7, %g3, %g5
    5394:	8a 39 c0 24 	xnord  %g7, %g4, %g5
    5398:	8a 39 c0 25 	xnord  %g7, %g5, %g5
    539c:	8a 39 c0 26 	xnord  %g7, %g6, %g5
    53a0:	8a 39 c0 27 	xnord  %g7, %g7, %g5
    53a4:	8a 39 c0 28 	xnord  %g7, %o0, %g5
    53a8:	8a 39 c0 29 	xnord  %g7, %o1, %g5
    53ac:	8a 39 c0 2a 	xnord  %g7, %o2, %g5
    53b0:	8a 39 c0 2b 	xnord  %g7, %o3, %g5
    53b4:	8a 39 c0 2c 	xnord  %g7, %o4, %g5
    53b8:	8a 39 c0 2d 	xnord  %g7, %o5, %g5
    53bc:	8a 39 c0 2e 	xnord  %g7, %sp, %g5
    53c0:	8a 39 c0 2f 	xnord  %g7, %o7, %g5
    53c4:	8a 39 c0 30 	xnord  %g7, %l0, %g5
    53c8:	8a 39 c0 31 	xnord  %g7, %l1, %g5
    53cc:	8a 39 c0 32 	xnord  %g7, %l2, %g5
    53d0:	8a 39 c0 33 	xnord  %g7, %l3, %g5
    53d4:	8a 39 c0 34 	xnord  %g7, %l4, %g5
    53d8:	8a 39 c0 35 	xnord  %g7, %l5, %g5
    53dc:	8a 39 c0 36 	xnord  %g7, %l6, %g5
    53e0:	8a 39 c0 37 	xnord  %g7, %l7, %g5
    53e4:	8a 39 c0 38 	xnord  %g7, %i0, %g5
    53e8:	8a 39 c0 39 	xnord  %g7, %i1, %g5
    53ec:	8a 39 c0 3a 	xnord  %g7, %i2, %g5
    53f0:	8a 39 c0 3b 	xnord  %g7, %i3, %g5
    53f4:	8a 39 c0 3c 	xnord  %g7, %i4, %g5
    53f8:	8a 39 c0 3d 	xnord  %g7, %i5, %g5
    53fc:	8a 39 c0 3e 	xnord  %g7, %fp, %g5
    5400:	8a 39 c0 3f 	xnord  %g7, %i7, %g5
    5404:	8a 3a 00 20 	xnord  %o0, %g0, %g5
    5408:	8a 3a 00 21 	xnord  %o0, %g1, %g5
    540c:	8a 3a 00 22 	xnord  %o0, %g2, %g5
    5410:	8a 3a 00 23 	xnord  %o0, %g3, %g5
    5414:	8a 3a 00 24 	xnord  %o0, %g4, %g5
    5418:	8a 3a 00 25 	xnord  %o0, %g5, %g5
    541c:	8a 3a 00 26 	xnord  %o0, %g6, %g5
    5420:	8a 3a 00 27 	xnord  %o0, %g7, %g5
    5424:	8a 3a 00 28 	xnord  %o0, %o0, %g5
    5428:	8a 3a 00 29 	xnord  %o0, %o1, %g5
    542c:	8a 3a 00 2a 	xnord  %o0, %o2, %g5
    5430:	8a 3a 00 2b 	xnord  %o0, %o3, %g5
    5434:	8a 3a 00 2c 	xnord  %o0, %o4, %g5
    5438:	8a 3a 00 2d 	xnord  %o0, %o5, %g5
    543c:	8a 3a 00 2e 	xnord  %o0, %sp, %g5
    5440:	8a 3a 00 2f 	xnord  %o0, %o7, %g5
    5444:	8a 3a 00 30 	xnord  %o0, %l0, %g5
    5448:	8a 3a 00 31 	xnord  %o0, %l1, %g5
    544c:	8a 3a 00 32 	xnord  %o0, %l2, %g5
    5450:	8a 3a 00 33 	xnord  %o0, %l3, %g5
    5454:	8a 3a 00 34 	xnord  %o0, %l4, %g5
    5458:	8a 3a 00 35 	xnord  %o0, %l5, %g5
    545c:	8a 3a 00 36 	xnord  %o0, %l6, %g5
    5460:	8a 3a 00 37 	xnord  %o0, %l7, %g5
    5464:	8a 3a 00 38 	xnord  %o0, %i0, %g5
    5468:	8a 3a 00 39 	xnord  %o0, %i1, %g5
    546c:	8a 3a 00 3a 	xnord  %o0, %i2, %g5
    5470:	8a 3a 00 3b 	xnord  %o0, %i3, %g5
    5474:	8a 3a 00 3c 	xnord  %o0, %i4, %g5
    5478:	8a 3a 00 3d 	xnord  %o0, %i5, %g5
    547c:	8a 3a 00 3e 	xnord  %o0, %fp, %g5
    5480:	8a 3a 00 3f 	xnord  %o0, %i7, %g5
    5484:	8a 3a 40 20 	xnord  %o1, %g0, %g5
    5488:	8a 3a 40 21 	xnord  %o1, %g1, %g5
    548c:	8a 3a 40 22 	xnord  %o1, %g2, %g5
    5490:	8a 3a 40 23 	xnord  %o1, %g3, %g5
    5494:	8a 3a 40 24 	xnord  %o1, %g4, %g5
    5498:	8a 3a 40 25 	xnord  %o1, %g5, %g5
    549c:	8a 3a 40 26 	xnord  %o1, %g6, %g5
    54a0:	8a 3a 40 27 	xnord  %o1, %g7, %g5
    54a4:	8a 3a 40 28 	xnord  %o1, %o0, %g5
    54a8:	8a 3a 40 29 	xnord  %o1, %o1, %g5
    54ac:	8a 3a 40 2a 	xnord  %o1, %o2, %g5
    54b0:	8a 3a 40 2b 	xnord  %o1, %o3, %g5
    54b4:	8a 3a 40 2c 	xnord  %o1, %o4, %g5
    54b8:	8a 3a 40 2d 	xnord  %o1, %o5, %g5
    54bc:	8a 3a 40 2e 	xnord  %o1, %sp, %g5
    54c0:	8a 3a 40 2f 	xnord  %o1, %o7, %g5
    54c4:	8a 3a 40 30 	xnord  %o1, %l0, %g5
    54c8:	8a 3a 40 31 	xnord  %o1, %l1, %g5
    54cc:	8a 3a 40 32 	xnord  %o1, %l2, %g5
    54d0:	8a 3a 40 33 	xnord  %o1, %l3, %g5
    54d4:	8a 3a 40 34 	xnord  %o1, %l4, %g5
    54d8:	8a 3a 40 35 	xnord  %o1, %l5, %g5
    54dc:	8a 3a 40 36 	xnord  %o1, %l6, %g5
    54e0:	8a 3a 40 37 	xnord  %o1, %l7, %g5
    54e4:	8a 3a 40 38 	xnord  %o1, %i0, %g5
    54e8:	8a 3a 40 39 	xnord  %o1, %i1, %g5
    54ec:	8a 3a 40 3a 	xnord  %o1, %i2, %g5
    54f0:	8a 3a 40 3b 	xnord  %o1, %i3, %g5
    54f4:	8a 3a 40 3c 	xnord  %o1, %i4, %g5
    54f8:	8a 3a 40 3d 	xnord  %o1, %i5, %g5
    54fc:	8a 3a 40 3e 	xnord  %o1, %fp, %g5
    5500:	8a 3a 40 3f 	xnord  %o1, %i7, %g5
    5504:	8a 3a 80 20 	xnord  %o2, %g0, %g5
    5508:	8a 3a 80 21 	xnord  %o2, %g1, %g5
    550c:	8a 3a 80 22 	xnord  %o2, %g2, %g5
    5510:	8a 3a 80 23 	xnord  %o2, %g3, %g5
    5514:	8a 3a 80 24 	xnord  %o2, %g4, %g5
    5518:	8a 3a 80 25 	xnord  %o2, %g5, %g5
    551c:	8a 3a 80 26 	xnord  %o2, %g6, %g5
    5520:	8a 3a 80 27 	xnord  %o2, %g7, %g5
    5524:	8a 3a 80 28 	xnord  %o2, %o0, %g5
    5528:	8a 3a 80 29 	xnord  %o2, %o1, %g5
    552c:	8a 3a 80 2a 	xnord  %o2, %o2, %g5
    5530:	8a 3a 80 2b 	xnord  %o2, %o3, %g5
    5534:	8a 3a 80 2c 	xnord  %o2, %o4, %g5
    5538:	8a 3a 80 2d 	xnord  %o2, %o5, %g5
    553c:	8a 3a 80 2e 	xnord  %o2, %sp, %g5
    5540:	8a 3a 80 2f 	xnord  %o2, %o7, %g5
    5544:	8a 3a 80 30 	xnord  %o2, %l0, %g5
    5548:	8a 3a 80 31 	xnord  %o2, %l1, %g5
    554c:	8a 3a 80 32 	xnord  %o2, %l2, %g5
    5550:	8a 3a 80 33 	xnord  %o2, %l3, %g5
    5554:	8a 3a 80 34 	xnord  %o2, %l4, %g5
    5558:	8a 3a 80 35 	xnord  %o2, %l5, %g5
    555c:	8a 3a 80 36 	xnord  %o2, %l6, %g5
    5560:	8a 3a 80 37 	xnord  %o2, %l7, %g5
    5564:	8a 3a 80 38 	xnord  %o2, %i0, %g5
    5568:	8a 3a 80 39 	xnord  %o2, %i1, %g5
    556c:	8a 3a 80 3a 	xnord  %o2, %i2, %g5
    5570:	8a 3a 80 3b 	xnord  %o2, %i3, %g5
    5574:	8a 3a 80 3c 	xnord  %o2, %i4, %g5
    5578:	8a 3a 80 3d 	xnord  %o2, %i5, %g5
    557c:	8a 3a 80 3e 	xnord  %o2, %fp, %g5
    5580:	8a 3a 80 3f 	xnord  %o2, %i7, %g5
    5584:	8a 3a c0 20 	xnord  %o3, %g0, %g5
    5588:	8a 3a c0 21 	xnord  %o3, %g1, %g5
    558c:	8a 3a c0 22 	xnord  %o3, %g2, %g5
    5590:	8a 3a c0 23 	xnord  %o3, %g3, %g5
    5594:	8a 3a c0 24 	xnord  %o3, %g4, %g5
    5598:	8a 3a c0 25 	xnord  %o3, %g5, %g5
    559c:	8a 3a c0 26 	xnord  %o3, %g6, %g5
    55a0:	8a 3a c0 27 	xnord  %o3, %g7, %g5
    55a4:	8a 3a c0 28 	xnord  %o3, %o0, %g5
    55a8:	8a 3a c0 29 	xnord  %o3, %o1, %g5
    55ac:	8a 3a c0 2a 	xnord  %o3, %o2, %g5
    55b0:	8a 3a c0 2b 	xnord  %o3, %o3, %g5
    55b4:	8a 3a c0 2c 	xnord  %o3, %o4, %g5
    55b8:	8a 3a c0 2d 	xnord  %o3, %o5, %g5
    55bc:	8a 3a c0 2e 	xnord  %o3, %sp, %g5
    55c0:	8a 3a c0 2f 	xnord  %o3, %o7, %g5
    55c4:	8a 3a c0 30 	xnord  %o3, %l0, %g5
    55c8:	8a 3a c0 31 	xnord  %o3, %l1, %g5
    55cc:	8a 3a c0 32 	xnord  %o3, %l2, %g5
    55d0:	8a 3a c0 33 	xnord  %o3, %l3, %g5
    55d4:	8a 3a c0 34 	xnord  %o3, %l4, %g5
    55d8:	8a 3a c0 35 	xnord  %o3, %l5, %g5
    55dc:	8a 3a c0 36 	xnord  %o3, %l6, %g5
    55e0:	8a 3a c0 37 	xnord  %o3, %l7, %g5
    55e4:	8a 3a c0 38 	xnord  %o3, %i0, %g5
    55e8:	8a 3a c0 39 	xnord  %o3, %i1, %g5
    55ec:	8a 3a c0 3a 	xnord  %o3, %i2, %g5
    55f0:	8a 3a c0 3b 	xnord  %o3, %i3, %g5
    55f4:	8a 3a c0 3c 	xnord  %o3, %i4, %g5
    55f8:	8a 3a c0 3d 	xnord  %o3, %i5, %g5
    55fc:	8a 3a c0 3e 	xnord  %o3, %fp, %g5
    5600:	8a 3a c0 3f 	xnord  %o3, %i7, %g5
    5604:	8a 3b 00 20 	xnord  %o4, %g0, %g5
    5608:	8a 3b 00 21 	xnord  %o4, %g1, %g5
    560c:	8a 3b 00 22 	xnord  %o4, %g2, %g5
    5610:	8a 3b 00 23 	xnord  %o4, %g3, %g5
    5614:	8a 3b 00 24 	xnord  %o4, %g4, %g5
    5618:	8a 3b 00 25 	xnord  %o4, %g5, %g5
    561c:	8a 3b 00 26 	xnord  %o4, %g6, %g5
    5620:	8a 3b 00 27 	xnord  %o4, %g7, %g5
    5624:	8a 3b 00 28 	xnord  %o4, %o0, %g5
    5628:	8a 3b 00 29 	xnord  %o4, %o1, %g5
    562c:	8a 3b 00 2a 	xnord  %o4, %o2, %g5
    5630:	8a 3b 00 2b 	xnord  %o4, %o3, %g5
    5634:	8a 3b 00 2c 	xnord  %o4, %o4, %g5
    5638:	8a 3b 00 2d 	xnord  %o4, %o5, %g5
    563c:	8a 3b 00 2e 	xnord  %o4, %sp, %g5
    5640:	8a 3b 00 2f 	xnord  %o4, %o7, %g5
    5644:	8a 3b 00 30 	xnord  %o4, %l0, %g5
    5648:	8a 3b 00 31 	xnord  %o4, %l1, %g5
    564c:	8a 3b 00 32 	xnord  %o4, %l2, %g5
    5650:	8a 3b 00 33 	xnord  %o4, %l3, %g5
    5654:	8a 3b 00 34 	xnord  %o4, %l4, %g5
    5658:	8a 3b 00 35 	xnord  %o4, %l5, %g5
    565c:	8a 3b 00 36 	xnord  %o4, %l6, %g5
    5660:	8a 3b 00 37 	xnord  %o4, %l7, %g5
    5664:	8a 3b 00 38 	xnord  %o4, %i0, %g5
    5668:	8a 3b 00 39 	xnord  %o4, %i1, %g5
    566c:	8a 3b 00 3a 	xnord  %o4, %i2, %g5
    5670:	8a 3b 00 3b 	xnord  %o4, %i3, %g5
    5674:	8a 3b 00 3c 	xnord  %o4, %i4, %g5
    5678:	8a 3b 00 3d 	xnord  %o4, %i5, %g5
    567c:	8a 3b 00 3e 	xnord  %o4, %fp, %g5
    5680:	8a 3b 00 3f 	xnord  %o4, %i7, %g5
    5684:	8a 3b 40 20 	xnord  %o5, %g0, %g5
    5688:	8a 3b 40 21 	xnord  %o5, %g1, %g5
    568c:	8a 3b 40 22 	xnord  %o5, %g2, %g5
    5690:	8a 3b 40 23 	xnord  %o5, %g3, %g5
    5694:	8a 3b 40 24 	xnord  %o5, %g4, %g5
    5698:	8a 3b 40 25 	xnord  %o5, %g5, %g5
    569c:	8a 3b 40 26 	xnord  %o5, %g6, %g5
    56a0:	8a 3b 40 27 	xnord  %o5, %g7, %g5
    56a4:	8a 3b 40 28 	xnord  %o5, %o0, %g5
    56a8:	8a 3b 40 29 	xnord  %o5, %o1, %g5
    56ac:	8a 3b 40 2a 	xnord  %o5, %o2, %g5
    56b0:	8a 3b 40 2b 	xnord  %o5, %o3, %g5
    56b4:	8a 3b 40 2c 	xnord  %o5, %o4, %g5
    56b8:	8a 3b 40 2d 	xnord  %o5, %o5, %g5
    56bc:	8a 3b 40 2e 	xnord  %o5, %sp, %g5
    56c0:	8a 3b 40 2f 	xnord  %o5, %o7, %g5
    56c4:	8a 3b 40 30 	xnord  %o5, %l0, %g5
    56c8:	8a 3b 40 31 	xnord  %o5, %l1, %g5
    56cc:	8a 3b 40 32 	xnord  %o5, %l2, %g5
    56d0:	8a 3b 40 33 	xnord  %o5, %l3, %g5
    56d4:	8a 3b 40 34 	xnord  %o5, %l4, %g5
    56d8:	8a 3b 40 35 	xnord  %o5, %l5, %g5
    56dc:	8a 3b 40 36 	xnord  %o5, %l6, %g5
    56e0:	8a 3b 40 37 	xnord  %o5, %l7, %g5
    56e4:	8a 3b 40 38 	xnord  %o5, %i0, %g5
    56e8:	8a 3b 40 39 	xnord  %o5, %i1, %g5
    56ec:	8a 3b 40 3a 	xnord  %o5, %i2, %g5
    56f0:	8a 3b 40 3b 	xnord  %o5, %i3, %g5
    56f4:	8a 3b 40 3c 	xnord  %o5, %i4, %g5
    56f8:	8a 3b 40 3d 	xnord  %o5, %i5, %g5
    56fc:	8a 3b 40 3e 	xnord  %o5, %fp, %g5
    5700:	8a 3b 40 3f 	xnord  %o5, %i7, %g5
    5704:	8a 3b 80 20 	xnord  %sp, %g0, %g5
    5708:	8a 3b 80 21 	xnord  %sp, %g1, %g5
    570c:	8a 3b 80 22 	xnord  %sp, %g2, %g5
    5710:	8a 3b 80 23 	xnord  %sp, %g3, %g5
    5714:	8a 3b 80 24 	xnord  %sp, %g4, %g5
    5718:	8a 3b 80 25 	xnord  %sp, %g5, %g5
    571c:	8a 3b 80 26 	xnord  %sp, %g6, %g5
    5720:	8a 3b 80 27 	xnord  %sp, %g7, %g5
    5724:	8a 3b 80 28 	xnord  %sp, %o0, %g5
    5728:	8a 3b 80 29 	xnord  %sp, %o1, %g5
    572c:	8a 3b 80 2a 	xnord  %sp, %o2, %g5
    5730:	8a 3b 80 2b 	xnord  %sp, %o3, %g5
    5734:	8a 3b 80 2c 	xnord  %sp, %o4, %g5
    5738:	8a 3b 80 2d 	xnord  %sp, %o5, %g5
    573c:	8a 3b 80 2e 	xnord  %sp, %sp, %g5
    5740:	8a 3b 80 2f 	xnord  %sp, %o7, %g5
    5744:	8a 3b 80 30 	xnord  %sp, %l0, %g5
    5748:	8a 3b 80 31 	xnord  %sp, %l1, %g5
    574c:	8a 3b 80 32 	xnord  %sp, %l2, %g5
    5750:	8a 3b 80 33 	xnord  %sp, %l3, %g5
    5754:	8a 3b 80 34 	xnord  %sp, %l4, %g5
    5758:	8a 3b 80 35 	xnord  %sp, %l5, %g5
    575c:	8a 3b 80 36 	xnord  %sp, %l6, %g5
    5760:	8a 3b 80 37 	xnord  %sp, %l7, %g5
    5764:	8a 3b 80 38 	xnord  %sp, %i0, %g5
    5768:	8a 3b 80 39 	xnord  %sp, %i1, %g5
    576c:	8a 3b 80 3a 	xnord  %sp, %i2, %g5
    5770:	8a 3b 80 3b 	xnord  %sp, %i3, %g5
    5774:	8a 3b 80 3c 	xnord  %sp, %i4, %g5
    5778:	8a 3b 80 3d 	xnord  %sp, %i5, %g5
    577c:	8a 3b 80 3e 	xnord  %sp, %fp, %g5
    5780:	8a 3b 80 3f 	xnord  %sp, %i7, %g5
    5784:	8a 3b c0 20 	xnord  %o7, %g0, %g5
    5788:	8a 3b c0 21 	xnord  %o7, %g1, %g5
    578c:	8a 3b c0 22 	xnord  %o7, %g2, %g5
    5790:	8a 3b c0 23 	xnord  %o7, %g3, %g5
    5794:	8a 3b c0 24 	xnord  %o7, %g4, %g5
    5798:	8a 3b c0 25 	xnord  %o7, %g5, %g5
    579c:	8a 3b c0 26 	xnord  %o7, %g6, %g5
    57a0:	8a 3b c0 27 	xnord  %o7, %g7, %g5
    57a4:	8a 3b c0 28 	xnord  %o7, %o0, %g5
    57a8:	8a 3b c0 29 	xnord  %o7, %o1, %g5
    57ac:	8a 3b c0 2a 	xnord  %o7, %o2, %g5
    57b0:	8a 3b c0 2b 	xnord  %o7, %o3, %g5
    57b4:	8a 3b c0 2c 	xnord  %o7, %o4, %g5
    57b8:	8a 3b c0 2d 	xnord  %o7, %o5, %g5
    57bc:	8a 3b c0 2e 	xnord  %o7, %sp, %g5
    57c0:	8a 3b c0 2f 	xnord  %o7, %o7, %g5
    57c4:	8a 3b c0 30 	xnord  %o7, %l0, %g5
    57c8:	8a 3b c0 31 	xnord  %o7, %l1, %g5
    57cc:	8a 3b c0 32 	xnord  %o7, %l2, %g5
    57d0:	8a 3b c0 33 	xnord  %o7, %l3, %g5
    57d4:	8a 3b c0 34 	xnord  %o7, %l4, %g5
    57d8:	8a 3b c0 35 	xnord  %o7, %l5, %g5
    57dc:	8a 3b c0 36 	xnord  %o7, %l6, %g5
    57e0:	8a 3b c0 37 	xnord  %o7, %l7, %g5
    57e4:	8a 3b c0 38 	xnord  %o7, %i0, %g5
    57e8:	8a 3b c0 39 	xnord  %o7, %i1, %g5
    57ec:	8a 3b c0 3a 	xnord  %o7, %i2, %g5
    57f0:	8a 3b c0 3b 	xnord  %o7, %i3, %g5
    57f4:	8a 3b c0 3c 	xnord  %o7, %i4, %g5
    57f8:	8a 3b c0 3d 	xnord  %o7, %i5, %g5
    57fc:	8a 3b c0 3e 	xnord  %o7, %fp, %g5
    5800:	8a 3b c0 3f 	xnord  %o7, %i7, %g5
    5804:	8a 3c 00 20 	xnord  %l0, %g0, %g5
    5808:	8a 3c 00 21 	xnord  %l0, %g1, %g5
    580c:	8a 3c 00 22 	xnord  %l0, %g2, %g5
    5810:	8a 3c 00 23 	xnord  %l0, %g3, %g5
    5814:	8a 3c 00 24 	xnord  %l0, %g4, %g5
    5818:	8a 3c 00 25 	xnord  %l0, %g5, %g5
    581c:	8a 3c 00 26 	xnord  %l0, %g6, %g5
    5820:	8a 3c 00 27 	xnord  %l0, %g7, %g5
    5824:	8a 3c 00 28 	xnord  %l0, %o0, %g5
    5828:	8a 3c 00 29 	xnord  %l0, %o1, %g5
    582c:	8a 3c 00 2a 	xnord  %l0, %o2, %g5
    5830:	8a 3c 00 2b 	xnord  %l0, %o3, %g5
    5834:	8a 3c 00 2c 	xnord  %l0, %o4, %g5
    5838:	8a 3c 00 2d 	xnord  %l0, %o5, %g5
    583c:	8a 3c 00 2e 	xnord  %l0, %sp, %g5
    5840:	8a 3c 00 2f 	xnord  %l0, %o7, %g5
    5844:	8a 3c 00 30 	xnord  %l0, %l0, %g5
    5848:	8a 3c 00 31 	xnord  %l0, %l1, %g5
    584c:	8a 3c 00 32 	xnord  %l0, %l2, %g5
    5850:	8a 3c 00 33 	xnord  %l0, %l3, %g5
    5854:	8a 3c 00 34 	xnord  %l0, %l4, %g5
    5858:	8a 3c 00 35 	xnord  %l0, %l5, %g5
    585c:	8a 3c 00 36 	xnord  %l0, %l6, %g5
    5860:	8a 3c 00 37 	xnord  %l0, %l7, %g5
    5864:	8a 3c 00 38 	xnord  %l0, %i0, %g5
    5868:	8a 3c 00 39 	xnord  %l0, %i1, %g5
    586c:	8a 3c 00 3a 	xnord  %l0, %i2, %g5
    5870:	8a 3c 00 3b 	xnord  %l0, %i3, %g5
    5874:	8a 3c 00 3c 	xnord  %l0, %i4, %g5
    5878:	8a 3c 00 3d 	xnord  %l0, %i5, %g5
    587c:	8a 3c 00 3e 	xnord  %l0, %fp, %g5
    5880:	8a 3c 00 3f 	xnord  %l0, %i7, %g5
    5884:	8a 3c 40 20 	xnord  %l1, %g0, %g5
    5888:	8a 3c 40 21 	xnord  %l1, %g1, %g5
    588c:	8a 3c 40 22 	xnord  %l1, %g2, %g5
    5890:	8a 3c 40 23 	xnord  %l1, %g3, %g5
    5894:	8a 3c 40 24 	xnord  %l1, %g4, %g5
    5898:	8a 3c 40 25 	xnord  %l1, %g5, %g5
    589c:	8a 3c 40 26 	xnord  %l1, %g6, %g5
    58a0:	8a 3c 40 27 	xnord  %l1, %g7, %g5
    58a4:	8a 3c 40 28 	xnord  %l1, %o0, %g5
    58a8:	8a 3c 40 29 	xnord  %l1, %o1, %g5
    58ac:	8a 3c 40 2a 	xnord  %l1, %o2, %g5
    58b0:	8a 3c 40 2b 	xnord  %l1, %o3, %g5
