
.//bootstrap.elf:     file format elf32-sparc


Disassembly of section .text:

00000000 <_start>:
       0:	9c 10 3f 00 	mov  -256, %sp
       4:	bc 10 00 00 	mov  %g0, %fp
       8:	a0 10 20 01 	mov  1, %l0
       c:	81 94 20 00 	mov  %l0, %wim
      10:	21 00 00 04 	sethi  %hi(0x1000), %l0
      14:	a0 14 20 e7 	or  %l0, 0xe7, %l0	! 10e7 <MMAP_SEGMENT_0+0x1047>
      18:	81 88 00 10 	mov  %l0, %psr
      1c:	40 00 00 0f 	call  58 <copy_program_image>
      20:	01 00 00 00 	nop 
      24:	4f ff ff f7 	call  40000000 <MMAP_SEGMENT_1+0x3fffa0a0>
      28:	01 00 00 00 	nop 
      2c:	91 d0 20 00 	ta  0

00000030 <_copy_segment>:
      30:	e6 08 c0 00 	ldub  [ %g3 ], %l3
      34:	e6 29 40 00 	stb  %l3, [ %g5 ]
      38:	86 00 e0 01 	inc  %g3
      3c:	8a 01 60 01 	inc  %g5
      40:	88 a1 20 01 	deccc  %g4
      44:	12 bf ff fb 	bne  30 <_copy_segment>
      48:	01 00 00 00 	nop 
      4c:	81 c3 e0 08 	retl 
      50:	01 00 00 00 	nop 
      54:	00 00 00 00 	unimp  0

00000058 <copy_program_image>:
      58:	81 e0 00 00 	save 
      5c:	07 00 00 00 	sethi  %hi(0), %g3
      60:	86 10 e0 a0 	or  %g3, 0xa0, %g3	! a0 <MMAP_SEGMENT_0>
      64:	09 00 00 17 	sethi  %hi(0x5c00), %g4
      68:	88 11 22 c0 	or  %g4, 0x2c0, %g4	! 5ec0 <MMAP_SEGMENT_0+0x5e20>
      6c:	0b 10 00 00 	sethi  %hi(0x40000000), %g5
      70:	7f ff ff f0 	call  30 <_copy_segment>
      74:	01 00 00 00 	nop 
      78:	07 00 00 17 	sethi  %hi(0x5c00), %g3
      7c:	86 10 e3 60 	or  %g3, 0x360, %g3	! 5f60 <MMAP_SEGMENT_1>
      80:	88 10 21 b0 	mov  0x1b0, %g4
      84:	0b 10 00 80 	sethi  %hi(0x40020000), %g5
      88:	7f ff ff ea 	call  30 <_copy_segment>
      8c:	01 00 00 00 	nop 
      90:	81 e8 00 00 	restore 
      94:	81 c3 e0 08 	retl 
      98:	01 00 00 00 	nop 
      9c:	01 00 00 00 	nop 

000000a0 <MMAP_SEGMENT_0>:
      a0:	9c 10 3f 00 	mov  -256, %sp	! ffffff00 <MMAP_SEGMENT_1+0xffff9fa0>
      a4:	bc 10 00 00 	mov  %g0, %fp
      a8:	a0 10 20 01 	mov  1, %l0
      ac:	81 94 20 00 	mov  %l0, %wim
      b0:	21 10 00 0c 	sethi  %hi(0x40003000), %l0
      b4:	a0 14 20 00 	mov  %l0, %l0	! 40003000 <MMAP_SEGMENT_1+0x3fffd0a0>
      b8:	81 9c 20 00 	mov  %l0, %tbr
      bc:	40 00 00 f9 	call  4a0 <MMAP_SEGMENT_0+0x400>
      c0:	01 00 00 00 	nop 
      c4:	40 00 01 2d 	call  578 <MMAP_SEGMENT_0+0x4d8>
      c8:	01 00 00 00 	nop 
      cc:	21 00 00 04 	sethi  %hi(0x1000), %l0
      d0:	a0 14 20 e7 	or  %l0, 0xe7, %l0	! 10e7 <MMAP_SEGMENT_0+0x1047>
      d4:	81 88 00 10 	mov  %l0, %psr
      d8:	90 10 20 01 	mov  1, %o0
      dc:	d0 a0 00 80 	sta  %o0, [ %g0 ] #ASI_N
      e0:	40 00 17 6f 	call  5e9c <MMAP_SEGMENT_0+0x5dfc>
      e4:	01 00 00 00 	nop 
      e8:	91 d0 20 00 	ta  0
	...
     4a0:	03 10 00 02 	sethi  %hi(0x40000800), %g1
     4a4:	82 10 60 00 	mov  %g1, %g1	! 40000800 <MMAP_SEGMENT_1+0x3fffa8a0>
     4a8:	88 10 24 00 	mov  0x400, %g4
     4ac:	88 00 40 04 	add  %g1, %g4, %g4
     4b0:	89 31 20 04 	srl  %g4, 4, %g4
     4b4:	88 11 20 01 	or  %g4, 1, %g4
     4b8:	8a 10 28 00 	mov  0x800, %g5
     4bc:	86 01 40 01 	add  %g5, %g1, %g3
     4c0:	c8 20 c0 00 	st  %g4, [ %g3 ]
     4c4:	88 10 20 00 	clr  %g4
     4c8:	88 00 40 04 	add  %g1, %g4, %g4
     4cc:	89 31 20 04 	srl  %g4, 4, %g4
     4d0:	88 11 20 01 	or  %g4, 1, %g4
     4d4:	8a 10 25 00 	mov  0x500, %g5
     4d8:	86 01 40 01 	add  %g5, %g1, %g3
     4dc:	c8 20 c0 00 	st  %g4, [ %g3 ]
     4e0:	05 01 00 00 	sethi  %hi(0x4000000), %g2
     4e4:	84 10 a0 8e 	or  %g2, 0x8e, %g2	! 400008e <MMAP_SEGMENT_1+0x3ffa12e>
     4e8:	8a 10 20 00 	clr  %g5
     4ec:	86 01 40 01 	add  %g5, %g1, %g3
     4f0:	c4 20 c0 00 	st  %g2, [ %g3 ]
     4f4:	88 10 21 00 	mov  0x100, %g4
     4f8:	88 00 40 04 	add  %g1, %g4, %g4
     4fc:	89 31 20 04 	srl  %g4, 4, %g4
     500:	88 11 20 01 	or  %g4, 1, %g4
     504:	8a 10 26 00 	mov  0x600, %g5
     508:	86 01 40 01 	add  %g5, %g1, %g3
     50c:	c8 20 c0 00 	st  %g4, [ %g3 ]
     510:	05 01 00 08 	sethi  %hi(0x4002000), %g2
     514:	84 10 a0 8e 	or  %g2, 0x8e, %g2	! 400208e <MMAP_SEGMENT_1+0x3ffc12e>
     518:	8a 10 21 00 	mov  0x100, %g5
     51c:	86 01 40 01 	add  %g5, %g1, %g3
     520:	c4 20 c0 00 	st  %g2, [ %g3 ]
     524:	88 10 23 00 	mov  0x300, %g4
     528:	88 00 40 04 	add  %g1, %g4, %g4
     52c:	89 31 20 04 	srl  %g4, 4, %g4
     530:	88 11 20 01 	or  %g4, 1, %g4
     534:	8a 10 27 fc 	mov  0x7fc, %g5
     538:	86 01 40 01 	add  %g5, %g1, %g3
     53c:	c8 20 c0 00 	st  %g4, [ %g3 ]
     540:	88 10 22 00 	mov  0x200, %g4
     544:	88 00 40 04 	add  %g1, %g4, %g4
     548:	89 31 20 04 	srl  %g4, 4, %g4
     54c:	88 11 20 01 	or  %g4, 1, %g4
     550:	8a 10 23 fc 	mov  0x3fc, %g5
     554:	86 01 40 01 	add  %g5, %g1, %g3
     558:	c8 20 c0 00 	st  %g4, [ %g3 ]
     55c:	05 01 00 3f 	sethi  %hi(0x400fc00), %g2
     560:	84 10 a3 8e 	or  %g2, 0x38e, %g2	! 400ff8e <MMAP_SEGMENT_1+0x400a02e>
     564:	8a 10 22 fc 	mov  0x2fc, %g5
     568:	86 01 40 01 	add  %g5, %g1, %g3
     56c:	c4 20 c0 00 	st  %g2, [ %g3 ]
     570:	81 c3 e0 08 	retl 
     574:	01 00 00 00 	nop 
     578:	03 10 00 02 	sethi  %hi(0x40000800), %g1
     57c:	82 10 60 00 	mov  %g1, %g1	! 40000800 <MMAP_SEGMENT_1+0x3fffa8a0>
     580:	8a 10 28 00 	mov  0x800, %g5
     584:	84 01 40 01 	add  %g5, %g1, %g2
     588:	85 30 a0 04 	srl  %g2, 4, %g2
     58c:	84 10 a0 01 	or  %g2, 1, %g2
     590:	86 10 21 00 	mov  0x100, %g3
     594:	c4 a0 c0 80 	sta  %g2, [ %g3 ] #ASI_N
     598:	81 c3 e0 08 	retl 
     59c:	01 00 00 00 	nop 
     5a0:	01 00 00 00 	nop 
     5a4:	01 00 00 00 	nop 
     5a8:	01 00 00 00 	nop 
     5ac:	01 00 00 00 	nop 
     5b0:	01 00 00 00 	nop 
     5b4:	01 00 00 00 	nop 
     5b8:	01 00 00 00 	nop 
     5bc:	01 00 00 00 	nop 
     5c0:	01 00 00 00 	nop 
     5c4:	01 00 00 00 	nop 
     5c8:	01 00 00 00 	nop 
     5cc:	01 00 00 00 	nop 
     5d0:	01 00 00 00 	nop 
     5d4:	01 00 00 00 	nop 
     5d8:	01 00 00 00 	nop 
     5dc:	01 00 00 00 	nop 
     5e0:	01 00 00 00 	nop 
     5e4:	01 00 00 00 	nop 
     5e8:	01 00 00 00 	nop 
     5ec:	01 00 00 00 	nop 
     5f0:	01 00 00 00 	nop 
     5f4:	01 00 00 00 	nop 
     5f8:	01 00 00 00 	nop 
     5fc:	01 00 00 00 	nop 
     600:	01 00 00 00 	nop 
     604:	01 00 00 00 	nop 
     608:	01 00 00 00 	nop 
     60c:	01 00 00 00 	nop 
     610:	01 00 00 00 	nop 
     614:	01 00 00 00 	nop 
     618:	01 00 00 00 	nop 
     61c:	01 00 00 00 	nop 
     620:	01 00 00 00 	nop 
     624:	01 00 00 00 	nop 
     628:	01 00 00 00 	nop 
     62c:	01 00 00 00 	nop 
     630:	01 00 00 00 	nop 
     634:	01 00 00 00 	nop 
     638:	01 00 00 00 	nop 
     63c:	01 00 00 00 	nop 
     640:	01 00 00 00 	nop 
     644:	01 00 00 00 	nop 
     648:	01 00 00 00 	nop 
     64c:	01 00 00 00 	nop 
     650:	01 00 00 00 	nop 
     654:	01 00 00 00 	nop 
     658:	01 00 00 00 	nop 
     65c:	01 00 00 00 	nop 
     660:	01 00 00 00 	nop 
     664:	01 00 00 00 	nop 
     668:	01 00 00 00 	nop 
     66c:	01 00 00 00 	nop 
     670:	01 00 00 00 	nop 
     674:	01 00 00 00 	nop 
     678:	01 00 00 00 	nop 
     67c:	01 00 00 00 	nop 
     680:	01 00 00 00 	nop 
     684:	01 00 00 00 	nop 
     688:	01 00 00 00 	nop 
     68c:	01 00 00 00 	nop 
     690:	01 00 00 00 	nop 
     694:	01 00 00 00 	nop 
     698:	01 00 00 00 	nop 
     69c:	01 00 00 00 	nop 
     6a0:	01 00 00 00 	nop 
     6a4:	01 00 00 00 	nop 
     6a8:	01 00 00 00 	nop 
     6ac:	01 00 00 00 	nop 
     6b0:	01 00 00 00 	nop 
     6b4:	01 00 00 00 	nop 
     6b8:	01 00 00 00 	nop 
     6bc:	01 00 00 00 	nop 
     6c0:	01 00 00 00 	nop 
     6c4:	01 00 00 00 	nop 
     6c8:	01 00 00 00 	nop 
     6cc:	01 00 00 00 	nop 
     6d0:	01 00 00 00 	nop 
     6d4:	01 00 00 00 	nop 
     6d8:	01 00 00 00 	nop 
     6dc:	01 00 00 00 	nop 
     6e0:	01 00 00 00 	nop 
     6e4:	01 00 00 00 	nop 
     6e8:	01 00 00 00 	nop 
     6ec:	01 00 00 00 	nop 
     6f0:	01 00 00 00 	nop 
     6f4:	01 00 00 00 	nop 
     6f8:	01 00 00 00 	nop 
     6fc:	01 00 00 00 	nop 
     700:	01 00 00 00 	nop 
     704:	01 00 00 00 	nop 
     708:	01 00 00 00 	nop 
     70c:	01 00 00 00 	nop 
     710:	01 00 00 00 	nop 
     714:	01 00 00 00 	nop 
     718:	01 00 00 00 	nop 
     71c:	01 00 00 00 	nop 
     720:	01 00 00 00 	nop 
     724:	01 00 00 00 	nop 
     728:	01 00 00 00 	nop 
     72c:	01 00 00 00 	nop 
     730:	01 00 00 00 	nop 
     734:	01 00 00 00 	nop 
     738:	01 00 00 00 	nop 
     73c:	01 00 00 00 	nop 
     740:	01 00 00 00 	nop 
     744:	01 00 00 00 	nop 
     748:	01 00 00 00 	nop 
     74c:	01 00 00 00 	nop 
     750:	01 00 00 00 	nop 
     754:	01 00 00 00 	nop 
     758:	01 00 00 00 	nop 
     75c:	01 00 00 00 	nop 
     760:	01 00 00 00 	nop 
     764:	01 00 00 00 	nop 
     768:	01 00 00 00 	nop 
     76c:	01 00 00 00 	nop 
     770:	01 00 00 00 	nop 
     774:	01 00 00 00 	nop 
     778:	01 00 00 00 	nop 
     77c:	01 00 00 00 	nop 
     780:	01 00 00 00 	nop 
     784:	01 00 00 00 	nop 
     788:	01 00 00 00 	nop 
     78c:	01 00 00 00 	nop 
     790:	01 00 00 00 	nop 
     794:	01 00 00 00 	nop 
     798:	01 00 00 00 	nop 
     79c:	01 00 00 00 	nop 
     7a0:	01 00 00 00 	nop 
     7a4:	01 00 00 00 	nop 
     7a8:	01 00 00 00 	nop 
     7ac:	01 00 00 00 	nop 
     7b0:	01 00 00 00 	nop 
     7b4:	01 00 00 00 	nop 
     7b8:	01 00 00 00 	nop 
     7bc:	01 00 00 00 	nop 
     7c0:	01 00 00 00 	nop 
     7c4:	01 00 00 00 	nop 
     7c8:	01 00 00 00 	nop 
     7cc:	01 00 00 00 	nop 
     7d0:	01 00 00 00 	nop 
     7d4:	01 00 00 00 	nop 
     7d8:	01 00 00 00 	nop 
     7dc:	01 00 00 00 	nop 
     7e0:	01 00 00 00 	nop 
     7e4:	01 00 00 00 	nop 
     7e8:	01 00 00 00 	nop 
     7ec:	01 00 00 00 	nop 
     7f0:	01 00 00 00 	nop 
     7f4:	01 00 00 00 	nop 
     7f8:	01 00 00 00 	nop 
     7fc:	01 00 00 00 	nop 
     800:	01 00 00 00 	nop 
     804:	01 00 00 00 	nop 
     808:	01 00 00 00 	nop 
     80c:	01 00 00 00 	nop 
     810:	01 00 00 00 	nop 
     814:	01 00 00 00 	nop 
     818:	01 00 00 00 	nop 
     81c:	01 00 00 00 	nop 
     820:	01 00 00 00 	nop 
     824:	01 00 00 00 	nop 
     828:	01 00 00 00 	nop 
     82c:	01 00 00 00 	nop 
     830:	01 00 00 00 	nop 
     834:	01 00 00 00 	nop 
     838:	01 00 00 00 	nop 
     83c:	01 00 00 00 	nop 
     840:	01 00 00 00 	nop 
     844:	01 00 00 00 	nop 
     848:	01 00 00 00 	nop 
     84c:	01 00 00 00 	nop 
     850:	01 00 00 00 	nop 
     854:	01 00 00 00 	nop 
     858:	01 00 00 00 	nop 
     85c:	01 00 00 00 	nop 
     860:	01 00 00 00 	nop 
     864:	01 00 00 00 	nop 
     868:	01 00 00 00 	nop 
     86c:	01 00 00 00 	nop 
     870:	01 00 00 00 	nop 
     874:	01 00 00 00 	nop 
     878:	01 00 00 00 	nop 
     87c:	01 00 00 00 	nop 
     880:	01 00 00 00 	nop 
     884:	01 00 00 00 	nop 
     888:	01 00 00 00 	nop 
     88c:	01 00 00 00 	nop 
     890:	01 00 00 00 	nop 
     894:	01 00 00 00 	nop 
     898:	01 00 00 00 	nop 
     89c:	01 00 00 00 	nop 
	...
    20a0:	a7 50 00 00 	rd  %wim, %l3
    20a4:	a9 2c e0 07 	sll  %l3, 7, %l4
    20a8:	a7 34 e0 01 	srl  %l3, 1, %l3
    20ac:	a6 14 c0 14 	or  %l3, %l4, %l3
    20b0:	a6 0c e0 ff 	and  %l3, 0xff, %l3
    20b4:	81 90 00 00 	mov  %g0, %wim
    20b8:	01 00 00 00 	nop 
    20bc:	01 00 00 00 	nop 
    20c0:	01 00 00 00 	nop 
    20c4:	81 e0 00 00 	save 
    20c8:	e0 3b a0 00 	std  %l0, [ %sp ]
    20cc:	e4 3b a0 08 	std  %l2, [ %sp + 8 ]
    20d0:	e8 3b a0 10 	std  %l4, [ %sp + 0x10 ]
    20d4:	ec 3b a0 18 	std  %l6, [ %sp + 0x18 ]
    20d8:	f0 3b a0 20 	std  %i0, [ %sp + 0x20 ]
    20dc:	f4 3b a0 28 	std  %i2, [ %sp + 0x28 ]
    20e0:	f8 3b a0 30 	std  %i4, [ %sp + 0x30 ]
    20e4:	fc 3b a0 38 	std  %fp, [ %sp + 0x38 ]
    20e8:	81 e8 00 00 	restore 
    20ec:	81 90 00 13 	mov  %l3, %wim
    20f0:	01 00 00 00 	nop 
    20f4:	01 00 00 00 	nop 
    20f8:	01 00 00 00 	nop 
    20fc:	81 c4 40 00 	jmp  %l1
    2100:	81 cc 80 00 	rett  %l2
    2104:	a7 50 00 00 	rd  %wim, %l3
    2108:	a9 34 e0 07 	srl  %l3, 7, %l4
    210c:	a7 2c e0 01 	sll  %l3, 1, %l3
    2110:	a6 14 c0 14 	or  %l3, %l4, %l3
    2114:	a6 0c e0 ff 	and  %l3, 0xff, %l3
    2118:	81 90 00 00 	mov  %g0, %wim
    211c:	01 00 00 00 	nop 
    2120:	01 00 00 00 	nop 
    2124:	01 00 00 00 	nop 
    2128:	81 e8 00 00 	restore 
    212c:	81 e8 00 00 	restore 
    2130:	e0 1b a0 00 	ldd  [ %sp ], %l0
    2134:	e4 1b a0 08 	ldd  [ %sp + 8 ], %l2
    2138:	e8 1b a0 10 	ldd  [ %sp + 0x10 ], %l4
    213c:	ec 1b a0 18 	ldd  [ %sp + 0x18 ], %l6
    2140:	f0 1b a0 20 	ldd  [ %sp + 0x20 ], %i0
    2144:	f4 1b a0 28 	ldd  [ %sp + 0x28 ], %i2
    2148:	f8 1b a0 30 	ldd  [ %sp + 0x30 ], %i4
    214c:	fc 1b a0 38 	ldd  [ %sp + 0x38 ], %fp
    2150:	81 e0 00 00 	save 
    2154:	81 e0 00 00 	save 
    2158:	81 90 00 13 	mov  %l3, %wim
    215c:	01 00 00 00 	nop 
    2160:	01 00 00 00 	nop 
    2164:	01 00 00 00 	nop 
    2168:	81 c4 40 00 	jmp  %l1
    216c:	81 cc 80 00 	rett  %l2
    2170:	81 e8 00 00 	restore 
    2174:	9d e3 bf a0 	save  %sp, -96, %sp
    2178:	a1 48 00 00 	rd  %psr, %l0
    217c:	c0 3b a0 00 	std  %g0, [ %sp ]
    2180:	c4 3b a0 08 	std  %g2, [ %sp + 8 ]
    2184:	c8 3b a0 10 	std  %g4, [ %sp + 0x10 ]
    2188:	cc 3b a0 18 	std  %g6, [ %sp + 0x18 ]
    218c:	40 00 0e cd 	call  5cc0 <MMAP_SEGMENT_0+0x5c20>
    2190:	01 00 00 00 	nop 
    2194:	81 88 00 10 	mov  %l0, %psr
    2198:	c0 1b a0 00 	ldd  [ %sp ], %g0
    219c:	c4 1b a0 08 	ldd  [ %sp + 8 ], %g2
    21a0:	c8 1b a0 10 	ldd  [ %sp + 0x10 ], %g4
    21a4:	cc 1b a0 18 	ldd  [ %sp + 0x18 ], %g6
    21a8:	81 c4 40 00 	jmp  %l1
    21ac:	81 cc 80 00 	rett  %l2
    21b0:	01 00 00 00 	nop 
    21b4:	01 00 00 00 	nop 
    21b8:	01 00 00 00 	nop 
    21bc:	01 00 00 00 	nop 
    21c0:	01 00 00 00 	nop 
    21c4:	01 00 00 00 	nop 
    21c8:	01 00 00 00 	nop 
    21cc:	01 00 00 00 	nop 
    21d0:	01 00 00 00 	nop 
    21d4:	01 00 00 00 	nop 
    21d8:	01 00 00 00 	nop 
    21dc:	01 00 00 00 	nop 
    21e0:	01 00 00 00 	nop 
    21e4:	01 00 00 00 	nop 
    21e8:	01 00 00 00 	nop 
    21ec:	01 00 00 00 	nop 
    21f0:	01 00 00 00 	nop 
    21f4:	01 00 00 00 	nop 
    21f8:	01 00 00 00 	nop 
    21fc:	01 00 00 00 	nop 
    2200:	01 00 00 00 	nop 
    2204:	01 00 00 00 	nop 
    2208:	01 00 00 00 	nop 
    220c:	01 00 00 00 	nop 
    2210:	01 00 00 00 	nop 
    2214:	01 00 00 00 	nop 
    2218:	01 00 00 00 	nop 
    221c:	01 00 00 00 	nop 
    2220:	01 00 00 00 	nop 
    2224:	01 00 00 00 	nop 
    2228:	01 00 00 00 	nop 
    222c:	01 00 00 00 	nop 
    2230:	01 00 00 00 	nop 
    2234:	01 00 00 00 	nop 
    2238:	01 00 00 00 	nop 
    223c:	01 00 00 00 	nop 
    2240:	01 00 00 00 	nop 
    2244:	01 00 00 00 	nop 
    2248:	01 00 00 00 	nop 
    224c:	01 00 00 00 	nop 
    2250:	01 00 00 00 	nop 
    2254:	01 00 00 00 	nop 
    2258:	01 00 00 00 	nop 
    225c:	01 00 00 00 	nop 
    2260:	01 00 00 00 	nop 
    2264:	01 00 00 00 	nop 
    2268:	01 00 00 00 	nop 
    226c:	01 00 00 00 	nop 
    2270:	01 00 00 00 	nop 
    2274:	01 00 00 00 	nop 
    2278:	01 00 00 00 	nop 
    227c:	01 00 00 00 	nop 
    2280:	01 00 00 00 	nop 
    2284:	01 00 00 00 	nop 
    2288:	01 00 00 00 	nop 
    228c:	01 00 00 00 	nop 
    2290:	01 00 00 00 	nop 
    2294:	01 00 00 00 	nop 
    2298:	01 00 00 00 	nop 
    229c:	01 00 00 00 	nop 
    22a0:	01 00 00 00 	nop 
    22a4:	01 00 00 00 	nop 
    22a8:	01 00 00 00 	nop 
    22ac:	01 00 00 00 	nop 
    22b0:	01 00 00 00 	nop 
    22b4:	01 00 00 00 	nop 
    22b8:	01 00 00 00 	nop 
    22bc:	01 00 00 00 	nop 
    22c0:	01 00 00 00 	nop 
    22c4:	01 00 00 00 	nop 
    22c8:	01 00 00 00 	nop 
    22cc:	01 00 00 00 	nop 
    22d0:	01 00 00 00 	nop 
    22d4:	01 00 00 00 	nop 
    22d8:	01 00 00 00 	nop 
    22dc:	01 00 00 00 	nop 
    22e0:	01 00 00 00 	nop 
    22e4:	01 00 00 00 	nop 
    22e8:	01 00 00 00 	nop 
    22ec:	01 00 00 00 	nop 
    22f0:	01 00 00 00 	nop 
    22f4:	01 00 00 00 	nop 
    22f8:	01 00 00 00 	nop 
    22fc:	01 00 00 00 	nop 
    2300:	01 00 00 00 	nop 
    2304:	01 00 00 00 	nop 
    2308:	01 00 00 00 	nop 
    230c:	01 00 00 00 	nop 
    2310:	01 00 00 00 	nop 
    2314:	01 00 00 00 	nop 
    2318:	01 00 00 00 	nop 
    231c:	01 00 00 00 	nop 
    2320:	01 00 00 00 	nop 
    2324:	01 00 00 00 	nop 
    2328:	01 00 00 00 	nop 
    232c:	01 00 00 00 	nop 
    2330:	01 00 00 00 	nop 
    2334:	01 00 00 00 	nop 
    2338:	01 00 00 00 	nop 
    233c:	01 00 00 00 	nop 
    2340:	01 00 00 00 	nop 
    2344:	01 00 00 00 	nop 
    2348:	01 00 00 00 	nop 
    234c:	01 00 00 00 	nop 
    2350:	01 00 00 00 	nop 
    2354:	01 00 00 00 	nop 
    2358:	01 00 00 00 	nop 
    235c:	01 00 00 00 	nop 
    2360:	01 00 00 00 	nop 
    2364:	01 00 00 00 	nop 
    2368:	01 00 00 00 	nop 
    236c:	01 00 00 00 	nop 
    2370:	01 00 00 00 	nop 
    2374:	01 00 00 00 	nop 
    2378:	01 00 00 00 	nop 
    237c:	01 00 00 00 	nop 
    2380:	01 00 00 00 	nop 
    2384:	01 00 00 00 	nop 
    2388:	01 00 00 00 	nop 
    238c:	01 00 00 00 	nop 
    2390:	01 00 00 00 	nop 
    2394:	01 00 00 00 	nop 
    2398:	01 00 00 00 	nop 
    239c:	01 00 00 00 	nop 
    23a0:	01 00 00 00 	nop 
    23a4:	01 00 00 00 	nop 
    23a8:	01 00 00 00 	nop 
    23ac:	01 00 00 00 	nop 
    23b0:	01 00 00 00 	nop 
    23b4:	01 00 00 00 	nop 
    23b8:	01 00 00 00 	nop 
    23bc:	01 00 00 00 	nop 
    23c0:	01 00 00 00 	nop 
    23c4:	01 00 00 00 	nop 
    23c8:	01 00 00 00 	nop 
    23cc:	01 00 00 00 	nop 
    23d0:	01 00 00 00 	nop 
    23d4:	01 00 00 00 	nop 
    23d8:	01 00 00 00 	nop 
    23dc:	01 00 00 00 	nop 
    23e0:	01 00 00 00 	nop 
    23e4:	01 00 00 00 	nop 
    23e8:	01 00 00 00 	nop 
    23ec:	01 00 00 00 	nop 
    23f0:	01 00 00 00 	nop 
    23f4:	01 00 00 00 	nop 
    23f8:	01 00 00 00 	nop 
    23fc:	01 00 00 00 	nop 
    2400:	01 00 00 00 	nop 
    2404:	01 00 00 00 	nop 
    2408:	01 00 00 00 	nop 
    240c:	01 00 00 00 	nop 
    2410:	01 00 00 00 	nop 
    2414:	01 00 00 00 	nop 
    2418:	01 00 00 00 	nop 
    241c:	01 00 00 00 	nop 
    2420:	01 00 00 00 	nop 
    2424:	01 00 00 00 	nop 
    2428:	01 00 00 00 	nop 
    242c:	01 00 00 00 	nop 
    2430:	01 00 00 00 	nop 
    2434:	01 00 00 00 	nop 
    2438:	01 00 00 00 	nop 
    243c:	01 00 00 00 	nop 
    2440:	01 00 00 00 	nop 
    2444:	01 00 00 00 	nop 
    2448:	01 00 00 00 	nop 
    244c:	01 00 00 00 	nop 
    2450:	01 00 00 00 	nop 
    2454:	01 00 00 00 	nop 
    2458:	01 00 00 00 	nop 
    245c:	01 00 00 00 	nop 
    2460:	01 00 00 00 	nop 
    2464:	01 00 00 00 	nop 
    2468:	01 00 00 00 	nop 
    246c:	01 00 00 00 	nop 
    2470:	01 00 00 00 	nop 
    2474:	01 00 00 00 	nop 
    2478:	01 00 00 00 	nop 
    247c:	01 00 00 00 	nop 
    2480:	01 00 00 00 	nop 
    2484:	01 00 00 00 	nop 
    2488:	01 00 00 00 	nop 
    248c:	01 00 00 00 	nop 
    2490:	01 00 00 00 	nop 
    2494:	01 00 00 00 	nop 
    2498:	01 00 00 00 	nop 
    249c:	01 00 00 00 	nop 
    24a0:	01 00 00 00 	nop 
    24a4:	01 00 00 00 	nop 
    24a8:	01 00 00 00 	nop 
    24ac:	01 00 00 00 	nop 
    24b0:	01 00 00 00 	nop 
    24b4:	01 00 00 00 	nop 
    24b8:	01 00 00 00 	nop 
    24bc:	01 00 00 00 	nop 
    24c0:	01 00 00 00 	nop 
    24c4:	01 00 00 00 	nop 
    24c8:	01 00 00 00 	nop 
    24cc:	01 00 00 00 	nop 
    24d0:	01 00 00 00 	nop 
    24d4:	01 00 00 00 	nop 
    24d8:	01 00 00 00 	nop 
    24dc:	01 00 00 00 	nop 
    24e0:	01 00 00 00 	nop 
    24e4:	01 00 00 00 	nop 
    24e8:	01 00 00 00 	nop 
    24ec:	01 00 00 00 	nop 
    24f0:	01 00 00 00 	nop 
    24f4:	01 00 00 00 	nop 
    24f8:	01 00 00 00 	nop 
    24fc:	01 00 00 00 	nop 
    2500:	01 00 00 00 	nop 
    2504:	01 00 00 00 	nop 
    2508:	01 00 00 00 	nop 
    250c:	01 00 00 00 	nop 
    2510:	01 00 00 00 	nop 
    2514:	01 00 00 00 	nop 
    2518:	01 00 00 00 	nop 
    251c:	01 00 00 00 	nop 
    2520:	01 00 00 00 	nop 
    2524:	01 00 00 00 	nop 
    2528:	01 00 00 00 	nop 
    252c:	01 00 00 00 	nop 
    2530:	01 00 00 00 	nop 
    2534:	01 00 00 00 	nop 
    2538:	01 00 00 00 	nop 
    253c:	01 00 00 00 	nop 
    2540:	01 00 00 00 	nop 
    2544:	01 00 00 00 	nop 
    2548:	01 00 00 00 	nop 
    254c:	01 00 00 00 	nop 
    2550:	01 00 00 00 	nop 
    2554:	01 00 00 00 	nop 
    2558:	01 00 00 00 	nop 
    255c:	01 00 00 00 	nop 
    2560:	01 00 00 00 	nop 
    2564:	01 00 00 00 	nop 
    2568:	01 00 00 00 	nop 
    256c:	01 00 00 00 	nop 
    2570:	01 00 00 00 	nop 
    2574:	01 00 00 00 	nop 
    2578:	01 00 00 00 	nop 
    257c:	01 00 00 00 	nop 
    2580:	01 00 00 00 	nop 
    2584:	01 00 00 00 	nop 
    2588:	01 00 00 00 	nop 
    258c:	01 00 00 00 	nop 
    2590:	01 00 00 00 	nop 
    2594:	01 00 00 00 	nop 
    2598:	01 00 00 00 	nop 
    259c:	01 00 00 00 	nop 
    25a0:	01 00 00 00 	nop 
    25a4:	01 00 00 00 	nop 
    25a8:	01 00 00 00 	nop 
    25ac:	01 00 00 00 	nop 
    25b0:	01 00 00 00 	nop 
    25b4:	01 00 00 00 	nop 
    25b8:	01 00 00 00 	nop 
    25bc:	01 00 00 00 	nop 
    25c0:	01 00 00 00 	nop 
    25c4:	01 00 00 00 	nop 
    25c8:	01 00 00 00 	nop 
    25cc:	01 00 00 00 	nop 
    25d0:	01 00 00 00 	nop 
    25d4:	01 00 00 00 	nop 
    25d8:	01 00 00 00 	nop 
    25dc:	01 00 00 00 	nop 
    25e0:	01 00 00 00 	nop 
    25e4:	01 00 00 00 	nop 
    25e8:	01 00 00 00 	nop 
    25ec:	01 00 00 00 	nop 
    25f0:	01 00 00 00 	nop 
    25f4:	01 00 00 00 	nop 
    25f8:	01 00 00 00 	nop 
    25fc:	01 00 00 00 	nop 
    2600:	01 00 00 00 	nop 
    2604:	01 00 00 00 	nop 
    2608:	01 00 00 00 	nop 
    260c:	01 00 00 00 	nop 
    2610:	01 00 00 00 	nop 
    2614:	01 00 00 00 	nop 
    2618:	01 00 00 00 	nop 
    261c:	01 00 00 00 	nop 
    2620:	01 00 00 00 	nop 
    2624:	01 00 00 00 	nop 
    2628:	01 00 00 00 	nop 
    262c:	01 00 00 00 	nop 
    2630:	01 00 00 00 	nop 
    2634:	01 00 00 00 	nop 
    2638:	01 00 00 00 	nop 
    263c:	01 00 00 00 	nop 
    2640:	01 00 00 00 	nop 
    2644:	01 00 00 00 	nop 
    2648:	01 00 00 00 	nop 
    264c:	01 00 00 00 	nop 
    2650:	01 00 00 00 	nop 
    2654:	01 00 00 00 	nop 
    2658:	01 00 00 00 	nop 
    265c:	01 00 00 00 	nop 
    2660:	01 00 00 00 	nop 
    2664:	01 00 00 00 	nop 
    2668:	01 00 00 00 	nop 
    266c:	01 00 00 00 	nop 
    2670:	01 00 00 00 	nop 
    2674:	01 00 00 00 	nop 
    2678:	01 00 00 00 	nop 
    267c:	01 00 00 00 	nop 
    2680:	01 00 00 00 	nop 
    2684:	01 00 00 00 	nop 
    2688:	01 00 00 00 	nop 
    268c:	01 00 00 00 	nop 
    2690:	01 00 00 00 	nop 
    2694:	01 00 00 00 	nop 
    2698:	01 00 00 00 	nop 
    269c:	01 00 00 00 	nop 
    26a0:	01 00 00 00 	nop 
    26a4:	01 00 00 00 	nop 
    26a8:	01 00 00 00 	nop 
    26ac:	01 00 00 00 	nop 
    26b0:	01 00 00 00 	nop 
    26b4:	01 00 00 00 	nop 
    26b8:	01 00 00 00 	nop 
    26bc:	01 00 00 00 	nop 
    26c0:	01 00 00 00 	nop 
    26c4:	01 00 00 00 	nop 
    26c8:	01 00 00 00 	nop 
    26cc:	01 00 00 00 	nop 
    26d0:	01 00 00 00 	nop 
    26d4:	01 00 00 00 	nop 
    26d8:	01 00 00 00 	nop 
    26dc:	01 00 00 00 	nop 
    26e0:	01 00 00 00 	nop 
    26e4:	01 00 00 00 	nop 
    26e8:	01 00 00 00 	nop 
    26ec:	01 00 00 00 	nop 
    26f0:	01 00 00 00 	nop 
    26f4:	01 00 00 00 	nop 
    26f8:	01 00 00 00 	nop 
    26fc:	01 00 00 00 	nop 
    2700:	01 00 00 00 	nop 
    2704:	01 00 00 00 	nop 
    2708:	01 00 00 00 	nop 
    270c:	01 00 00 00 	nop 
    2710:	01 00 00 00 	nop 
    2714:	01 00 00 00 	nop 
    2718:	01 00 00 00 	nop 
    271c:	01 00 00 00 	nop 
    2720:	01 00 00 00 	nop 
    2724:	01 00 00 00 	nop 
    2728:	01 00 00 00 	nop 
    272c:	01 00 00 00 	nop 
    2730:	01 00 00 00 	nop 
    2734:	01 00 00 00 	nop 
    2738:	01 00 00 00 	nop 
    273c:	01 00 00 00 	nop 
    2740:	01 00 00 00 	nop 
    2744:	01 00 00 00 	nop 
    2748:	01 00 00 00 	nop 
    274c:	01 00 00 00 	nop 
    2750:	01 00 00 00 	nop 
    2754:	01 00 00 00 	nop 
    2758:	01 00 00 00 	nop 
    275c:	01 00 00 00 	nop 
    2760:	01 00 00 00 	nop 
    2764:	01 00 00 00 	nop 
    2768:	01 00 00 00 	nop 
    276c:	01 00 00 00 	nop 
    2770:	01 00 00 00 	nop 
    2774:	01 00 00 00 	nop 
    2778:	01 00 00 00 	nop 
    277c:	01 00 00 00 	nop 
    2780:	01 00 00 00 	nop 
    2784:	01 00 00 00 	nop 
    2788:	01 00 00 00 	nop 
    278c:	01 00 00 00 	nop 
    2790:	01 00 00 00 	nop 
    2794:	01 00 00 00 	nop 
    2798:	01 00 00 00 	nop 
    279c:	01 00 00 00 	nop 
    27a0:	01 00 00 00 	nop 
    27a4:	01 00 00 00 	nop 
    27a8:	01 00 00 00 	nop 
    27ac:	01 00 00 00 	nop 
    27b0:	01 00 00 00 	nop 
    27b4:	01 00 00 00 	nop 
    27b8:	01 00 00 00 	nop 
    27bc:	01 00 00 00 	nop 
    27c0:	01 00 00 00 	nop 
    27c4:	01 00 00 00 	nop 
    27c8:	01 00 00 00 	nop 
    27cc:	01 00 00 00 	nop 
    27d0:	01 00 00 00 	nop 
    27d4:	01 00 00 00 	nop 
    27d8:	01 00 00 00 	nop 
    27dc:	01 00 00 00 	nop 
    27e0:	01 00 00 00 	nop 
    27e4:	01 00 00 00 	nop 
    27e8:	01 00 00 00 	nop 
    27ec:	01 00 00 00 	nop 
    27f0:	01 00 00 00 	nop 
    27f4:	01 00 00 00 	nop 
    27f8:	01 00 00 00 	nop 
    27fc:	01 00 00 00 	nop 
    2800:	01 00 00 00 	nop 
    2804:	01 00 00 00 	nop 
    2808:	01 00 00 00 	nop 
    280c:	01 00 00 00 	nop 
    2810:	01 00 00 00 	nop 
    2814:	01 00 00 00 	nop 
    2818:	01 00 00 00 	nop 
    281c:	01 00 00 00 	nop 
    2820:	01 00 00 00 	nop 
    2824:	01 00 00 00 	nop 
    2828:	01 00 00 00 	nop 
    282c:	01 00 00 00 	nop 
    2830:	01 00 00 00 	nop 
    2834:	01 00 00 00 	nop 
    2838:	01 00 00 00 	nop 
    283c:	01 00 00 00 	nop 
    2840:	01 00 00 00 	nop 
    2844:	01 00 00 00 	nop 
    2848:	01 00 00 00 	nop 
    284c:	01 00 00 00 	nop 
    2850:	01 00 00 00 	nop 
    2854:	01 00 00 00 	nop 
    2858:	01 00 00 00 	nop 
    285c:	01 00 00 00 	nop 
    2860:	01 00 00 00 	nop 
    2864:	01 00 00 00 	nop 
    2868:	01 00 00 00 	nop 
    286c:	01 00 00 00 	nop 
    2870:	01 00 00 00 	nop 
    2874:	01 00 00 00 	nop 
    2878:	01 00 00 00 	nop 
    287c:	01 00 00 00 	nop 
    2880:	01 00 00 00 	nop 
    2884:	01 00 00 00 	nop 
    2888:	01 00 00 00 	nop 
    288c:	01 00 00 00 	nop 
    2890:	01 00 00 00 	nop 
    2894:	01 00 00 00 	nop 
    2898:	01 00 00 00 	nop 
    289c:	01 00 00 00 	nop 
    28a0:	01 00 00 00 	nop 
    28a4:	01 00 00 00 	nop 
    28a8:	01 00 00 00 	nop 
    28ac:	01 00 00 00 	nop 
    28b0:	01 00 00 00 	nop 
    28b4:	01 00 00 00 	nop 
    28b8:	01 00 00 00 	nop 
    28bc:	01 00 00 00 	nop 
    28c0:	01 00 00 00 	nop 
    28c4:	01 00 00 00 	nop 
    28c8:	01 00 00 00 	nop 
    28cc:	01 00 00 00 	nop 
    28d0:	01 00 00 00 	nop 
    28d4:	01 00 00 00 	nop 
    28d8:	01 00 00 00 	nop 
    28dc:	01 00 00 00 	nop 
    28e0:	01 00 00 00 	nop 
    28e4:	01 00 00 00 	nop 
    28e8:	01 00 00 00 	nop 
    28ec:	01 00 00 00 	nop 
    28f0:	01 00 00 00 	nop 
    28f4:	01 00 00 00 	nop 
    28f8:	01 00 00 00 	nop 
    28fc:	01 00 00 00 	nop 
    2900:	01 00 00 00 	nop 
    2904:	01 00 00 00 	nop 
    2908:	01 00 00 00 	nop 
    290c:	01 00 00 00 	nop 
    2910:	01 00 00 00 	nop 
    2914:	01 00 00 00 	nop 
    2918:	01 00 00 00 	nop 
    291c:	01 00 00 00 	nop 
    2920:	01 00 00 00 	nop 
    2924:	01 00 00 00 	nop 
    2928:	01 00 00 00 	nop 
    292c:	01 00 00 00 	nop 
    2930:	01 00 00 00 	nop 
    2934:	01 00 00 00 	nop 
    2938:	01 00 00 00 	nop 
    293c:	01 00 00 00 	nop 
    2940:	01 00 00 00 	nop 
    2944:	01 00 00 00 	nop 
    2948:	01 00 00 00 	nop 
    294c:	01 00 00 00 	nop 
    2950:	01 00 00 00 	nop 
    2954:	01 00 00 00 	nop 
    2958:	01 00 00 00 	nop 
    295c:	01 00 00 00 	nop 
    2960:	01 00 00 00 	nop 
    2964:	01 00 00 00 	nop 
    2968:	01 00 00 00 	nop 
    296c:	01 00 00 00 	nop 
    2970:	01 00 00 00 	nop 
    2974:	01 00 00 00 	nop 
    2978:	01 00 00 00 	nop 
    297c:	01 00 00 00 	nop 
    2980:	01 00 00 00 	nop 
    2984:	01 00 00 00 	nop 
    2988:	01 00 00 00 	nop 
    298c:	01 00 00 00 	nop 
    2990:	01 00 00 00 	nop 
    2994:	01 00 00 00 	nop 
    2998:	01 00 00 00 	nop 
    299c:	01 00 00 00 	nop 
    29a0:	01 00 00 00 	nop 
    29a4:	01 00 00 00 	nop 
    29a8:	01 00 00 00 	nop 
    29ac:	01 00 00 00 	nop 
    29b0:	01 00 00 00 	nop 
    29b4:	01 00 00 00 	nop 
    29b8:	01 00 00 00 	nop 
    29bc:	01 00 00 00 	nop 
    29c0:	01 00 00 00 	nop 
    29c4:	01 00 00 00 	nop 
    29c8:	01 00 00 00 	nop 
    29cc:	01 00 00 00 	nop 
    29d0:	01 00 00 00 	nop 
    29d4:	01 00 00 00 	nop 
    29d8:	01 00 00 00 	nop 
    29dc:	01 00 00 00 	nop 
    29e0:	01 00 00 00 	nop 
    29e4:	01 00 00 00 	nop 
    29e8:	01 00 00 00 	nop 
    29ec:	01 00 00 00 	nop 
    29f0:	01 00 00 00 	nop 
    29f4:	01 00 00 00 	nop 
    29f8:	01 00 00 00 	nop 
    29fc:	01 00 00 00 	nop 
    2a00:	01 00 00 00 	nop 
    2a04:	01 00 00 00 	nop 
    2a08:	01 00 00 00 	nop 
    2a0c:	01 00 00 00 	nop 
    2a10:	01 00 00 00 	nop 
    2a14:	01 00 00 00 	nop 
    2a18:	01 00 00 00 	nop 
    2a1c:	01 00 00 00 	nop 
    2a20:	01 00 00 00 	nop 
    2a24:	01 00 00 00 	nop 
    2a28:	01 00 00 00 	nop 
    2a2c:	01 00 00 00 	nop 
    2a30:	01 00 00 00 	nop 
    2a34:	01 00 00 00 	nop 
    2a38:	01 00 00 00 	nop 
    2a3c:	01 00 00 00 	nop 
    2a40:	01 00 00 00 	nop 
    2a44:	01 00 00 00 	nop 
    2a48:	01 00 00 00 	nop 
    2a4c:	01 00 00 00 	nop 
    2a50:	01 00 00 00 	nop 
    2a54:	01 00 00 00 	nop 
    2a58:	01 00 00 00 	nop 
    2a5c:	01 00 00 00 	nop 
    2a60:	01 00 00 00 	nop 
    2a64:	01 00 00 00 	nop 
    2a68:	01 00 00 00 	nop 
    2a6c:	01 00 00 00 	nop 
    2a70:	01 00 00 00 	nop 
    2a74:	01 00 00 00 	nop 
    2a78:	01 00 00 00 	nop 
    2a7c:	01 00 00 00 	nop 
    2a80:	01 00 00 00 	nop 
    2a84:	01 00 00 00 	nop 
    2a88:	01 00 00 00 	nop 
    2a8c:	01 00 00 00 	nop 
    2a90:	01 00 00 00 	nop 
    2a94:	01 00 00 00 	nop 
    2a98:	01 00 00 00 	nop 
    2a9c:	01 00 00 00 	nop 
    2aa0:	01 00 00 00 	nop 
    2aa4:	01 00 00 00 	nop 
    2aa8:	01 00 00 00 	nop 
    2aac:	01 00 00 00 	nop 
    2ab0:	01 00 00 00 	nop 
    2ab4:	01 00 00 00 	nop 
    2ab8:	01 00 00 00 	nop 
    2abc:	01 00 00 00 	nop 
    2ac0:	01 00 00 00 	nop 
    2ac4:	01 00 00 00 	nop 
    2ac8:	01 00 00 00 	nop 
    2acc:	01 00 00 00 	nop 
    2ad0:	01 00 00 00 	nop 
    2ad4:	01 00 00 00 	nop 
    2ad8:	01 00 00 00 	nop 
    2adc:	01 00 00 00 	nop 
    2ae0:	01 00 00 00 	nop 
    2ae4:	01 00 00 00 	nop 
    2ae8:	01 00 00 00 	nop 
    2aec:	01 00 00 00 	nop 
    2af0:	01 00 00 00 	nop 
    2af4:	01 00 00 00 	nop 
    2af8:	01 00 00 00 	nop 
    2afc:	01 00 00 00 	nop 
    2b00:	01 00 00 00 	nop 
    2b04:	01 00 00 00 	nop 
    2b08:	01 00 00 00 	nop 
    2b0c:	01 00 00 00 	nop 
    2b10:	01 00 00 00 	nop 
    2b14:	01 00 00 00 	nop 
    2b18:	01 00 00 00 	nop 
    2b1c:	01 00 00 00 	nop 
    2b20:	01 00 00 00 	nop 
    2b24:	01 00 00 00 	nop 
    2b28:	01 00 00 00 	nop 
    2b2c:	01 00 00 00 	nop 
    2b30:	01 00 00 00 	nop 
    2b34:	01 00 00 00 	nop 
    2b38:	01 00 00 00 	nop 
    2b3c:	01 00 00 00 	nop 
    2b40:	01 00 00 00 	nop 
    2b44:	01 00 00 00 	nop 
    2b48:	01 00 00 00 	nop 
    2b4c:	01 00 00 00 	nop 
    2b50:	01 00 00 00 	nop 
    2b54:	01 00 00 00 	nop 
    2b58:	01 00 00 00 	nop 
    2b5c:	01 00 00 00 	nop 
    2b60:	01 00 00 00 	nop 
    2b64:	01 00 00 00 	nop 
    2b68:	01 00 00 00 	nop 
    2b6c:	01 00 00 00 	nop 
    2b70:	01 00 00 00 	nop 
    2b74:	01 00 00 00 	nop 
    2b78:	01 00 00 00 	nop 
    2b7c:	01 00 00 00 	nop 
    2b80:	01 00 00 00 	nop 
    2b84:	01 00 00 00 	nop 
    2b88:	01 00 00 00 	nop 
    2b8c:	01 00 00 00 	nop 
    2b90:	01 00 00 00 	nop 
    2b94:	01 00 00 00 	nop 
    2b98:	01 00 00 00 	nop 
    2b9c:	01 00 00 00 	nop 
    2ba0:	01 00 00 00 	nop 
    2ba4:	01 00 00 00 	nop 
    2ba8:	01 00 00 00 	nop 
    2bac:	01 00 00 00 	nop 
    2bb0:	01 00 00 00 	nop 
    2bb4:	01 00 00 00 	nop 
    2bb8:	01 00 00 00 	nop 
    2bbc:	01 00 00 00 	nop 
    2bc0:	01 00 00 00 	nop 
    2bc4:	01 00 00 00 	nop 
    2bc8:	01 00 00 00 	nop 
    2bcc:	01 00 00 00 	nop 
    2bd0:	01 00 00 00 	nop 
    2bd4:	01 00 00 00 	nop 
    2bd8:	01 00 00 00 	nop 
    2bdc:	01 00 00 00 	nop 
    2be0:	01 00 00 00 	nop 
    2be4:	01 00 00 00 	nop 
    2be8:	01 00 00 00 	nop 
    2bec:	01 00 00 00 	nop 
    2bf0:	01 00 00 00 	nop 
    2bf4:	01 00 00 00 	nop 
    2bf8:	01 00 00 00 	nop 
    2bfc:	01 00 00 00 	nop 
    2c00:	01 00 00 00 	nop 
    2c04:	01 00 00 00 	nop 
    2c08:	01 00 00 00 	nop 
    2c0c:	01 00 00 00 	nop 
    2c10:	01 00 00 00 	nop 
    2c14:	01 00 00 00 	nop 
    2c18:	01 00 00 00 	nop 
    2c1c:	01 00 00 00 	nop 
    2c20:	01 00 00 00 	nop 
    2c24:	01 00 00 00 	nop 
    2c28:	01 00 00 00 	nop 
    2c2c:	01 00 00 00 	nop 
    2c30:	01 00 00 00 	nop 
    2c34:	01 00 00 00 	nop 
    2c38:	01 00 00 00 	nop 
    2c3c:	01 00 00 00 	nop 
    2c40:	01 00 00 00 	nop 
    2c44:	01 00 00 00 	nop 
    2c48:	01 00 00 00 	nop 
    2c4c:	01 00 00 00 	nop 
    2c50:	01 00 00 00 	nop 
    2c54:	01 00 00 00 	nop 
    2c58:	01 00 00 00 	nop 
    2c5c:	01 00 00 00 	nop 
    2c60:	01 00 00 00 	nop 
    2c64:	01 00 00 00 	nop 
    2c68:	01 00 00 00 	nop 
    2c6c:	01 00 00 00 	nop 
    2c70:	01 00 00 00 	nop 
    2c74:	01 00 00 00 	nop 
    2c78:	01 00 00 00 	nop 
    2c7c:	01 00 00 00 	nop 
    2c80:	01 00 00 00 	nop 
    2c84:	01 00 00 00 	nop 
    2c88:	01 00 00 00 	nop 
    2c8c:	01 00 00 00 	nop 
    2c90:	01 00 00 00 	nop 
    2c94:	01 00 00 00 	nop 
    2c98:	01 00 00 00 	nop 
    2c9c:	01 00 00 00 	nop 
    2ca0:	01 00 00 00 	nop 
    2ca4:	01 00 00 00 	nop 
    2ca8:	01 00 00 00 	nop 
    2cac:	01 00 00 00 	nop 
    2cb0:	01 00 00 00 	nop 
    2cb4:	01 00 00 00 	nop 
    2cb8:	01 00 00 00 	nop 
    2cbc:	01 00 00 00 	nop 
    2cc0:	01 00 00 00 	nop 
    2cc4:	01 00 00 00 	nop 
    2cc8:	01 00 00 00 	nop 
    2ccc:	01 00 00 00 	nop 
    2cd0:	01 00 00 00 	nop 
    2cd4:	01 00 00 00 	nop 
    2cd8:	01 00 00 00 	nop 
    2cdc:	01 00 00 00 	nop 
    2ce0:	01 00 00 00 	nop 
    2ce4:	01 00 00 00 	nop 
    2ce8:	01 00 00 00 	nop 
    2cec:	01 00 00 00 	nop 
    2cf0:	01 00 00 00 	nop 
    2cf4:	01 00 00 00 	nop 
    2cf8:	01 00 00 00 	nop 
    2cfc:	01 00 00 00 	nop 
    2d00:	01 00 00 00 	nop 
    2d04:	01 00 00 00 	nop 
    2d08:	01 00 00 00 	nop 
    2d0c:	01 00 00 00 	nop 
    2d10:	01 00 00 00 	nop 
    2d14:	01 00 00 00 	nop 
    2d18:	01 00 00 00 	nop 
    2d1c:	01 00 00 00 	nop 
    2d20:	01 00 00 00 	nop 
    2d24:	01 00 00 00 	nop 
    2d28:	01 00 00 00 	nop 
    2d2c:	01 00 00 00 	nop 
    2d30:	01 00 00 00 	nop 
    2d34:	01 00 00 00 	nop 
    2d38:	01 00 00 00 	nop 
    2d3c:	01 00 00 00 	nop 
    2d40:	01 00 00 00 	nop 
    2d44:	01 00 00 00 	nop 
    2d48:	01 00 00 00 	nop 
    2d4c:	01 00 00 00 	nop 
    2d50:	01 00 00 00 	nop 
    2d54:	01 00 00 00 	nop 
    2d58:	01 00 00 00 	nop 
    2d5c:	01 00 00 00 	nop 
    2d60:	01 00 00 00 	nop 
    2d64:	01 00 00 00 	nop 
    2d68:	01 00 00 00 	nop 
    2d6c:	01 00 00 00 	nop 
    2d70:	01 00 00 00 	nop 
    2d74:	01 00 00 00 	nop 
    2d78:	01 00 00 00 	nop 
    2d7c:	01 00 00 00 	nop 
    2d80:	01 00 00 00 	nop 
    2d84:	01 00 00 00 	nop 
    2d88:	01 00 00 00 	nop 
    2d8c:	01 00 00 00 	nop 
    2d90:	01 00 00 00 	nop 
    2d94:	01 00 00 00 	nop 
    2d98:	01 00 00 00 	nop 
    2d9c:	01 00 00 00 	nop 
    2da0:	01 00 00 00 	nop 
    2da4:	01 00 00 00 	nop 
    2da8:	01 00 00 00 	nop 
    2dac:	01 00 00 00 	nop 
    2db0:	01 00 00 00 	nop 
    2db4:	01 00 00 00 	nop 
    2db8:	01 00 00 00 	nop 
    2dbc:	01 00 00 00 	nop 
    2dc0:	01 00 00 00 	nop 
    2dc4:	01 00 00 00 	nop 
    2dc8:	01 00 00 00 	nop 
    2dcc:	01 00 00 00 	nop 
    2dd0:	01 00 00 00 	nop 
    2dd4:	01 00 00 00 	nop 
    2dd8:	01 00 00 00 	nop 
    2ddc:	01 00 00 00 	nop 
    2de0:	01 00 00 00 	nop 
    2de4:	01 00 00 00 	nop 
    2de8:	01 00 00 00 	nop 
    2dec:	01 00 00 00 	nop 
    2df0:	01 00 00 00 	nop 
    2df4:	01 00 00 00 	nop 
    2df8:	01 00 00 00 	nop 
    2dfc:	01 00 00 00 	nop 
    2e00:	01 00 00 00 	nop 
    2e04:	01 00 00 00 	nop 
    2e08:	01 00 00 00 	nop 
    2e0c:	01 00 00 00 	nop 
    2e10:	01 00 00 00 	nop 
    2e14:	01 00 00 00 	nop 
    2e18:	01 00 00 00 	nop 
    2e1c:	01 00 00 00 	nop 
    2e20:	01 00 00 00 	nop 
    2e24:	01 00 00 00 	nop 
    2e28:	01 00 00 00 	nop 
    2e2c:	01 00 00 00 	nop 
    2e30:	01 00 00 00 	nop 
    2e34:	01 00 00 00 	nop 
    2e38:	01 00 00 00 	nop 
    2e3c:	01 00 00 00 	nop 
    2e40:	01 00 00 00 	nop 
    2e44:	01 00 00 00 	nop 
    2e48:	01 00 00 00 	nop 
    2e4c:	01 00 00 00 	nop 
    2e50:	01 00 00 00 	nop 
    2e54:	01 00 00 00 	nop 
    2e58:	01 00 00 00 	nop 
    2e5c:	01 00 00 00 	nop 
    2e60:	01 00 00 00 	nop 
    2e64:	01 00 00 00 	nop 
    2e68:	01 00 00 00 	nop 
    2e6c:	01 00 00 00 	nop 
    2e70:	01 00 00 00 	nop 
    2e74:	01 00 00 00 	nop 
    2e78:	01 00 00 00 	nop 
    2e7c:	01 00 00 00 	nop 
    2e80:	01 00 00 00 	nop 
    2e84:	01 00 00 00 	nop 
    2e88:	01 00 00 00 	nop 
    2e8c:	01 00 00 00 	nop 
    2e90:	01 00 00 00 	nop 
    2e94:	01 00 00 00 	nop 
    2e98:	01 00 00 00 	nop 
    2e9c:	01 00 00 00 	nop 
    2ea0:	01 00 00 00 	nop 
    2ea4:	01 00 00 00 	nop 
    2ea8:	01 00 00 00 	nop 
    2eac:	01 00 00 00 	nop 
    2eb0:	01 00 00 00 	nop 
    2eb4:	01 00 00 00 	nop 
    2eb8:	01 00 00 00 	nop 
    2ebc:	01 00 00 00 	nop 
    2ec0:	01 00 00 00 	nop 
    2ec4:	01 00 00 00 	nop 
    2ec8:	01 00 00 00 	nop 
    2ecc:	01 00 00 00 	nop 
    2ed0:	01 00 00 00 	nop 
    2ed4:	01 00 00 00 	nop 
    2ed8:	01 00 00 00 	nop 
    2edc:	01 00 00 00 	nop 
    2ee0:	01 00 00 00 	nop 
    2ee4:	01 00 00 00 	nop 
    2ee8:	01 00 00 00 	nop 
    2eec:	01 00 00 00 	nop 
    2ef0:	01 00 00 00 	nop 
    2ef4:	01 00 00 00 	nop 
    2ef8:	01 00 00 00 	nop 
    2efc:	01 00 00 00 	nop 
    2f00:	01 00 00 00 	nop 
    2f04:	01 00 00 00 	nop 
    2f08:	01 00 00 00 	nop 
    2f0c:	01 00 00 00 	nop 
    2f10:	01 00 00 00 	nop 
    2f14:	01 00 00 00 	nop 
    2f18:	01 00 00 00 	nop 
    2f1c:	01 00 00 00 	nop 
    2f20:	01 00 00 00 	nop 
    2f24:	01 00 00 00 	nop 
    2f28:	01 00 00 00 	nop 
    2f2c:	01 00 00 00 	nop 
    2f30:	01 00 00 00 	nop 
    2f34:	01 00 00 00 	nop 
    2f38:	01 00 00 00 	nop 
    2f3c:	01 00 00 00 	nop 
    2f40:	01 00 00 00 	nop 
    2f44:	01 00 00 00 	nop 
    2f48:	01 00 00 00 	nop 
    2f4c:	01 00 00 00 	nop 
    2f50:	01 00 00 00 	nop 
    2f54:	01 00 00 00 	nop 
    2f58:	01 00 00 00 	nop 
    2f5c:	01 00 00 00 	nop 
    2f60:	01 00 00 00 	nop 
    2f64:	01 00 00 00 	nop 
    2f68:	01 00 00 00 	nop 
    2f6c:	01 00 00 00 	nop 
    2f70:	01 00 00 00 	nop 
    2f74:	01 00 00 00 	nop 
    2f78:	01 00 00 00 	nop 
    2f7c:	01 00 00 00 	nop 
    2f80:	01 00 00 00 	nop 
    2f84:	01 00 00 00 	nop 
    2f88:	01 00 00 00 	nop 
    2f8c:	01 00 00 00 	nop 
    2f90:	01 00 00 00 	nop 
    2f94:	01 00 00 00 	nop 
    2f98:	01 00 00 00 	nop 
    2f9c:	01 00 00 00 	nop 
    2fa0:	01 00 00 00 	nop 
    2fa4:	01 00 00 00 	nop 
    2fa8:	01 00 00 00 	nop 
    2fac:	01 00 00 00 	nop 
    2fb0:	01 00 00 00 	nop 
    2fb4:	01 00 00 00 	nop 
    2fb8:	01 00 00 00 	nop 
    2fbc:	01 00 00 00 	nop 
    2fc0:	01 00 00 00 	nop 
    2fc4:	01 00 00 00 	nop 
    2fc8:	01 00 00 00 	nop 
    2fcc:	01 00 00 00 	nop 
    2fd0:	01 00 00 00 	nop 
    2fd4:	01 00 00 00 	nop 
    2fd8:	01 00 00 00 	nop 
    2fdc:	01 00 00 00 	nop 
    2fe0:	01 00 00 00 	nop 
    2fe4:	01 00 00 00 	nop 
    2fe8:	01 00 00 00 	nop 
    2fec:	01 00 00 00 	nop 
    2ff0:	01 00 00 00 	nop 
    2ff4:	01 00 00 00 	nop 
    2ff8:	01 00 00 00 	nop 
    2ffc:	01 00 00 00 	nop 
    3000:	01 00 00 00 	nop 
    3004:	01 00 00 00 	nop 
    3008:	01 00 00 00 	nop 
    300c:	01 00 00 00 	nop 
    3010:	01 00 00 00 	nop 
    3014:	01 00 00 00 	nop 
    3018:	01 00 00 00 	nop 
    301c:	01 00 00 00 	nop 
    3020:	01 00 00 00 	nop 
    3024:	01 00 00 00 	nop 
    3028:	01 00 00 00 	nop 
    302c:	01 00 00 00 	nop 
    3030:	01 00 00 00 	nop 
    3034:	01 00 00 00 	nop 
    3038:	01 00 00 00 	nop 
    303c:	01 00 00 00 	nop 
    3040:	01 00 00 00 	nop 
    3044:	01 00 00 00 	nop 
    3048:	01 00 00 00 	nop 
    304c:	01 00 00 00 	nop 
    3050:	01 00 00 00 	nop 
    3054:	01 00 00 00 	nop 
    3058:	01 00 00 00 	nop 
    305c:	01 00 00 00 	nop 
    3060:	01 00 00 00 	nop 
    3064:	01 00 00 00 	nop 
    3068:	01 00 00 00 	nop 
    306c:	01 00 00 00 	nop 
    3070:	01 00 00 00 	nop 
    3074:	01 00 00 00 	nop 
    3078:	01 00 00 00 	nop 
    307c:	01 00 00 00 	nop 
    3080:	01 00 00 00 	nop 
    3084:	01 00 00 00 	nop 
    3088:	01 00 00 00 	nop 
    308c:	01 00 00 00 	nop 
    3090:	01 00 00 00 	nop 
    3094:	01 00 00 00 	nop 
    3098:	01 00 00 00 	nop 
    309c:	01 00 00 00 	nop 
    30a0:	91 d0 20 00 	ta  0
    30a4:	01 00 00 00 	nop 
    30a8:	01 00 00 00 	nop 
    30ac:	01 00 00 00 	nop 
    30b0:	91 d0 20 00 	ta  0
    30b4:	01 00 00 00 	nop 
    30b8:	01 00 00 00 	nop 
    30bc:	01 00 00 00 	nop 
    30c0:	91 d0 20 00 	ta  0
    30c4:	01 00 00 00 	nop 
    30c8:	01 00 00 00 	nop 
    30cc:	01 00 00 00 	nop 
    30d0:	91 d0 20 00 	ta  0
    30d4:	01 00 00 00 	nop 
    30d8:	01 00 00 00 	nop 
    30dc:	01 00 00 00 	nop 
    30e0:	91 d0 20 00 	ta  0
    30e4:	01 00 00 00 	nop 
    30e8:	01 00 00 00 	nop 
    30ec:	01 00 00 00 	nop 
    30f0:	10 bf fb ec 	b  20a0 <MMAP_SEGMENT_0+0x2000>
    30f4:	01 00 00 00 	nop 
    30f8:	01 00 00 00 	nop 
    30fc:	01 00 00 00 	nop 
    3100:	10 bf fc 01 	b  2104 <MMAP_SEGMENT_0+0x2064>
    3104:	01 00 00 00 	nop 
    3108:	01 00 00 00 	nop 
    310c:	01 00 00 00 	nop 
    3110:	91 d0 20 00 	ta  0
    3114:	01 00 00 00 	nop 
    3118:	01 00 00 00 	nop 
    311c:	01 00 00 00 	nop 
    3120:	91 d0 20 00 	ta  0
    3124:	01 00 00 00 	nop 
    3128:	01 00 00 00 	nop 
    312c:	01 00 00 00 	nop 
    3130:	91 d0 20 00 	ta  0
    3134:	01 00 00 00 	nop 
    3138:	01 00 00 00 	nop 
    313c:	01 00 00 00 	nop 
    3140:	91 d0 20 00 	ta  0
    3144:	01 00 00 00 	nop 
    3148:	01 00 00 00 	nop 
    314c:	01 00 00 00 	nop 
    3150:	91 d0 20 00 	ta  0
    3154:	01 00 00 00 	nop 
    3158:	01 00 00 00 	nop 
    315c:	01 00 00 00 	nop 
    3160:	91 d0 20 00 	ta  0
    3164:	01 00 00 00 	nop 
    3168:	01 00 00 00 	nop 
    316c:	01 00 00 00 	nop 
    3170:	91 d0 20 00 	ta  0
    3174:	01 00 00 00 	nop 
    3178:	01 00 00 00 	nop 
    317c:	01 00 00 00 	nop 
    3180:	91 d0 20 00 	ta  0
    3184:	01 00 00 00 	nop 
    3188:	01 00 00 00 	nop 
    318c:	01 00 00 00 	nop 
    3190:	91 d0 20 00 	ta  0
    3194:	01 00 00 00 	nop 
    3198:	01 00 00 00 	nop 
    319c:	01 00 00 00 	nop 
    31a0:	91 d0 20 00 	ta  0
    31a4:	01 00 00 00 	nop 
    31a8:	01 00 00 00 	nop 
    31ac:	01 00 00 00 	nop 
    31b0:	91 d0 20 00 	ta  0
    31b4:	01 00 00 00 	nop 
    31b8:	01 00 00 00 	nop 
    31bc:	01 00 00 00 	nop 
    31c0:	91 d0 20 00 	ta  0
    31c4:	01 00 00 00 	nop 
    31c8:	01 00 00 00 	nop 
    31cc:	01 00 00 00 	nop 
    31d0:	91 d0 20 00 	ta  0
    31d4:	01 00 00 00 	nop 
    31d8:	01 00 00 00 	nop 
    31dc:	01 00 00 00 	nop 
    31e0:	91 d0 20 00 	ta  0
    31e4:	01 00 00 00 	nop 
    31e8:	01 00 00 00 	nop 
    31ec:	01 00 00 00 	nop 
    31f0:	91 d0 20 00 	ta  0
    31f4:	01 00 00 00 	nop 
    31f8:	01 00 00 00 	nop 
    31fc:	01 00 00 00 	nop 
    3200:	91 d0 20 00 	ta  0
    3204:	01 00 00 00 	nop 
    3208:	01 00 00 00 	nop 
    320c:	01 00 00 00 	nop 
    3210:	91 d0 20 00 	ta  0
    3214:	01 00 00 00 	nop 
    3218:	01 00 00 00 	nop 
    321c:	01 00 00 00 	nop 
    3220:	91 d0 20 00 	ta  0
    3224:	01 00 00 00 	nop 
    3228:	01 00 00 00 	nop 
    322c:	01 00 00 00 	nop 
    3230:	91 d0 20 00 	ta  0
    3234:	01 00 00 00 	nop 
    3238:	01 00 00 00 	nop 
    323c:	01 00 00 00 	nop 
    3240:	91 d0 20 00 	ta  0
    3244:	01 00 00 00 	nop 
    3248:	01 00 00 00 	nop 
    324c:	01 00 00 00 	nop 
    3250:	91 d0 20 00 	ta  0
    3254:	01 00 00 00 	nop 
    3258:	01 00 00 00 	nop 
    325c:	01 00 00 00 	nop 
    3260:	10 bf fb c4 	b  2170 <MMAP_SEGMENT_0+0x20d0>
    3264:	01 00 00 00 	nop 
    3268:	01 00 00 00 	nop 
    326c:	01 00 00 00 	nop 
    3270:	91 d0 20 00 	ta  0
    3274:	01 00 00 00 	nop 
    3278:	01 00 00 00 	nop 
    327c:	01 00 00 00 	nop 
    3280:	91 d0 20 00 	ta  0
    3284:	01 00 00 00 	nop 
    3288:	01 00 00 00 	nop 
    328c:	01 00 00 00 	nop 
    3290:	91 d0 20 00 	ta  0
    3294:	01 00 00 00 	nop 
    3298:	01 00 00 00 	nop 
    329c:	01 00 00 00 	nop 
    32a0:	91 d0 20 00 	ta  0
    32a4:	01 00 00 00 	nop 
    32a8:	01 00 00 00 	nop 
    32ac:	01 00 00 00 	nop 
    32b0:	91 d0 20 00 	ta  0
    32b4:	01 00 00 00 	nop 
    32b8:	01 00 00 00 	nop 
    32bc:	01 00 00 00 	nop 
    32c0:	91 d0 20 00 	ta  0
    32c4:	01 00 00 00 	nop 
    32c8:	01 00 00 00 	nop 
    32cc:	01 00 00 00 	nop 
    32d0:	91 d0 20 00 	ta  0
    32d4:	01 00 00 00 	nop 
    32d8:	01 00 00 00 	nop 
    32dc:	01 00 00 00 	nop 
    32e0:	91 d0 20 00 	ta  0
    32e4:	01 00 00 00 	nop 
    32e8:	01 00 00 00 	nop 
    32ec:	01 00 00 00 	nop 
    32f0:	91 d0 20 00 	ta  0
    32f4:	01 00 00 00 	nop 
    32f8:	01 00 00 00 	nop 
    32fc:	01 00 00 00 	nop 
    3300:	91 d0 20 00 	ta  0
    3304:	01 00 00 00 	nop 
    3308:	01 00 00 00 	nop 
    330c:	01 00 00 00 	nop 
    3310:	91 d0 20 00 	ta  0
    3314:	01 00 00 00 	nop 
    3318:	01 00 00 00 	nop 
    331c:	01 00 00 00 	nop 
    3320:	91 d0 20 00 	ta  0
    3324:	01 00 00 00 	nop 
    3328:	01 00 00 00 	nop 
    332c:	01 00 00 00 	nop 
    3330:	91 d0 20 00 	ta  0
    3334:	01 00 00 00 	nop 
    3338:	01 00 00 00 	nop 
    333c:	01 00 00 00 	nop 
    3340:	91 d0 20 00 	ta  0
    3344:	01 00 00 00 	nop 
    3348:	01 00 00 00 	nop 
    334c:	01 00 00 00 	nop 
    3350:	91 d0 20 00 	ta  0
    3354:	01 00 00 00 	nop 
    3358:	01 00 00 00 	nop 
    335c:	01 00 00 00 	nop 
    3360:	91 d0 20 00 	ta  0
    3364:	01 00 00 00 	nop 
    3368:	01 00 00 00 	nop 
    336c:	01 00 00 00 	nop 
    3370:	91 d0 20 00 	ta  0
    3374:	01 00 00 00 	nop 
    3378:	01 00 00 00 	nop 
    337c:	01 00 00 00 	nop 
    3380:	91 d0 20 00 	ta  0
    3384:	01 00 00 00 	nop 
    3388:	01 00 00 00 	nop 
    338c:	01 00 00 00 	nop 
    3390:	91 d0 20 00 	ta  0
    3394:	01 00 00 00 	nop 
    3398:	01 00 00 00 	nop 
    339c:	01 00 00 00 	nop 
    33a0:	91 d0 20 00 	ta  0
    33a4:	01 00 00 00 	nop 
    33a8:	01 00 00 00 	nop 
    33ac:	01 00 00 00 	nop 
    33b0:	91 d0 20 00 	ta  0
    33b4:	01 00 00 00 	nop 
    33b8:	01 00 00 00 	nop 
    33bc:	01 00 00 00 	nop 
    33c0:	91 d0 20 00 	ta  0
    33c4:	01 00 00 00 	nop 
    33c8:	01 00 00 00 	nop 
    33cc:	01 00 00 00 	nop 
    33d0:	91 d0 20 00 	ta  0
    33d4:	01 00 00 00 	nop 
    33d8:	01 00 00 00 	nop 
    33dc:	01 00 00 00 	nop 
    33e0:	91 d0 20 00 	ta  0
    33e4:	01 00 00 00 	nop 
    33e8:	01 00 00 00 	nop 
    33ec:	01 00 00 00 	nop 
    33f0:	91 d0 20 00 	ta  0
    33f4:	01 00 00 00 	nop 
    33f8:	01 00 00 00 	nop 
    33fc:	01 00 00 00 	nop 
    3400:	91 d0 20 00 	ta  0
    3404:	01 00 00 00 	nop 
    3408:	01 00 00 00 	nop 
    340c:	01 00 00 00 	nop 
    3410:	91 d0 20 00 	ta  0
    3414:	01 00 00 00 	nop 
    3418:	01 00 00 00 	nop 
    341c:	01 00 00 00 	nop 
    3420:	91 d0 20 00 	ta  0
    3424:	01 00 00 00 	nop 
    3428:	01 00 00 00 	nop 
    342c:	01 00 00 00 	nop 
    3430:	91 d0 20 00 	ta  0
    3434:	01 00 00 00 	nop 
    3438:	01 00 00 00 	nop 
    343c:	01 00 00 00 	nop 
    3440:	91 d0 20 00 	ta  0
    3444:	01 00 00 00 	nop 
    3448:	01 00 00 00 	nop 
    344c:	01 00 00 00 	nop 
    3450:	91 d0 20 00 	ta  0
    3454:	01 00 00 00 	nop 
    3458:	01 00 00 00 	nop 
    345c:	01 00 00 00 	nop 
    3460:	91 d0 20 00 	ta  0
    3464:	01 00 00 00 	nop 
    3468:	01 00 00 00 	nop 
    346c:	01 00 00 00 	nop 
    3470:	91 d0 20 00 	ta  0
    3474:	01 00 00 00 	nop 
    3478:	01 00 00 00 	nop 
    347c:	01 00 00 00 	nop 
    3480:	91 d0 20 00 	ta  0
    3484:	01 00 00 00 	nop 
    3488:	01 00 00 00 	nop 
    348c:	01 00 00 00 	nop 
    3490:	91 d0 20 00 	ta  0
    3494:	01 00 00 00 	nop 
    3498:	01 00 00 00 	nop 
    349c:	01 00 00 00 	nop 
    34a0:	91 d0 20 00 	ta  0
    34a4:	01 00 00 00 	nop 
    34a8:	01 00 00 00 	nop 
    34ac:	01 00 00 00 	nop 
    34b0:	91 d0 20 00 	ta  0
    34b4:	01 00 00 00 	nop 
    34b8:	01 00 00 00 	nop 
    34bc:	01 00 00 00 	nop 
    34c0:	91 d0 20 00 	ta  0
    34c4:	01 00 00 00 	nop 
    34c8:	01 00 00 00 	nop 
    34cc:	01 00 00 00 	nop 
    34d0:	91 d0 20 00 	ta  0
    34d4:	01 00 00 00 	nop 
    34d8:	01 00 00 00 	nop 
    34dc:	01 00 00 00 	nop 
    34e0:	91 d0 20 00 	ta  0
    34e4:	01 00 00 00 	nop 
    34e8:	01 00 00 00 	nop 
    34ec:	01 00 00 00 	nop 
    34f0:	91 d0 20 00 	ta  0
    34f4:	01 00 00 00 	nop 
    34f8:	01 00 00 00 	nop 
    34fc:	01 00 00 00 	nop 
    3500:	91 d0 20 00 	ta  0
    3504:	01 00 00 00 	nop 
    3508:	01 00 00 00 	nop 
    350c:	01 00 00 00 	nop 
    3510:	91 d0 20 00 	ta  0
    3514:	01 00 00 00 	nop 
    3518:	01 00 00 00 	nop 
    351c:	01 00 00 00 	nop 
    3520:	91 d0 20 00 	ta  0
    3524:	01 00 00 00 	nop 
    3528:	01 00 00 00 	nop 
    352c:	01 00 00 00 	nop 
    3530:	91 d0 20 00 	ta  0
    3534:	01 00 00 00 	nop 
    3538:	01 00 00 00 	nop 
    353c:	01 00 00 00 	nop 
    3540:	91 d0 20 00 	ta  0
    3544:	01 00 00 00 	nop 
    3548:	01 00 00 00 	nop 
    354c:	01 00 00 00 	nop 
    3550:	91 d0 20 00 	ta  0
    3554:	01 00 00 00 	nop 
    3558:	01 00 00 00 	nop 
    355c:	01 00 00 00 	nop 
    3560:	91 d0 20 00 	ta  0
    3564:	01 00 00 00 	nop 
    3568:	01 00 00 00 	nop 
    356c:	01 00 00 00 	nop 
    3570:	91 d0 20 00 	ta  0
    3574:	01 00 00 00 	nop 
    3578:	01 00 00 00 	nop 
    357c:	01 00 00 00 	nop 
    3580:	91 d0 20 00 	ta  0
    3584:	01 00 00 00 	nop 
    3588:	01 00 00 00 	nop 
    358c:	01 00 00 00 	nop 
    3590:	91 d0 20 00 	ta  0
    3594:	01 00 00 00 	nop 
    3598:	01 00 00 00 	nop 
    359c:	01 00 00 00 	nop 
    35a0:	91 d0 20 00 	ta  0
    35a4:	01 00 00 00 	nop 
    35a8:	01 00 00 00 	nop 
    35ac:	01 00 00 00 	nop 
    35b0:	91 d0 20 00 	ta  0
    35b4:	01 00 00 00 	nop 
    35b8:	01 00 00 00 	nop 
    35bc:	01 00 00 00 	nop 
    35c0:	91 d0 20 00 	ta  0
    35c4:	01 00 00 00 	nop 
    35c8:	01 00 00 00 	nop 
    35cc:	01 00 00 00 	nop 
    35d0:	91 d0 20 00 	ta  0
    35d4:	01 00 00 00 	nop 
    35d8:	01 00 00 00 	nop 
    35dc:	01 00 00 00 	nop 
    35e0:	91 d0 20 00 	ta  0
    35e4:	01 00 00 00 	nop 
    35e8:	01 00 00 00 	nop 
    35ec:	01 00 00 00 	nop 
    35f0:	91 d0 20 00 	ta  0
    35f4:	01 00 00 00 	nop 
    35f8:	01 00 00 00 	nop 
    35fc:	01 00 00 00 	nop 
    3600:	91 d0 20 00 	ta  0
    3604:	01 00 00 00 	nop 
    3608:	01 00 00 00 	nop 
    360c:	01 00 00 00 	nop 
    3610:	91 d0 20 00 	ta  0
    3614:	01 00 00 00 	nop 
    3618:	01 00 00 00 	nop 
    361c:	01 00 00 00 	nop 
    3620:	91 d0 20 00 	ta  0
    3624:	01 00 00 00 	nop 
    3628:	01 00 00 00 	nop 
    362c:	01 00 00 00 	nop 
    3630:	91 d0 20 00 	ta  0
    3634:	01 00 00 00 	nop 
    3638:	01 00 00 00 	nop 
    363c:	01 00 00 00 	nop 
    3640:	91 d0 20 00 	ta  0
    3644:	01 00 00 00 	nop 
    3648:	01 00 00 00 	nop 
    364c:	01 00 00 00 	nop 
    3650:	91 d0 20 00 	ta  0
    3654:	01 00 00 00 	nop 
    3658:	01 00 00 00 	nop 
    365c:	01 00 00 00 	nop 
    3660:	91 d0 20 00 	ta  0
    3664:	01 00 00 00 	nop 
    3668:	01 00 00 00 	nop 
    366c:	01 00 00 00 	nop 
    3670:	91 d0 20 00 	ta  0
    3674:	01 00 00 00 	nop 
    3678:	01 00 00 00 	nop 
    367c:	01 00 00 00 	nop 
    3680:	91 d0 20 00 	ta  0
    3684:	01 00 00 00 	nop 
    3688:	01 00 00 00 	nop 
    368c:	01 00 00 00 	nop 
    3690:	91 d0 20 00 	ta  0
    3694:	01 00 00 00 	nop 
    3698:	01 00 00 00 	nop 
    369c:	01 00 00 00 	nop 
    36a0:	91 d0 20 00 	ta  0
    36a4:	01 00 00 00 	nop 
    36a8:	01 00 00 00 	nop 
    36ac:	01 00 00 00 	nop 
    36b0:	91 d0 20 00 	ta  0
    36b4:	01 00 00 00 	nop 
    36b8:	01 00 00 00 	nop 
    36bc:	01 00 00 00 	nop 
    36c0:	91 d0 20 00 	ta  0
    36c4:	01 00 00 00 	nop 
    36c8:	01 00 00 00 	nop 
    36cc:	01 00 00 00 	nop 
    36d0:	91 d0 20 00 	ta  0
    36d4:	01 00 00 00 	nop 
    36d8:	01 00 00 00 	nop 
    36dc:	01 00 00 00 	nop 
    36e0:	91 d0 20 00 	ta  0
    36e4:	01 00 00 00 	nop 
    36e8:	01 00 00 00 	nop 
    36ec:	01 00 00 00 	nop 
    36f0:	91 d0 20 00 	ta  0
    36f4:	01 00 00 00 	nop 
    36f8:	01 00 00 00 	nop 
    36fc:	01 00 00 00 	nop 
    3700:	91 d0 20 00 	ta  0
    3704:	01 00 00 00 	nop 
    3708:	01 00 00 00 	nop 
    370c:	01 00 00 00 	nop 
    3710:	91 d0 20 00 	ta  0
    3714:	01 00 00 00 	nop 
    3718:	01 00 00 00 	nop 
    371c:	01 00 00 00 	nop 
    3720:	91 d0 20 00 	ta  0
    3724:	01 00 00 00 	nop 
    3728:	01 00 00 00 	nop 
    372c:	01 00 00 00 	nop 
    3730:	91 d0 20 00 	ta  0
    3734:	01 00 00 00 	nop 
    3738:	01 00 00 00 	nop 
    373c:	01 00 00 00 	nop 
    3740:	91 d0 20 00 	ta  0
    3744:	01 00 00 00 	nop 
    3748:	01 00 00 00 	nop 
    374c:	01 00 00 00 	nop 
    3750:	91 d0 20 00 	ta  0
    3754:	01 00 00 00 	nop 
    3758:	01 00 00 00 	nop 
    375c:	01 00 00 00 	nop 
    3760:	91 d0 20 00 	ta  0
    3764:	01 00 00 00 	nop 
    3768:	01 00 00 00 	nop 
    376c:	01 00 00 00 	nop 
    3770:	91 d0 20 00 	ta  0
    3774:	01 00 00 00 	nop 
    3778:	01 00 00 00 	nop 
    377c:	01 00 00 00 	nop 
    3780:	91 d0 20 00 	ta  0
    3784:	01 00 00 00 	nop 
    3788:	01 00 00 00 	nop 
    378c:	01 00 00 00 	nop 
    3790:	91 d0 20 00 	ta  0
    3794:	01 00 00 00 	nop 
    3798:	01 00 00 00 	nop 
    379c:	01 00 00 00 	nop 
    37a0:	91 d0 20 00 	ta  0
    37a4:	01 00 00 00 	nop 
    37a8:	01 00 00 00 	nop 
    37ac:	01 00 00 00 	nop 
    37b0:	91 d0 20 00 	ta  0
    37b4:	01 00 00 00 	nop 
    37b8:	01 00 00 00 	nop 
    37bc:	01 00 00 00 	nop 
    37c0:	91 d0 20 00 	ta  0
    37c4:	01 00 00 00 	nop 
    37c8:	01 00 00 00 	nop 
    37cc:	01 00 00 00 	nop 
    37d0:	91 d0 20 00 	ta  0
    37d4:	01 00 00 00 	nop 
    37d8:	01 00 00 00 	nop 
    37dc:	01 00 00 00 	nop 
    37e0:	91 d0 20 00 	ta  0
    37e4:	01 00 00 00 	nop 
    37e8:	01 00 00 00 	nop 
    37ec:	01 00 00 00 	nop 
    37f0:	91 d0 20 00 	ta  0
    37f4:	01 00 00 00 	nop 
    37f8:	01 00 00 00 	nop 
    37fc:	01 00 00 00 	nop 
    3800:	91 d0 20 00 	ta  0
    3804:	01 00 00 00 	nop 
    3808:	01 00 00 00 	nop 
    380c:	01 00 00 00 	nop 
    3810:	91 d0 20 00 	ta  0
    3814:	01 00 00 00 	nop 
    3818:	01 00 00 00 	nop 
    381c:	01 00 00 00 	nop 
    3820:	91 d0 20 00 	ta  0
    3824:	01 00 00 00 	nop 
    3828:	01 00 00 00 	nop 
    382c:	01 00 00 00 	nop 
    3830:	91 d0 20 00 	ta  0
    3834:	01 00 00 00 	nop 
    3838:	01 00 00 00 	nop 
    383c:	01 00 00 00 	nop 
    3840:	91 d0 20 00 	ta  0
    3844:	01 00 00 00 	nop 
    3848:	01 00 00 00 	nop 
    384c:	01 00 00 00 	nop 
    3850:	91 d0 20 00 	ta  0
    3854:	01 00 00 00 	nop 
    3858:	01 00 00 00 	nop 
    385c:	01 00 00 00 	nop 
    3860:	91 d0 20 00 	ta  0
    3864:	01 00 00 00 	nop 
    3868:	01 00 00 00 	nop 
    386c:	01 00 00 00 	nop 
    3870:	91 d0 20 00 	ta  0
    3874:	01 00 00 00 	nop 
    3878:	01 00 00 00 	nop 
    387c:	01 00 00 00 	nop 
    3880:	91 d0 20 00 	ta  0
    3884:	01 00 00 00 	nop 
    3888:	01 00 00 00 	nop 
    388c:	01 00 00 00 	nop 
    3890:	91 d0 20 00 	ta  0
    3894:	01 00 00 00 	nop 
    3898:	01 00 00 00 	nop 
    389c:	01 00 00 00 	nop 
    38a0:	91 d0 20 00 	ta  0
    38a4:	01 00 00 00 	nop 
    38a8:	01 00 00 00 	nop 
    38ac:	01 00 00 00 	nop 
    38b0:	91 d0 20 00 	ta  0
    38b4:	01 00 00 00 	nop 
    38b8:	01 00 00 00 	nop 
    38bc:	01 00 00 00 	nop 
    38c0:	91 d0 20 00 	ta  0
    38c4:	01 00 00 00 	nop 
    38c8:	01 00 00 00 	nop 
    38cc:	01 00 00 00 	nop 
    38d0:	91 d0 20 00 	ta  0
    38d4:	01 00 00 00 	nop 
    38d8:	01 00 00 00 	nop 
    38dc:	01 00 00 00 	nop 
    38e0:	91 d0 20 00 	ta  0
    38e4:	01 00 00 00 	nop 
    38e8:	01 00 00 00 	nop 
    38ec:	01 00 00 00 	nop 
    38f0:	91 d0 20 00 	ta  0
    38f4:	01 00 00 00 	nop 
    38f8:	01 00 00 00 	nop 
    38fc:	01 00 00 00 	nop 
    3900:	91 d0 20 00 	ta  0
    3904:	01 00 00 00 	nop 
    3908:	01 00 00 00 	nop 
    390c:	01 00 00 00 	nop 
    3910:	91 d0 20 00 	ta  0
    3914:	01 00 00 00 	nop 
    3918:	01 00 00 00 	nop 
    391c:	01 00 00 00 	nop 
    3920:	91 d0 20 00 	ta  0
    3924:	01 00 00 00 	nop 
    3928:	01 00 00 00 	nop 
    392c:	01 00 00 00 	nop 
    3930:	91 d0 20 00 	ta  0
    3934:	01 00 00 00 	nop 
    3938:	01 00 00 00 	nop 
    393c:	01 00 00 00 	nop 
    3940:	91 d0 20 00 	ta  0
    3944:	01 00 00 00 	nop 
    3948:	01 00 00 00 	nop 
    394c:	01 00 00 00 	nop 
    3950:	91 d0 20 00 	ta  0
    3954:	01 00 00 00 	nop 
    3958:	01 00 00 00 	nop 
    395c:	01 00 00 00 	nop 
    3960:	91 d0 20 00 	ta  0
    3964:	01 00 00 00 	nop 
    3968:	01 00 00 00 	nop 
    396c:	01 00 00 00 	nop 
    3970:	91 d0 20 00 	ta  0
    3974:	01 00 00 00 	nop 
    3978:	01 00 00 00 	nop 
    397c:	01 00 00 00 	nop 
    3980:	91 d0 20 00 	ta  0
    3984:	01 00 00 00 	nop 
    3988:	01 00 00 00 	nop 
    398c:	01 00 00 00 	nop 
    3990:	91 d0 20 00 	ta  0
    3994:	01 00 00 00 	nop 
    3998:	01 00 00 00 	nop 
    399c:	01 00 00 00 	nop 
    39a0:	91 d0 20 00 	ta  0
    39a4:	01 00 00 00 	nop 
    39a8:	01 00 00 00 	nop 
    39ac:	01 00 00 00 	nop 
    39b0:	91 d0 20 00 	ta  0
    39b4:	01 00 00 00 	nop 
    39b8:	01 00 00 00 	nop 
    39bc:	01 00 00 00 	nop 
    39c0:	91 d0 20 00 	ta  0
    39c4:	01 00 00 00 	nop 
    39c8:	01 00 00 00 	nop 
    39cc:	01 00 00 00 	nop 
    39d0:	91 d0 20 00 	ta  0
    39d4:	01 00 00 00 	nop 
    39d8:	01 00 00 00 	nop 
    39dc:	01 00 00 00 	nop 
    39e0:	91 d0 20 00 	ta  0
    39e4:	01 00 00 00 	nop 
    39e8:	01 00 00 00 	nop 
    39ec:	01 00 00 00 	nop 
    39f0:	91 d0 20 00 	ta  0
    39f4:	01 00 00 00 	nop 
    39f8:	01 00 00 00 	nop 
    39fc:	01 00 00 00 	nop 
    3a00:	91 d0 20 00 	ta  0
    3a04:	01 00 00 00 	nop 
    3a08:	01 00 00 00 	nop 
    3a0c:	01 00 00 00 	nop 
    3a10:	91 d0 20 00 	ta  0
    3a14:	01 00 00 00 	nop 
    3a18:	01 00 00 00 	nop 
    3a1c:	01 00 00 00 	nop 
    3a20:	91 d0 20 00 	ta  0
    3a24:	01 00 00 00 	nop 
    3a28:	01 00 00 00 	nop 
    3a2c:	01 00 00 00 	nop 
    3a30:	91 d0 20 00 	ta  0
    3a34:	01 00 00 00 	nop 
    3a38:	01 00 00 00 	nop 
    3a3c:	01 00 00 00 	nop 
    3a40:	91 d0 20 00 	ta  0
    3a44:	01 00 00 00 	nop 
    3a48:	01 00 00 00 	nop 
    3a4c:	01 00 00 00 	nop 
    3a50:	91 d0 20 00 	ta  0
    3a54:	01 00 00 00 	nop 
    3a58:	01 00 00 00 	nop 
    3a5c:	01 00 00 00 	nop 
    3a60:	91 d0 20 00 	ta  0
    3a64:	01 00 00 00 	nop 
    3a68:	01 00 00 00 	nop 
    3a6c:	01 00 00 00 	nop 
    3a70:	91 d0 20 00 	ta  0
    3a74:	01 00 00 00 	nop 
    3a78:	01 00 00 00 	nop 
    3a7c:	01 00 00 00 	nop 
    3a80:	91 d0 20 00 	ta  0
    3a84:	01 00 00 00 	nop 
    3a88:	01 00 00 00 	nop 
    3a8c:	01 00 00 00 	nop 
    3a90:	91 d0 20 00 	ta  0
    3a94:	01 00 00 00 	nop 
    3a98:	01 00 00 00 	nop 
    3a9c:	01 00 00 00 	nop 
    3aa0:	91 d0 20 00 	ta  0
    3aa4:	01 00 00 00 	nop 
    3aa8:	01 00 00 00 	nop 
    3aac:	01 00 00 00 	nop 
    3ab0:	91 d0 20 00 	ta  0
    3ab4:	01 00 00 00 	nop 
    3ab8:	01 00 00 00 	nop 
    3abc:	01 00 00 00 	nop 
    3ac0:	91 d0 20 00 	ta  0
    3ac4:	01 00 00 00 	nop 
    3ac8:	01 00 00 00 	nop 
    3acc:	01 00 00 00 	nop 
    3ad0:	91 d0 20 00 	ta  0
    3ad4:	01 00 00 00 	nop 
    3ad8:	01 00 00 00 	nop 
    3adc:	01 00 00 00 	nop 
    3ae0:	91 d0 20 00 	ta  0
    3ae4:	01 00 00 00 	nop 
    3ae8:	01 00 00 00 	nop 
    3aec:	01 00 00 00 	nop 
    3af0:	91 d0 20 00 	ta  0
    3af4:	01 00 00 00 	nop 
    3af8:	01 00 00 00 	nop 
    3afc:	01 00 00 00 	nop 
    3b00:	91 d0 20 00 	ta  0
    3b04:	01 00 00 00 	nop 
    3b08:	01 00 00 00 	nop 
    3b0c:	01 00 00 00 	nop 
    3b10:	91 d0 20 00 	ta  0
    3b14:	01 00 00 00 	nop 
    3b18:	01 00 00 00 	nop 
    3b1c:	01 00 00 00 	nop 
    3b20:	91 d0 20 00 	ta  0
    3b24:	01 00 00 00 	nop 
    3b28:	01 00 00 00 	nop 
    3b2c:	01 00 00 00 	nop 
    3b30:	91 d0 20 00 	ta  0
    3b34:	01 00 00 00 	nop 
    3b38:	01 00 00 00 	nop 
    3b3c:	01 00 00 00 	nop 
    3b40:	91 d0 20 00 	ta  0
    3b44:	01 00 00 00 	nop 
    3b48:	01 00 00 00 	nop 
    3b4c:	01 00 00 00 	nop 
    3b50:	91 d0 20 00 	ta  0
    3b54:	01 00 00 00 	nop 
    3b58:	01 00 00 00 	nop 
    3b5c:	01 00 00 00 	nop 
    3b60:	91 d0 20 00 	ta  0
    3b64:	01 00 00 00 	nop 
    3b68:	01 00 00 00 	nop 
    3b6c:	01 00 00 00 	nop 
    3b70:	91 d0 20 00 	ta  0
    3b74:	01 00 00 00 	nop 
    3b78:	01 00 00 00 	nop 
    3b7c:	01 00 00 00 	nop 
    3b80:	91 d0 20 00 	ta  0
    3b84:	01 00 00 00 	nop 
    3b88:	01 00 00 00 	nop 
    3b8c:	01 00 00 00 	nop 
    3b90:	91 d0 20 00 	ta  0
    3b94:	01 00 00 00 	nop 
    3b98:	01 00 00 00 	nop 
    3b9c:	01 00 00 00 	nop 
    3ba0:	91 d0 20 00 	ta  0
    3ba4:	01 00 00 00 	nop 
    3ba8:	01 00 00 00 	nop 
    3bac:	01 00 00 00 	nop 
    3bb0:	91 d0 20 00 	ta  0
    3bb4:	01 00 00 00 	nop 
    3bb8:	01 00 00 00 	nop 
    3bbc:	01 00 00 00 	nop 
    3bc0:	91 d0 20 00 	ta  0
    3bc4:	01 00 00 00 	nop 
    3bc8:	01 00 00 00 	nop 
    3bcc:	01 00 00 00 	nop 
    3bd0:	91 d0 20 00 	ta  0
    3bd4:	01 00 00 00 	nop 
    3bd8:	01 00 00 00 	nop 
    3bdc:	01 00 00 00 	nop 
    3be0:	91 d0 20 00 	ta  0
    3be4:	01 00 00 00 	nop 
    3be8:	01 00 00 00 	nop 
    3bec:	01 00 00 00 	nop 
    3bf0:	91 d0 20 00 	ta  0
    3bf4:	01 00 00 00 	nop 
    3bf8:	01 00 00 00 	nop 
    3bfc:	01 00 00 00 	nop 
    3c00:	91 d0 20 00 	ta  0
    3c04:	01 00 00 00 	nop 
    3c08:	01 00 00 00 	nop 
    3c0c:	01 00 00 00 	nop 
    3c10:	91 d0 20 00 	ta  0
    3c14:	01 00 00 00 	nop 
    3c18:	01 00 00 00 	nop 
    3c1c:	01 00 00 00 	nop 
    3c20:	91 d0 20 00 	ta  0
    3c24:	01 00 00 00 	nop 
    3c28:	01 00 00 00 	nop 
    3c2c:	01 00 00 00 	nop 
    3c30:	91 d0 20 00 	ta  0
    3c34:	01 00 00 00 	nop 
    3c38:	01 00 00 00 	nop 
    3c3c:	01 00 00 00 	nop 
    3c40:	91 d0 20 00 	ta  0
    3c44:	01 00 00 00 	nop 
    3c48:	01 00 00 00 	nop 
    3c4c:	01 00 00 00 	nop 
    3c50:	91 d0 20 00 	ta  0
    3c54:	01 00 00 00 	nop 
    3c58:	01 00 00 00 	nop 
    3c5c:	01 00 00 00 	nop 
    3c60:	91 d0 20 00 	ta  0
    3c64:	01 00 00 00 	nop 
    3c68:	01 00 00 00 	nop 
    3c6c:	01 00 00 00 	nop 
    3c70:	91 d0 20 00 	ta  0
    3c74:	01 00 00 00 	nop 
    3c78:	01 00 00 00 	nop 
    3c7c:	01 00 00 00 	nop 
    3c80:	91 d0 20 00 	ta  0
    3c84:	01 00 00 00 	nop 
    3c88:	01 00 00 00 	nop 
    3c8c:	01 00 00 00 	nop 
    3c90:	91 d0 20 00 	ta  0
    3c94:	01 00 00 00 	nop 
    3c98:	01 00 00 00 	nop 
    3c9c:	01 00 00 00 	nop 
    3ca0:	91 d0 20 00 	ta  0
    3ca4:	01 00 00 00 	nop 
    3ca8:	01 00 00 00 	nop 
    3cac:	01 00 00 00 	nop 
    3cb0:	91 d0 20 00 	ta  0
    3cb4:	01 00 00 00 	nop 
    3cb8:	01 00 00 00 	nop 
    3cbc:	01 00 00 00 	nop 
    3cc0:	91 d0 20 00 	ta  0
    3cc4:	01 00 00 00 	nop 
    3cc8:	01 00 00 00 	nop 
    3ccc:	01 00 00 00 	nop 
    3cd0:	91 d0 20 00 	ta  0
    3cd4:	01 00 00 00 	nop 
    3cd8:	01 00 00 00 	nop 
    3cdc:	01 00 00 00 	nop 
    3ce0:	91 d0 20 00 	ta  0
    3ce4:	01 00 00 00 	nop 
    3ce8:	01 00 00 00 	nop 
    3cec:	01 00 00 00 	nop 
    3cf0:	91 d0 20 00 	ta  0
    3cf4:	01 00 00 00 	nop 
    3cf8:	01 00 00 00 	nop 
    3cfc:	01 00 00 00 	nop 
    3d00:	91 d0 20 00 	ta  0
    3d04:	01 00 00 00 	nop 
    3d08:	01 00 00 00 	nop 
    3d0c:	01 00 00 00 	nop 
    3d10:	91 d0 20 00 	ta  0
    3d14:	01 00 00 00 	nop 
    3d18:	01 00 00 00 	nop 
    3d1c:	01 00 00 00 	nop 
    3d20:	91 d0 20 00 	ta  0
    3d24:	01 00 00 00 	nop 
    3d28:	01 00 00 00 	nop 
    3d2c:	01 00 00 00 	nop 
    3d30:	91 d0 20 00 	ta  0
    3d34:	01 00 00 00 	nop 
    3d38:	01 00 00 00 	nop 
    3d3c:	01 00 00 00 	nop 
    3d40:	91 d0 20 00 	ta  0
    3d44:	01 00 00 00 	nop 
    3d48:	01 00 00 00 	nop 
    3d4c:	01 00 00 00 	nop 
    3d50:	91 d0 20 00 	ta  0
    3d54:	01 00 00 00 	nop 
    3d58:	01 00 00 00 	nop 
    3d5c:	01 00 00 00 	nop 
    3d60:	91 d0 20 00 	ta  0
    3d64:	01 00 00 00 	nop 
    3d68:	01 00 00 00 	nop 
    3d6c:	01 00 00 00 	nop 
    3d70:	91 d0 20 00 	ta  0
    3d74:	01 00 00 00 	nop 
    3d78:	01 00 00 00 	nop 
    3d7c:	01 00 00 00 	nop 
    3d80:	91 d0 20 00 	ta  0
    3d84:	01 00 00 00 	nop 
    3d88:	01 00 00 00 	nop 
    3d8c:	01 00 00 00 	nop 
    3d90:	91 d0 20 00 	ta  0
    3d94:	01 00 00 00 	nop 
    3d98:	01 00 00 00 	nop 
    3d9c:	01 00 00 00 	nop 
    3da0:	91 d0 20 00 	ta  0
    3da4:	01 00 00 00 	nop 
    3da8:	01 00 00 00 	nop 
    3dac:	01 00 00 00 	nop 
    3db0:	91 d0 20 00 	ta  0
    3db4:	01 00 00 00 	nop 
    3db8:	01 00 00 00 	nop 
    3dbc:	01 00 00 00 	nop 
    3dc0:	91 d0 20 00 	ta  0
    3dc4:	01 00 00 00 	nop 
    3dc8:	01 00 00 00 	nop 
    3dcc:	01 00 00 00 	nop 
    3dd0:	91 d0 20 00 	ta  0
    3dd4:	01 00 00 00 	nop 
    3dd8:	01 00 00 00 	nop 
    3ddc:	01 00 00 00 	nop 
    3de0:	91 d0 20 00 	ta  0
    3de4:	01 00 00 00 	nop 
    3de8:	01 00 00 00 	nop 
    3dec:	01 00 00 00 	nop 
    3df0:	91 d0 20 00 	ta  0
    3df4:	01 00 00 00 	nop 
    3df8:	01 00 00 00 	nop 
    3dfc:	01 00 00 00 	nop 
    3e00:	91 d0 20 00 	ta  0
    3e04:	01 00 00 00 	nop 
    3e08:	01 00 00 00 	nop 
    3e0c:	01 00 00 00 	nop 
    3e10:	91 d0 20 00 	ta  0
    3e14:	01 00 00 00 	nop 
    3e18:	01 00 00 00 	nop 
    3e1c:	01 00 00 00 	nop 
    3e20:	91 d0 20 00 	ta  0
    3e24:	01 00 00 00 	nop 
    3e28:	01 00 00 00 	nop 
    3e2c:	01 00 00 00 	nop 
    3e30:	91 d0 20 00 	ta  0
    3e34:	01 00 00 00 	nop 
    3e38:	01 00 00 00 	nop 
    3e3c:	01 00 00 00 	nop 
    3e40:	91 d0 20 00 	ta  0
    3e44:	01 00 00 00 	nop 
    3e48:	01 00 00 00 	nop 
    3e4c:	01 00 00 00 	nop 
    3e50:	91 d0 20 00 	ta  0
    3e54:	01 00 00 00 	nop 
    3e58:	01 00 00 00 	nop 
    3e5c:	01 00 00 00 	nop 
    3e60:	91 d0 20 00 	ta  0
    3e64:	01 00 00 00 	nop 
    3e68:	01 00 00 00 	nop 
    3e6c:	01 00 00 00 	nop 
    3e70:	91 d0 20 00 	ta  0
    3e74:	01 00 00 00 	nop 
    3e78:	01 00 00 00 	nop 
    3e7c:	01 00 00 00 	nop 
    3e80:	91 d0 20 00 	ta  0
    3e84:	01 00 00 00 	nop 
    3e88:	01 00 00 00 	nop 
    3e8c:	01 00 00 00 	nop 
    3e90:	91 d0 20 00 	ta  0
    3e94:	01 00 00 00 	nop 
    3e98:	01 00 00 00 	nop 
    3e9c:	01 00 00 00 	nop 
    3ea0:	91 d0 20 00 	ta  0
    3ea4:	01 00 00 00 	nop 
    3ea8:	01 00 00 00 	nop 
    3eac:	01 00 00 00 	nop 
    3eb0:	91 d0 20 00 	ta  0
    3eb4:	01 00 00 00 	nop 
    3eb8:	01 00 00 00 	nop 
    3ebc:	01 00 00 00 	nop 
    3ec0:	91 d0 20 00 	ta  0
    3ec4:	01 00 00 00 	nop 
    3ec8:	01 00 00 00 	nop 
    3ecc:	01 00 00 00 	nop 
    3ed0:	91 d0 20 00 	ta  0
    3ed4:	01 00 00 00 	nop 
    3ed8:	01 00 00 00 	nop 
    3edc:	01 00 00 00 	nop 
    3ee0:	91 d0 20 00 	ta  0
    3ee4:	01 00 00 00 	nop 
    3ee8:	01 00 00 00 	nop 
    3eec:	01 00 00 00 	nop 
    3ef0:	91 d0 20 00 	ta  0
    3ef4:	01 00 00 00 	nop 
    3ef8:	01 00 00 00 	nop 
    3efc:	01 00 00 00 	nop 
    3f00:	91 d0 20 00 	ta  0
    3f04:	01 00 00 00 	nop 
    3f08:	01 00 00 00 	nop 
    3f0c:	01 00 00 00 	nop 
    3f10:	91 d0 20 00 	ta  0
    3f14:	01 00 00 00 	nop 
    3f18:	01 00 00 00 	nop 
    3f1c:	01 00 00 00 	nop 
    3f20:	91 d0 20 00 	ta  0
    3f24:	01 00 00 00 	nop 
    3f28:	01 00 00 00 	nop 
    3f2c:	01 00 00 00 	nop 
    3f30:	91 d0 20 00 	ta  0
    3f34:	01 00 00 00 	nop 
    3f38:	01 00 00 00 	nop 
    3f3c:	01 00 00 00 	nop 
    3f40:	91 d0 20 00 	ta  0
    3f44:	01 00 00 00 	nop 
    3f48:	01 00 00 00 	nop 
    3f4c:	01 00 00 00 	nop 
    3f50:	91 d0 20 00 	ta  0
    3f54:	01 00 00 00 	nop 
    3f58:	01 00 00 00 	nop 
    3f5c:	01 00 00 00 	nop 
    3f60:	91 d0 20 00 	ta  0
    3f64:	01 00 00 00 	nop 
    3f68:	01 00 00 00 	nop 
    3f6c:	01 00 00 00 	nop 
    3f70:	91 d0 20 00 	ta  0
    3f74:	01 00 00 00 	nop 
    3f78:	01 00 00 00 	nop 
    3f7c:	01 00 00 00 	nop 
    3f80:	91 d0 20 00 	ta  0
    3f84:	01 00 00 00 	nop 
    3f88:	01 00 00 00 	nop 
    3f8c:	01 00 00 00 	nop 
    3f90:	91 d0 20 00 	ta  0
    3f94:	01 00 00 00 	nop 
    3f98:	01 00 00 00 	nop 
    3f9c:	01 00 00 00 	nop 
    3fa0:	91 d0 20 00 	ta  0
    3fa4:	01 00 00 00 	nop 
    3fa8:	01 00 00 00 	nop 
    3fac:	01 00 00 00 	nop 
    3fb0:	91 d0 20 00 	ta  0
    3fb4:	01 00 00 00 	nop 
    3fb8:	01 00 00 00 	nop 
    3fbc:	01 00 00 00 	nop 
    3fc0:	91 d0 20 00 	ta  0
    3fc4:	01 00 00 00 	nop 
    3fc8:	01 00 00 00 	nop 
    3fcc:	01 00 00 00 	nop 
    3fd0:	91 d0 20 00 	ta  0
    3fd4:	01 00 00 00 	nop 
    3fd8:	01 00 00 00 	nop 
    3fdc:	01 00 00 00 	nop 
    3fe0:	91 d0 20 00 	ta  0
    3fe4:	01 00 00 00 	nop 
    3fe8:	01 00 00 00 	nop 
    3fec:	01 00 00 00 	nop 
    3ff0:	91 d0 20 00 	ta  0
    3ff4:	01 00 00 00 	nop 
    3ff8:	01 00 00 00 	nop 
    3ffc:	01 00 00 00 	nop 
    4000:	91 d0 20 00 	ta  0
    4004:	01 00 00 00 	nop 
    4008:	01 00 00 00 	nop 
    400c:	01 00 00 00 	nop 
    4010:	91 d0 20 00 	ta  0
    4014:	01 00 00 00 	nop 
    4018:	01 00 00 00 	nop 
    401c:	01 00 00 00 	nop 
    4020:	91 d0 20 00 	ta  0
    4024:	01 00 00 00 	nop 
    4028:	01 00 00 00 	nop 
    402c:	01 00 00 00 	nop 
    4030:	91 d0 20 00 	ta  0
    4034:	01 00 00 00 	nop 
    4038:	01 00 00 00 	nop 
    403c:	01 00 00 00 	nop 
    4040:	91 d0 20 00 	ta  0
    4044:	01 00 00 00 	nop 
    4048:	01 00 00 00 	nop 
    404c:	01 00 00 00 	nop 
    4050:	91 d0 20 00 	ta  0
    4054:	01 00 00 00 	nop 
    4058:	01 00 00 00 	nop 
    405c:	01 00 00 00 	nop 
    4060:	91 d0 20 00 	ta  0
    4064:	01 00 00 00 	nop 
    4068:	01 00 00 00 	nop 
    406c:	01 00 00 00 	nop 
    4070:	91 d0 20 00 	ta  0
    4074:	01 00 00 00 	nop 
    4078:	01 00 00 00 	nop 
    407c:	01 00 00 00 	nop 
    4080:	91 d0 20 00 	ta  0
    4084:	01 00 00 00 	nop 
    4088:	01 00 00 00 	nop 
    408c:	01 00 00 00 	nop 
    4090:	01 00 00 00 	nop 
    4094:	01 00 00 00 	nop 
    4098:	01 00 00 00 	nop 
    409c:	01 00 00 00 	nop 
    40a0:	82 10 3f ff 	mov  -1, %g1	! ffffffff <MMAP_SEGMENT_1+0xffffa09f>
    40a4:	81 c3 e0 08 	retl 
    40a8:	c2 22 20 28 	st  %g1, [ %o0 + 0x28 ]
    40ac:	c2 02 20 28 	ld  [ %o0 + 0x28 ], %g1
    40b0:	82 38 00 01 	xnor  %g0, %g1, %g1
    40b4:	80 a0 00 01 	cmp  %g0, %g1
    40b8:	81 c3 e0 08 	retl 
    40bc:	90 60 3f ff 	subx  %g0, -1, %o0
    40c0:	c2 02 20 28 	ld  [ %o0 + 0x28 ], %g1
    40c4:	82 18 60 09 	xor  %g1, 9, %g1
    40c8:	80 a0 00 01 	cmp  %g0, %g1
    40cc:	81 c3 e0 08 	retl 
    40d0:	90 60 3f ff 	subx  %g0, -1, %o0
    40d4:	81 c3 e0 08 	retl 
    40d8:	d0 02 20 28 	ld  [ %o0 + 0x28 ], %o0
    40dc:	9d e3 bf a0 	save  %sp, -96, %sp
    40e0:	c4 06 20 28 	ld  [ %i0 + 0x28 ], %g2
    40e4:	80 a0 bf ff 	cmp  %g2, -1
    40e8:	02 80 00 08 	be  4108 <MMAP_SEGMENT_0+0x4068>
    40ec:	82 10 00 18 	mov  %i0, %g1
    40f0:	87 28 a0 02 	sll  %g2, 2, %g3
    40f4:	84 00 bf ff 	add  %g2, -1, %g2
    40f8:	f0 06 00 03 	ld  [ %i0 + %g3 ], %i0
    40fc:	c4 20 60 28 	st  %g2, [ %g1 + 0x28 ]
    4100:	81 c7 e0 08 	ret 
    4104:	81 e8 00 00 	restore 
    4108:	11 20 00 00 	sethi  %hi(0x80000000), %o0
    410c:	b0 10 3f ff 	mov  -1, %i0
    4110:	40 00 04 ba 	call  53f8 <MMAP_SEGMENT_0+0x5358>
    4114:	90 12 20 00 	mov  %o0, %o0
    4118:	81 c7 e0 08 	ret 
    411c:	81 e8 00 00 	restore 
    4120:	c2 02 20 28 	ld  [ %o0 + 0x28 ], %g1
    4124:	80 a0 60 09 	cmp  %g1, 9
    4128:	02 80 00 06 	be  4140 <MMAP_SEGMENT_0+0x40a0>
    412c:	82 00 60 01 	inc  %g1
    4130:	85 28 60 02 	sll  %g1, 2, %g2
    4134:	c2 22 20 28 	st  %g1, [ %o0 + 0x28 ]
    4138:	81 c3 e0 08 	retl 
    413c:	d2 22 00 02 	st  %o1, [ %o0 + %g2 ]
    4140:	11 20 00 00 	sethi  %hi(0x80000000), %o0
    4144:	90 12 20 30 	or  %o0, 0x30, %o0	! 80000030 <MMAP_SEGMENT_1+0x7fffa0d0>
    4148:	82 13 c0 00 	mov  %o7, %g1
    414c:	40 00 04 ab 	call  53f8 <MMAP_SEGMENT_0+0x5358>
    4150:	9e 10 40 00 	mov  %g1, %o7
    4154:	9d e3 bf a0 	save  %sp, -96, %sp
    4158:	c2 06 20 28 	ld  [ %i0 + 0x28 ], %g1
    415c:	80 a0 7f ff 	cmp  %g1, -1
    4160:	02 80 00 15 	be  41b4 <MMAP_SEGMENT_0+0x4114>
    4164:	11 20 00 00 	sethi  %hi(0x80000000), %o0
    4168:	40 00 04 a4 	call  53f8 <MMAP_SEGMENT_0+0x5358>
    416c:	90 12 20 68 	or  %o0, 0x68, %o0	! 80000068 <MMAP_SEGMENT_1+0x7fffa108>
    4170:	39 20 00 00 	sethi  %hi(0x80000000), %i4
    4174:	fa 06 20 28 	ld  [ %i0 + 0x28 ], %i5
    4178:	b8 17 20 88 	or  %i4, 0x88, %i4
    417c:	83 2f 60 02 	sll  %i5, 2, %g1
    4180:	80 a7 60 00 	cmp  %i5, 0
    4184:	06 80 00 09 	bl  41a8 <MMAP_SEGMENT_0+0x4108>
    4188:	b0 06 00 01 	add  %i0, %g1, %i0
    418c:	d2 06 00 00 	ld  [ %i0 ], %o1
    4190:	40 00 04 9a 	call  53f8 <MMAP_SEGMENT_0+0x5358>
    4194:	90 10 00 1c 	mov  %i4, %o0
    4198:	ba 07 7f ff 	add  %i5, -1, %i5
    419c:	80 a7 7f ff 	cmp  %i5, -1
    41a0:	12 bf ff fb 	bne  418c <MMAP_SEGMENT_0+0x40ec>
    41a4:	b0 06 3f fc 	add  %i0, -4, %i0
    41a8:	31 20 00 00 	sethi  %hi(0x80000000), %i0
    41ac:	40 00 04 93 	call  53f8 <MMAP_SEGMENT_0+0x5358>
    41b0:	91 ee 21 38 	restore  %i0, 0x138, %o0
    41b4:	31 20 00 00 	sethi  %hi(0x80000000), %i0
    41b8:	40 00 04 90 	call  53f8 <MMAP_SEGMENT_0+0x5358>
    41bc:	91 ee 20 58 	restore  %i0, 0x58, %o0
    41c0:	82 10 00 00 	mov  %g0, %g1
    41c4:	84 10 00 00 	mov  %g0, %g2
    41c8:	86 10 00 00 	mov  %g0, %g3
    41cc:	88 10 00 00 	mov  %g0, %g4
    41d0:	8a 10 00 00 	mov  %g0, %g5
    41d4:	8c 10 00 00 	mov  %g0, %g6
    41d8:	8e 10 00 00 	mov  %g0, %g7
    41dc:	b0 10 00 00 	mov  %g0, %i0
    41e0:	b2 10 00 00 	mov  %g0, %i1
    41e4:	b4 10 00 00 	mov  %g0, %i2
    41e8:	b6 10 00 00 	mov  %g0, %i3
    41ec:	b8 10 00 00 	mov  %g0, %i4
    41f0:	ba 10 00 00 	mov  %g0, %i5
    41f4:	bc 10 00 00 	mov  %g0, %fp
    41f8:	be 10 00 00 	mov  %g0, %i7
    41fc:	a0 10 00 00 	mov  %g0, %l0
    4200:	a2 10 00 00 	mov  %g0, %l1
    4204:	a4 10 00 00 	mov  %g0, %l2
    4208:	a6 10 00 00 	mov  %g0, %l3
    420c:	a8 10 00 00 	mov  %g0, %l4
    4210:	aa 10 00 00 	mov  %g0, %l5
    4214:	ac 10 00 00 	mov  %g0, %l6
    4218:	ae 10 00 00 	mov  %g0, %l7
    421c:	90 10 00 00 	mov  %g0, %o0
    4220:	92 10 00 00 	mov  %g0, %o1
    4224:	94 10 00 00 	mov  %g0, %o2
    4228:	96 10 00 00 	mov  %g0, %o3
    422c:	98 10 00 00 	mov  %g0, %o4
    4230:	9a 10 00 00 	mov  %g0, %o5
    4234:	9c 10 00 00 	mov  %g0, %sp
    4238:	9e 10 00 00 	mov  %g0, %o7
    423c:	82 10 20 07 	mov  7, %g1
    4240:	81 e0 00 00 	save 
    4244:	a0 10 00 00 	mov  %g0, %l0
    4248:	a2 10 00 00 	mov  %g0, %l1
    424c:	a4 10 00 00 	mov  %g0, %l2
    4250:	a6 10 00 00 	mov  %g0, %l3
    4254:	a8 10 00 00 	mov  %g0, %l4
    4258:	aa 10 00 00 	mov  %g0, %l5
    425c:	ac 10 00 00 	mov  %g0, %l6
    4260:	ae 10 00 00 	mov  %g0, %l7
    4264:	90 10 00 00 	mov  %g0, %o0
    4268:	92 10 00 00 	mov  %g0, %o1
    426c:	94 10 00 00 	mov  %g0, %o2
    4270:	96 10 00 00 	mov  %g0, %o3
    4274:	98 10 00 00 	mov  %g0, %o4
    4278:	9a 10 00 00 	mov  %g0, %o5
    427c:	9c 10 00 00 	mov  %g0, %sp
    4280:	9e 10 00 00 	mov  %g0, %o7
    4284:	82 80 7f ff 	addcc  %g1, -1, %g1
    4288:	12 bf ff ee 	bne  4240 <MMAP_SEGMENT_0+0x41a0>
    428c:	01 00 00 00 	nop 
    4290:	82 10 20 07 	mov  7, %g1	! 7 <_start+0x7>
    4294:	81 e8 00 00 	restore 
    4298:	82 80 7f ff 	addcc  %g1, -1, %g1
    429c:	12 bf ff fe 	bne  4294 <MMAP_SEGMENT_0+0x41f4>
    42a0:	01 00 00 00 	nop 
    42a4:	81 c3 e0 08 	retl 
    42a8:	01 00 00 00 	nop 
    42ac:	91 47 80 00 	rd  %asr30, %o0
    42b0:	81 c3 e0 08 	retl 
    42b4:	01 00 00 00 	nop 
    42b8:	91 47 c0 00 	rd  %asr31, %o0
    42bc:	81 c3 e0 08 	retl 
    42c0:	01 00 00 00 	nop 
    42c4:	99 47 c0 00 	rd  %asr31, %o4
    42c8:	83 47 80 00 	rd  %asr30, %g1
    42cc:	86 10 20 00 	clr  %g3
    42d0:	9a 10 00 0c 	mov  %o4, %o5
    42d4:	98 10 20 00 	clr  %o4
    42d8:	86 10 c0 0d 	or  %g3, %o5, %g3
    42dc:	84 10 40 0c 	or  %g1, %o4, %g2
    42e0:	92 10 00 03 	mov  %g3, %o1
    42e4:	81 c3 e0 08 	retl 
    42e8:	90 10 00 02 	mov  %g2, %o0
    42ec:	80 a0 00 08 	cmp  %g0, %o0
    42f0:	84 10 20 00 	clr  %g2
    42f4:	82 40 20 00 	addx  %g0, 0, %g1
    42f8:	83 28 60 08 	sll  %g1, 8, %g1
    42fc:	c2 a0 80 80 	sta  %g1, [ %g2 ] #ASI_N
    4300:	81 c3 e0 08 	retl 
    4304:	01 00 00 00 	nop 
    4308:	d0 a2 40 80 	sta  %o0, [ %o1 ] #ASI_N
    430c:	81 c3 e0 08 	retl 
    4310:	01 00 00 00 	nop 
    4314:	d0 a2 44 00 	sta  %o0, [ %o1 ] #ASI_SCRATCHPAD
    4318:	81 c3 e0 08 	retl 
    431c:	01 00 00 00 	nop 
    4320:	d0 82 00 80 	lda  [ %o0 ] #ASI_N, %o0
    4324:	81 c3 e0 08 	retl 
    4328:	01 00 00 00 	nop 
    432c:	d0 82 04 00 	lda  [ %o0 ] #ASI_SCRATCHPAD, %o0
    4330:	81 c3 e0 08 	retl 
    4334:	01 00 00 00 	nop 
    4338:	82 10 20 00 	clr  %g1	! 0 <_start>
    433c:	c2 80 40 80 	lda  [ %g1 ] #ASI_N, %g1
    4340:	84 10 20 00 	clr  %g2
    4344:	82 10 60 01 	or  %g1, 1, %g1
    4348:	c2 a0 80 80 	sta  %g1, [ %g2 ] #ASI_N
    434c:	81 c3 e0 08 	retl 
    4350:	01 00 00 00 	nop 
    4354:	82 10 20 00 	clr  %g1	! 0 <_start>
    4358:	c2 80 40 80 	lda  [ %g1 ] #ASI_N, %g1
    435c:	84 10 20 00 	clr  %g2
    4360:	82 08 7f fe 	and  %g1, -2, %g1
    4364:	c2 a0 80 80 	sta  %g1, [ %g2 ] #ASI_N
    4368:	81 c3 e0 08 	retl 
    436c:	01 00 00 00 	nop 
    4370:	d0 a2 40 60 	sta  %o0, [ %o1 ] (3)
    4374:	81 c3 e0 08 	retl 
    4378:	01 00 00 00 	nop 
    437c:	d0 82 00 60 	lda  [ %o0 ] (3), %o0
    4380:	81 c3 e0 08 	retl 
    4384:	01 00 00 00 	nop 
    4388:	a0 10 00 08 	mov  %o0, %l0
    438c:	c0 a0 02 60 	sta  %g0, [ %g0 ] (19)
    4390:	81 d8 20 00 	flush  %g0
    4394:	c0 a0 00 60 	sta  %g0, [ %g0 ] (3)
    4398:	82 10 22 00 	mov  0x200, %g1
    439c:	e0 a0 40 80 	sta  %l0, [ %g1 ] #ASI_N
    43a0:	c0 a0 02 60 	sta  %g0, [ %g0 ] (19)
    43a4:	81 d8 20 00 	flush  %g0
    43a8:	c0 a0 00 60 	sta  %g0, [ %g0 ] (3)
    43ac:	81 c3 e0 08 	retl 
    43b0:	01 00 00 00 	nop 
    43b4:	81 c3 e0 08 	retl 
    43b8:	91 32 20 18 	srl  %o0, 0x18, %o0
    43bc:	91 32 20 12 	srl  %o0, 0x12, %o0
    43c0:	81 c3 e0 08 	retl 
    43c4:	90 0a 20 1f 	and  %o0, 0x1f, %o0
    43c8:	91 32 20 0c 	srl  %o0, 0xc, %o0
    43cc:	81 c3 e0 08 	retl 
    43d0:	90 0a 20 1f 	and  %o0, 0x1f, %o0
    43d4:	95 2a a0 06 	sll  %o2, 6, %o2
    43d8:	97 2a e0 05 	sll  %o3, 5, %o3
    43dc:	99 2b 20 02 	sll  %o4, 2, %o4
    43e0:	93 2a 60 07 	sll  %o1, 7, %o1
    43e4:	91 2a 20 08 	sll  %o0, 8, %o0
    43e8:	92 12 60 02 	or  %o1, 2, %o1
    43ec:	92 12 40 0a 	or  %o1, %o2, %o1
    43f0:	92 12 40 0b 	or  %o1, %o3, %o1
    43f4:	92 12 40 0c 	or  %o1, %o4, %o1
    43f8:	81 c3 e0 08 	retl 
    43fc:	90 12 40 08 	or  %o1, %o0, %o0
    4400:	91 2a 20 02 	sll  %o0, 2, %o0
    4404:	81 c3 e0 08 	retl 
    4408:	90 12 20 01 	or  %o0, 1, %o0
    440c:	81 d8 20 00 	flush  %g0
    4410:	81 c3 e0 08 	retl 
    4414:	01 00 00 00 	nop 
    4418:	c0 a0 02 60 	sta  %g0, [ %g0 ] (19)
    441c:	81 c3 e0 08 	retl 
    4420:	01 00 00 00 	nop 
    4424:	03 3f ff cc 	sethi  %hi(0xffff3000), %g1
    4428:	82 10 61 00 	or  %g1, 0x100, %g1	! ffff3100 <MMAP_SEGMENT_1+0xfffed1a0>
    442c:	d0 a0 44 00 	sta  %o0, [ %g1 ] #ASI_SCRATCHPAD
    4430:	81 c3 e0 08 	retl 
    4434:	01 00 00 00 	nop 
    4438:	11 3f ff cc 	sethi  %hi(0xffff3000), %o0
    443c:	90 12 21 00 	or  %o0, 0x100, %o0	! ffff3100 <MMAP_SEGMENT_1+0xfffed1a0>
    4440:	d0 82 04 00 	lda  [ %o0 ] #ASI_SCRATCHPAD, %o0
    4444:	81 c3 e0 08 	retl 
    4448:	01 00 00 00 	nop 
    444c:	03 3f ff cc 	sethi  %hi(0xffff3000), %g1
    4450:	82 10 61 00 	or  %g1, 0x100, %g1	! ffff3100 <MMAP_SEGMENT_1+0xfffed1a0>
    4454:	81 c3 e0 08 	retl 
    4458:	d0 20 40 00 	st  %o0, [ %g1 ]
    445c:	03 3f ff cc 	sethi  %hi(0xffff3000), %g1
    4460:	82 10 61 00 	or  %g1, 0x100, %g1	! ffff3100 <MMAP_SEGMENT_1+0xfffed1a0>
    4464:	81 c3 e0 08 	retl 
    4468:	d0 00 40 00 	ld  [ %g1 ], %o0
    446c:	03 3f ff cc 	sethi  %hi(0xffff3000), %g1
    4470:	82 10 62 00 	or  %g1, 0x200, %g1	! ffff3200 <MMAP_SEGMENT_1+0xfffed2a0>
    4474:	d0 a0 44 00 	sta  %o0, [ %g1 ] #ASI_SCRATCHPAD
    4478:	81 c3 e0 08 	retl 
    447c:	01 00 00 00 	nop 
    4480:	05 3f ff cc 	sethi  %hi(0xffff3000), %g2
    4484:	84 10 a2 00 	or  %g2, 0x200, %g2	! ffff3200 <MMAP_SEGMENT_1+0xfffed2a0>
    4488:	c4 80 84 00 	lda  [ %g2 ] #ASI_SCRATCHPAD, %g2
    448c:	80 a2 20 00 	cmp  %o0, 0
    4490:	02 80 00 03 	be  449c <MMAP_SEGMENT_0+0x43fc>
    4494:	82 08 bf fe 	and  %g2, -2, %g1
    4498:	82 10 a0 01 	or  %g2, 1, %g1
    449c:	80 a2 60 00 	cmp  %o1, 0
    44a0:	02 80 00 03 	be  44ac <MMAP_SEGMENT_0+0x440c>
    44a4:	84 08 7f fd 	and  %g1, -3, %g2
    44a8:	84 10 60 02 	or  %g1, 2, %g2
    44ac:	80 a2 a0 00 	cmp  %o2, 0
    44b0:	02 80 00 03 	be  44bc <MMAP_SEGMENT_0+0x441c>
    44b4:	82 08 bf fb 	and  %g2, -5, %g1
    44b8:	82 10 a0 04 	or  %g2, 4, %g1
    44bc:	05 3f ff cc 	sethi  %hi(0xffff3000), %g2
    44c0:	84 10 a2 00 	or  %g2, 0x200, %g2	! ffff3200 <MMAP_SEGMENT_1+0xfffed2a0>
    44c4:	c2 a0 84 00 	sta  %g1, [ %g2 ] #ASI_SCRATCHPAD
    44c8:	81 c3 e0 08 	retl 
    44cc:	01 00 00 00 	nop 
    44d0:	91 2a 20 04 	sll  %o0, 4, %o0
    44d4:	80 a2 00 09 	cmp  %o0, %o1
    44d8:	1a 80 00 25 	bcc  456c <MMAP_SEGMENT_0+0x44cc>
    44dc:	80 a2 20 00 	cmp  %o0, 0
    44e0:	02 80 00 23 	be  456c <MMAP_SEGMENT_0+0x44cc>
    44e4:	84 10 00 09 	mov  %o1, %g2
    44e8:	10 80 00 03 	b  44f4 <MMAP_SEGMENT_0+0x4454>
    44ec:	82 10 00 08 	mov  %o0, %g1
    44f0:	82 10 00 03 	mov  %g3, %g1
    44f4:	81 80 20 00 	mov  %g0, %y
    44f8:	01 00 00 00 	nop 
    44fc:	01 00 00 00 	nop 
    4500:	01 00 00 00 	nop 
    4504:	86 70 80 01 	udiv  %g2, %g1, %g3
    4508:	86 58 c0 01 	smul  %g3, %g1, %g3
    450c:	86 20 80 03 	sub  %g2, %g3, %g3
    4510:	80 a0 e0 00 	cmp  %g3, 0
    4514:	12 bf ff f7 	bne  44f0 <MMAP_SEGMENT_0+0x4450>
    4518:	84 10 00 01 	mov  %g1, %g2
    451c:	81 80 20 00 	mov  %g0, %y
    4520:	01 00 00 00 	nop 
    4524:	01 00 00 00 	nop 
    4528:	01 00 00 00 	nop 
    452c:	84 72 00 01 	udiv  %o0, %g1, %g2
    4530:	81 80 20 00 	mov  %g0, %y
    4534:	01 00 00 00 	nop 
    4538:	01 00 00 00 	nop 
    453c:	01 00 00 00 	nop 
    4540:	86 72 40 01 	udiv  %o1, %g1, %g3
    4544:	03 00 00 3f 	sethi  %hi(0xfc00), %g1
    4548:	86 20 c0 02 	sub  %g3, %g2, %g3
    454c:	82 10 63 ff 	or  %g1, 0x3ff, %g1
    4550:	82 08 c0 01 	and  %g3, %g1, %g1
    4554:	83 28 60 0c 	sll  %g1, 0xc, %g1
    4558:	84 08 af ff 	and  %g2, 0xfff, %g2
    455c:	84 10 40 02 	or  %g1, %g2, %g2
    4560:	03 3f ff cc 	sethi  %hi(0xffff3000), %g1
    4564:	82 10 62 30 	or  %g1, 0x230, %g1	! ffff3230 <MMAP_SEGMENT_1+0xfffed2d0>
    4568:	c4 a0 44 00 	sta  %g2, [ %g1 ] #ASI_SCRATCHPAD
    456c:	81 c3 e0 08 	retl 
    4570:	01 00 00 00 	nop 
    4574:	91 2a 20 04 	sll  %o0, 4, %o0
    4578:	80 a2 00 09 	cmp  %o0, %o1
    457c:	1a 80 00 25 	bcc  4610 <MMAP_SEGMENT_0+0x4570>
    4580:	80 a2 20 00 	cmp  %o0, 0
    4584:	02 80 00 23 	be  4610 <MMAP_SEGMENT_0+0x4570>
    4588:	84 10 00 09 	mov  %o1, %g2
    458c:	10 80 00 03 	b  4598 <MMAP_SEGMENT_0+0x44f8>
    4590:	82 10 00 08 	mov  %o0, %g1
    4594:	82 10 00 03 	mov  %g3, %g1
    4598:	81 80 20 00 	mov  %g0, %y
    459c:	01 00 00 00 	nop 
    45a0:	01 00 00 00 	nop 
    45a4:	01 00 00 00 	nop 
    45a8:	86 70 80 01 	udiv  %g2, %g1, %g3
    45ac:	86 58 c0 01 	smul  %g3, %g1, %g3
    45b0:	86 20 80 03 	sub  %g2, %g3, %g3
    45b4:	80 a0 e0 00 	cmp  %g3, 0
    45b8:	12 bf ff f7 	bne  4594 <MMAP_SEGMENT_0+0x44f4>
    45bc:	84 10 00 01 	mov  %g1, %g2
    45c0:	81 80 20 00 	mov  %g0, %y
    45c4:	01 00 00 00 	nop 
    45c8:	01 00 00 00 	nop 
    45cc:	01 00 00 00 	nop 
    45d0:	84 72 00 01 	udiv  %o0, %g1, %g2
    45d4:	81 80 20 00 	mov  %g0, %y
    45d8:	01 00 00 00 	nop 
    45dc:	01 00 00 00 	nop 
    45e0:	01 00 00 00 	nop 
    45e4:	86 72 40 01 	udiv  %o1, %g1, %g3
    45e8:	03 00 00 3f 	sethi  %hi(0xfc00), %g1
    45ec:	86 20 c0 02 	sub  %g3, %g2, %g3
    45f0:	82 10 63 ff 	or  %g1, 0x3ff, %g1
    45f4:	82 08 c0 01 	and  %g3, %g1, %g1
    45f8:	83 28 60 0c 	sll  %g1, 0xc, %g1
    45fc:	84 08 af ff 	and  %g2, 0xfff, %g2
    4600:	84 10 40 02 	or  %g1, %g2, %g2
    4604:	03 3f ff cc 	sethi  %hi(0xffff3000), %g1
    4608:	82 10 62 30 	or  %g1, 0x230, %g1	! ffff3230 <MMAP_SEGMENT_1+0xfffed2d0>
    460c:	c4 20 40 00 	st  %g2, [ %g1 ]
    4610:	81 c3 e0 08 	retl 
    4614:	01 00 00 00 	nop 
    4618:	93 2a 60 04 	sll  %o1, 4, %o1
    461c:	80 a2 40 0a 	cmp  %o1, %o2
    4620:	1a 80 00 27 	bcc  46bc <MMAP_SEGMENT_0+0x461c>
    4624:	80 a2 60 00 	cmp  %o1, 0
    4628:	02 80 00 25 	be  46bc <MMAP_SEGMENT_0+0x461c>
    462c:	84 10 00 0a 	mov  %o2, %g2
    4630:	10 80 00 03 	b  463c <MMAP_SEGMENT_0+0x459c>
    4634:	82 10 00 09 	mov  %o1, %g1
    4638:	82 10 00 03 	mov  %g3, %g1
    463c:	81 80 20 00 	mov  %g0, %y
    4640:	01 00 00 00 	nop 
    4644:	01 00 00 00 	nop 
    4648:	01 00 00 00 	nop 
    464c:	86 70 80 01 	udiv  %g2, %g1, %g3
    4650:	86 58 c0 01 	smul  %g3, %g1, %g3
    4654:	86 20 80 03 	sub  %g2, %g3, %g3
    4658:	80 a0 e0 00 	cmp  %g3, 0
    465c:	12 bf ff f7 	bne  4638 <MMAP_SEGMENT_0+0x4598>
    4660:	84 10 00 01 	mov  %g1, %g2
    4664:	81 80 20 00 	mov  %g0, %y
    4668:	01 00 00 00 	nop 
    466c:	01 00 00 00 	nop 
    4670:	01 00 00 00 	nop 
    4674:	84 72 40 01 	udiv  %o1, %g1, %g2
    4678:	81 80 20 00 	mov  %g0, %y
    467c:	01 00 00 00 	nop 
    4680:	01 00 00 00 	nop 
    4684:	01 00 00 00 	nop 
    4688:	86 72 80 01 	udiv  %o2, %g1, %g3
    468c:	03 00 00 3f 	sethi  %hi(0xfc00), %g1
    4690:	86 20 c0 02 	sub  %g3, %g2, %g3
    4694:	82 10 63 ff 	or  %g1, 0x3ff, %g1
    4698:	82 08 c0 01 	and  %g3, %g1, %g1
    469c:	83 28 60 0c 	sll  %g1, 0xc, %g1
    46a0:	84 08 af ff 	and  %g2, 0xfff, %g2
    46a4:	80 a2 20 00 	cmp  %o0, 0
    46a8:	84 10 40 02 	or  %g1, %g2, %g2
    46ac:	03 3f ff cc 	sethi  %hi(0xffff3000), %g1
    46b0:	12 80 00 05 	bne  46c4 <MMAP_SEGMENT_0+0x4624>
    46b4:	82 10 62 30 	or  %g1, 0x230, %g1	! ffff3230 <MMAP_SEGMENT_1+0xfffed2d0>
    46b8:	c4 a0 44 00 	sta  %g2, [ %g1 ] #ASI_SCRATCHPAD
    46bc:	81 c3 e0 08 	retl 
    46c0:	01 00 00 00 	nop 
    46c4:	81 c3 e0 08 	retl 
    46c8:	c4 20 40 00 	st  %g2, [ %g1 ]
    46cc:	11 3f ff cc 	sethi  %hi(0xffff3000), %o0
    46d0:	90 12 22 00 	or  %o0, 0x200, %o0	! ffff3200 <MMAP_SEGMENT_1+0xfffed2a0>
    46d4:	d0 82 04 00 	lda  [ %o0 ] #ASI_SCRATCHPAD, %o0
    46d8:	81 c3 e0 08 	retl 
    46dc:	01 00 00 00 	nop 
    46e0:	03 3f ff cc 	sethi  %hi(0xffff3000), %g1
    46e4:	82 10 62 10 	or  %g1, 0x210, %g1	! ffff3210 <MMAP_SEGMENT_1+0xfffed2b0>
    46e8:	d0 a8 44 00 	stba  %o0, [ %g1 ] #ASI_SCRATCHPAD
    46ec:	81 c3 e0 08 	retl 
    46f0:	01 00 00 00 	nop 
    46f4:	11 3f ff cc 	sethi  %hi(0xffff3000), %o0
    46f8:	90 12 22 10 	or  %o0, 0x210, %o0	! ffff3210 <MMAP_SEGMENT_1+0xfffed2b0>
    46fc:	d0 8a 04 00 	lduba  [ %o0 ] #ASI_SCRATCHPAD, %o0
    4700:	81 c3 e0 08 	retl 
    4704:	90 0a 20 ff 	and  %o0, 0xff, %o0
    4708:	11 3f ff cc 	sethi  %hi(0xffff3000), %o0
    470c:	90 12 22 20 	or  %o0, 0x220, %o0	! ffff3220 <MMAP_SEGMENT_1+0xfffed2c0>
    4710:	d0 8a 04 00 	lduba  [ %o0 ] #ASI_SCRATCHPAD, %o0
    4714:	81 c3 e0 08 	retl 
    4718:	90 0a 20 ff 	and  %o0, 0xff, %o0
    471c:	05 3f ff cc 	sethi  %hi(0xffff3000), %g2
    4720:	82 10 a2 00 	or  %g2, 0x200, %g1	! ffff3200 <MMAP_SEGMENT_1+0xfffed2a0>
    4724:	c2 80 44 00 	lda  [ %g1 ] #ASI_SCRATCHPAD, %g1
    4728:	80 88 60 01 	btst  1, %g1
    472c:	02 80 00 07 	be  4748 <MMAP_SEGMENT_0+0x46a8>
    4730:	86 10 20 00 	clr  %g3
    4734:	80 88 60 08 	btst  8, %g1
    4738:	12 80 00 04 	bne  4748 <MMAP_SEGMENT_0+0x46a8>
    473c:	84 10 a2 10 	or  %g2, 0x210, %g2
    4740:	d0 a8 84 00 	stba  %o0, [ %g2 ] #ASI_SCRATCHPAD
    4744:	86 10 00 08 	mov  %o0, %g3
    4748:	81 c3 e0 08 	retl 
    474c:	90 10 00 03 	mov  %g3, %o0
    4750:	03 3f ff cc 	sethi  %hi(0xffff3000), %g1
    4754:	84 10 62 00 	or  %g1, 0x200, %g2	! ffff3200 <MMAP_SEGMENT_1+0xfffed2a0>
    4758:	c4 80 84 00 	lda  [ %g2 ] #ASI_SCRATCHPAD, %g2
    475c:	84 08 a0 12 	and  %g2, 0x12, %g2
    4760:	80 a0 a0 12 	cmp  %g2, 0x12
    4764:	12 80 00 04 	bne  4774 <MMAP_SEGMENT_0+0x46d4>
    4768:	90 10 20 00 	clr  %o0
    476c:	90 10 62 20 	or  %g1, 0x220, %o0
    4770:	d0 8a 04 00 	lduba  [ %o0 ] #ASI_SCRATCHPAD, %o0
    4774:	81 c3 e0 08 	retl 
    4778:	01 00 00 00 	nop 
    477c:	19 3f ff cc 	sethi  %hi(0xffff3000), %o4
    4780:	9a 10 20 00 	clr  %o5
    4784:	84 13 22 00 	or  %o4, 0x200, %g2
    4788:	88 10 20 00 	clr  %g4
    478c:	80 a2 60 00 	cmp  %o1, 0
    4790:	02 80 00 12 	be  47d8 <MMAP_SEGMENT_0+0x4738>
    4794:	98 13 22 10 	or  %o4, 0x210, %o4
    4798:	c6 0a 00 0d 	ldub  [ %o0 + %o5 ], %g3
    479c:	c2 80 84 00 	lda  [ %g2 ] #ASI_SCRATCHPAD, %g1
    47a0:	80 88 60 01 	btst  1, %g1
    47a4:	02 bf ff fe 	be  479c <MMAP_SEGMENT_0+0x46fc>
    47a8:	80 88 60 08 	btst  8, %g1
    47ac:	12 bf ff fc 	bne  479c <MMAP_SEGMENT_0+0x46fc>
    47b0:	01 00 00 00 	nop 
    47b4:	c6 ab 04 00 	stba  %g3, [ %o4 ] #ASI_SCRATCHPAD
    47b8:	87 28 e0 18 	sll  %g3, 0x18, %g3
    47bc:	80 a0 e0 00 	cmp  %g3, 0
    47c0:	22 bf ff f7 	be,a   479c <MMAP_SEGMENT_0+0x46fc>
    47c4:	c6 0a 00 0d 	ldub  [ %o0 + %o5 ], %g3
    47c8:	88 01 20 01 	inc  %g4
    47cc:	80 a1 00 09 	cmp  %g4, %o1
    47d0:	12 bf ff f2 	bne  4798 <MMAP_SEGMENT_0+0x46f8>
    47d4:	9a 10 00 04 	mov  %g4, %o5
    47d8:	81 c3 e0 08 	retl 
    47dc:	01 00 00 00 	nop 
    47e0:	80 a2 60 00 	cmp  %o1, 0
    47e4:	02 80 00 15 	be  4838 <MMAP_SEGMENT_0+0x4798>
    47e8:	09 3f ff cc 	sethi  %hi(0xffff3000), %g4
    47ec:	9a 10 20 00 	clr  %o5
    47f0:	84 11 22 00 	or  %g4, 0x200, %g2
    47f4:	86 10 20 00 	clr  %g3
    47f8:	88 11 22 20 	or  %g4, 0x220, %g4
    47fc:	c2 80 84 00 	lda  [ %g2 ] #ASI_SCRATCHPAD, %g1
    4800:	80 88 60 02 	btst  2, %g1
    4804:	02 bf ff fe 	be  47fc <MMAP_SEGMENT_0+0x475c>
    4808:	80 88 60 10 	btst  0x10, %g1
    480c:	02 bf ff fc 	be  47fc <MMAP_SEGMENT_0+0x475c>
    4810:	01 00 00 00 	nop 
    4814:	c2 89 04 00 	lduba  [ %g4 ] #ASI_SCRATCHPAD, %g1
    4818:	80 a0 60 00 	cmp  %g1, 0
    481c:	02 bf ff f8 	be  47fc <MMAP_SEGMENT_0+0x475c>
    4820:	01 00 00 00 	nop 
    4824:	c2 2a 00 0d 	stb  %g1, [ %o0 + %o5 ]
    4828:	86 00 e0 01 	inc  %g3
    482c:	80 a0 c0 09 	cmp  %g3, %o1
    4830:	12 bf ff f3 	bne  47fc <MMAP_SEGMENT_0+0x475c>
    4834:	9a 10 00 03 	mov  %g3, %o5
    4838:	81 c3 e0 08 	retl 
    483c:	01 00 00 00 	nop 
    4840:	03 3f ff cc 	sethi  %hi(0xffff3000), %g1
    4844:	82 10 62 00 	or  %g1, 0x200, %g1	! ffff3200 <MMAP_SEGMENT_1+0xfffed2a0>
    4848:	81 c3 e0 08 	retl 
    484c:	d0 20 40 00 	st  %o0, [ %g1 ]
    4850:	03 3f ff cc 	sethi  %hi(0xffff3000), %g1
    4854:	82 10 62 00 	or  %g1, 0x200, %g1	! ffff3200 <MMAP_SEGMENT_1+0xfffed2a0>
    4858:	81 c3 e0 08 	retl 
    485c:	d0 08 40 00 	ldub  [ %g1 ], %o0
    4860:	03 3f ff cc 	sethi  %hi(0xffff3000), %g1
    4864:	82 10 62 10 	or  %g1, 0x210, %g1	! ffff3210 <MMAP_SEGMENT_1+0xfffed2b0>
    4868:	81 c3 e0 08 	retl 
    486c:	d0 28 40 00 	stb  %o0, [ %g1 ]
    4870:	03 3f ff cc 	sethi  %hi(0xffff3000), %g1
    4874:	82 10 62 10 	or  %g1, 0x210, %g1	! ffff3210 <MMAP_SEGMENT_1+0xfffed2b0>
    4878:	81 c3 e0 08 	retl 
    487c:	d0 08 40 00 	ldub  [ %g1 ], %o0
    4880:	03 3f ff cc 	sethi  %hi(0xffff3000), %g1
    4884:	82 10 62 20 	or  %g1, 0x220, %g1	! ffff3220 <MMAP_SEGMENT_1+0xfffed2c0>
    4888:	81 c3 e0 08 	retl 
    488c:	d0 08 40 00 	ldub  [ %g1 ], %o0
    4890:	05 3f ff cc 	sethi  %hi(0xffff3000), %g2
    4894:	82 10 a2 00 	or  %g2, 0x200, %g1	! ffff3200 <MMAP_SEGMENT_1+0xfffed2a0>
    4898:	c2 00 40 00 	ld  [ %g1 ], %g1
    489c:	80 88 60 01 	btst  1, %g1
    48a0:	02 80 00 07 	be  48bc <MMAP_SEGMENT_0+0x481c>
    48a4:	86 10 20 00 	clr  %g3
    48a8:	80 88 60 08 	btst  8, %g1
    48ac:	12 80 00 04 	bne  48bc <MMAP_SEGMENT_0+0x481c>
    48b0:	84 10 a2 10 	or  %g2, 0x210, %g2
    48b4:	86 10 00 08 	mov  %o0, %g3
    48b8:	d0 28 80 00 	stb  %o0, [ %g2 ]
    48bc:	81 c3 e0 08 	retl 
    48c0:	90 10 00 03 	mov  %g3, %o0
    48c4:	03 3f ff cc 	sethi  %hi(0xffff3000), %g1
    48c8:	84 10 62 00 	or  %g1, 0x200, %g2	! ffff3200 <MMAP_SEGMENT_1+0xfffed2a0>
    48cc:	c4 00 80 00 	ld  [ %g2 ], %g2
    48d0:	84 08 a0 12 	and  %g2, 0x12, %g2
    48d4:	80 a0 a0 12 	cmp  %g2, 0x12
    48d8:	12 80 00 04 	bne  48e8 <MMAP_SEGMENT_0+0x4848>
    48dc:	90 10 20 00 	clr  %o0
    48e0:	82 10 62 20 	or  %g1, 0x220, %g1
    48e4:	d0 08 40 00 	ldub  [ %g1 ], %o0
    48e8:	81 c3 e0 08 	retl 
    48ec:	01 00 00 00 	nop 
    48f0:	19 3f ff cc 	sethi  %hi(0xffff3000), %o4
    48f4:	88 10 20 00 	clr  %g4
    48f8:	9a 13 22 00 	or  %o4, 0x200, %o5
    48fc:	86 10 20 00 	clr  %g3
    4900:	80 a2 60 00 	cmp  %o1, 0
    4904:	02 80 00 14 	be  4954 <MMAP_SEGMENT_0+0x48b4>
    4908:	98 13 22 10 	or  %o4, 0x210, %o4
    490c:	c4 03 40 00 	ld  [ %o5 ], %g2
    4910:	80 88 a0 01 	btst  1, %g2
    4914:	12 80 00 03 	bne  4920 <MMAP_SEGMENT_0+0x4880>
    4918:	c2 0a 00 04 	ldub  [ %o0 + %g4 ], %g1
    491c:	30 80 00 00 	b,a   491c <MMAP_SEGMENT_0+0x487c>
    4920:	84 08 a0 08 	and  %g2, 8, %g2
    4924:	80 a0 a0 00 	cmp  %g2, 0
    4928:	12 80 00 00 	bne  4928 <MMAP_SEGMENT_0+0x4888>
    492c:	01 00 00 00 	nop 
    4930:	c2 2b 00 00 	stb  %g1, [ %o4 ]
    4934:	83 28 60 18 	sll  %g1, 0x18, %g1
    4938:	80 a0 60 00 	cmp  %g1, 0
    493c:	22 bf ff f5 	be,a   4910 <MMAP_SEGMENT_0+0x4870>
    4940:	c4 03 40 00 	ld  [ %o5 ], %g2
    4944:	86 00 e0 01 	inc  %g3
    4948:	80 a0 c0 09 	cmp  %g3, %o1
    494c:	12 bf ff f0 	bne  490c <MMAP_SEGMENT_0+0x486c>
    4950:	88 10 00 03 	mov  %g3, %g4
    4954:	81 c3 e0 08 	retl 
    4958:	01 00 00 00 	nop 
    495c:	09 3f ff cc 	sethi  %hi(0xffff3000), %g4
    4960:	9a 10 20 00 	clr  %o5
    4964:	86 11 22 00 	or  %g4, 0x200, %g3
    4968:	84 10 20 00 	clr  %g2
    496c:	80 a2 60 00 	cmp  %o1, 0
    4970:	02 80 00 12 	be  49b8 <MMAP_SEGMENT_0+0x4918>
    4974:	88 11 22 20 	or  %g4, 0x220, %g4
    4978:	c2 00 c0 00 	ld  [ %g3 ], %g1
    497c:	80 88 60 02 	btst  2, %g1
    4980:	12 80 00 03 	bne  498c <MMAP_SEGMENT_0+0x48ec>
    4984:	80 88 60 10 	btst  0x10, %g1
    4988:	30 80 00 00 	b,a   4988 <MMAP_SEGMENT_0+0x48e8>
    498c:	32 80 00 03 	bne,a   4998 <MMAP_SEGMENT_0+0x48f8>
    4990:	c2 09 00 00 	ldub  [ %g4 ], %g1
    4994:	30 80 00 00 	b,a   4994 <MMAP_SEGMENT_0+0x48f4>
    4998:	80 a0 60 00 	cmp  %g1, 0
    499c:	22 bf ff f8 	be,a   497c <MMAP_SEGMENT_0+0x48dc>
    49a0:	c2 00 c0 00 	ld  [ %g3 ], %g1
    49a4:	c2 2a 00 0d 	stb  %g1, [ %o0 + %o5 ]
    49a8:	84 00 a0 01 	inc  %g2
    49ac:	80 a0 80 09 	cmp  %g2, %o1
    49b0:	12 bf ff f2 	bne  4978 <MMAP_SEGMENT_0+0x48d8>
    49b4:	9a 10 00 02 	mov  %g2, %o5
    49b8:	81 c3 e0 08 	retl 
    49bc:	01 00 00 00 	nop 
    49c0:	05 3f ff cc 	sethi  %hi(0xffff3000), %g2
    49c4:	84 10 a2 00 	or  %g2, 0x200, %g2	! ffff3200 <MMAP_SEGMENT_1+0xfffed2a0>
    49c8:	c4 80 84 00 	lda  [ %g2 ] #ASI_SCRATCHPAD, %g2
    49cc:	80 a2 20 00 	cmp  %o0, 0
    49d0:	02 80 00 03 	be  49dc <MMAP_SEGMENT_0+0x493c>
    49d4:	82 08 bf fe 	and  %g2, -2, %g1
    49d8:	82 10 a0 01 	or  %g2, 1, %g1
    49dc:	80 a2 60 00 	cmp  %o1, 0
    49e0:	02 80 00 03 	be  49ec <MMAP_SEGMENT_0+0x494c>
    49e4:	84 08 7f fd 	and  %g1, -3, %g2
    49e8:	84 10 60 02 	or  %g1, 2, %g2
    49ec:	80 a2 a0 00 	cmp  %o2, 0
    49f0:	02 80 00 03 	be  49fc <MMAP_SEGMENT_0+0x495c>
    49f4:	82 08 bf fb 	and  %g2, -5, %g1
    49f8:	82 10 a0 04 	or  %g2, 4, %g1
    49fc:	05 3f ff cc 	sethi  %hi(0xffff3000), %g2
    4a00:	84 10 a2 00 	or  %g2, 0x200, %g2	! ffff3200 <MMAP_SEGMENT_1+0xfffed2a0>
    4a04:	81 c3 e0 08 	retl 
    4a08:	c2 20 80 00 	st  %g1, [ %g2 ]
    4a0c:	03 3f ff cc 	sethi  %hi(0xffff3000), %g1
    4a10:	82 10 62 00 	or  %g1, 0x200, %g1	! ffff3200 <MMAP_SEGMENT_1+0xfffed2a0>
    4a14:	c4 08 40 00 	ldub  [ %g1 ], %g2
    4a18:	81 c3 e0 08 	retl 
    4a1c:	c4 20 40 00 	st  %g2, [ %g1 ]
    4a20:	03 3f ff cc 	sethi  %hi(0xffff3000), %g1
    4a24:	80 a2 20 00 	cmp  %o0, 0
    4a28:	12 80 00 08 	bne  4a48 <MMAP_SEGMENT_0+0x49a8>
    4a2c:	82 10 62 00 	or  %g1, 0x200, %g1
    4a30:	c4 80 44 00 	lda  [ %g1 ] #ASI_SCRATCHPAD, %g2
    4a34:	86 10 20 08 	mov  8, %g3
    4a38:	c6 a0 44 00 	sta  %g3, [ %g1 ] #ASI_SCRATCHPAD
    4a3c:	c4 a0 44 00 	sta  %g2, [ %g1 ] #ASI_SCRATCHPAD
    4a40:	81 c3 e0 08 	retl 
    4a44:	01 00 00 00 	nop 
    4a48:	c4 08 40 00 	ldub  [ %g1 ], %g2
    4a4c:	81 c3 e0 08 	retl 
    4a50:	c4 20 40 00 	st  %g2, [ %g1 ]
    4a54:	90 10 20 00 	clr  %o0
    4a58:	82 13 c0 00 	mov  %o7, %g1
    4a5c:	7f ff ff f1 	call  4a20 <MMAP_SEGMENT_0+0x4980>
    4a60:	9e 10 40 00 	mov  %g1, %o7
    4a64:	03 3f ff cc 	sethi  %hi(0xffff3000), %g1
    4a68:	d0 a0 44 00 	sta  %o0, [ %g1 ] #ASI_SCRATCHPAD
    4a6c:	81 c3 e0 08 	retl 
    4a70:	01 00 00 00 	nop 
    4a74:	11 3f ff cc 	sethi  %hi(0xffff3000), %o0
    4a78:	d0 82 04 00 	lda  [ %o0 ] #ASI_SCRATCHPAD, %o0
    4a7c:	81 c3 e0 08 	retl 
    4a80:	01 00 00 00 	nop 
    4a84:	03 3f ff cc 	sethi  %hi(0xffff3000), %g1
    4a88:	81 c3 e0 08 	retl 
    4a8c:	d0 20 40 00 	st  %o0, [ %g1 ]
    4a90:	03 3f ff cc 	sethi  %hi(0xffff3000), %g1
    4a94:	81 c3 e0 08 	retl 
    4a98:	d0 00 40 00 	ld  [ %g1 ], %o0
    4a9c:	91 2a 20 02 	sll  %o0, 2, %o0
    4aa0:	03 3f ff cc 	sethi  %hi(0xffff3000), %g1
    4aa4:	82 10 63 00 	or  %g1, 0x300, %g1	! ffff3300 <MMAP_SEGMENT_1+0xfffed3a0>
    4aa8:	90 02 00 01 	add  %o0, %g1, %o0
    4aac:	d2 a2 04 00 	sta  %o1, [ %o0 ] #ASI_SCRATCHPAD
    4ab0:	81 c3 e0 08 	retl 
    4ab4:	01 00 00 00 	nop 
    4ab8:	91 2a 20 02 	sll  %o0, 2, %o0
    4abc:	03 3f ff cc 	sethi  %hi(0xffff3000), %g1
    4ac0:	82 10 63 00 	or  %g1, 0x300, %g1	! ffff3300 <MMAP_SEGMENT_1+0xfffed3a0>
    4ac4:	81 c3 e0 08 	retl 
    4ac8:	d2 2a 00 01 	stb  %o1, [ %o0 + %g1 ]
    4acc:	91 2a 20 02 	sll  %o0, 2, %o0
    4ad0:	03 3f ff cc 	sethi  %hi(0xffff3000), %g1
    4ad4:	82 10 63 00 	or  %g1, 0x300, %g1	! ffff3300 <MMAP_SEGMENT_1+0xfffed3a0>
    4ad8:	90 02 00 01 	add  %o0, %g1, %o0
    4adc:	d0 82 04 00 	lda  [ %o0 ] #ASI_SCRATCHPAD, %o0
    4ae0:	81 c3 e0 08 	retl 
    4ae4:	90 0a 20 ff 	and  %o0, 0xff, %o0
    4ae8:	91 2a 20 02 	sll  %o0, 2, %o0
    4aec:	03 3f ff cc 	sethi  %hi(0xffff3000), %g1
    4af0:	82 10 63 00 	or  %g1, 0x300, %g1	! ffff3300 <MMAP_SEGMENT_1+0xfffed3a0>
    4af4:	81 c3 e0 08 	retl 
    4af8:	d0 0a 00 01 	ldub  [ %o0 + %g1 ], %o0
    4afc:	09 3f ff cc 	sethi  %hi(0xffff3000), %g4
    4b00:	82 11 23 00 	or  %g4, 0x300, %g1	! ffff3300 <MMAP_SEGMENT_1+0xfffed3a0>
    4b04:	d0 a0 44 00 	sta  %o0, [ %g1 ] #ASI_SCRATCHPAD
    4b08:	82 10 20 13 	mov  0x13, %g1
    4b0c:	88 11 23 08 	or  %g4, 0x308, %g4
    4b10:	c2 a1 04 00 	sta  %g1, [ %g4 ] #ASI_SCRATCHPAD
    4b14:	82 10 21 00 	mov  0x100, %g1
    4b18:	c4 81 04 00 	lda  [ %g4 ] #ASI_SCRATCHPAD, %g2
    4b1c:	82 00 7f ff 	add  %g1, -1, %g1
    4b20:	87 38 60 1f 	sra  %g1, 0x1f, %g3
    4b24:	86 20 c0 01 	sub  %g3, %g1, %g3
    4b28:	87 30 e0 1f 	srl  %g3, 0x1f, %g3
    4b2c:	80 88 c0 02 	btst  %g3, %g2
    4b30:	12 bf ff fa 	bne  4b18 <MMAP_SEGMENT_0+0x4a78>
    4b34:	11 3f ff cc 	sethi  %hi(0xffff3000), %o0
    4b38:	90 12 23 00 	or  %o0, 0x300, %o0	! ffff3300 <MMAP_SEGMENT_1+0xfffed3a0>
    4b3c:	d0 82 04 00 	lda  [ %o0 ] #ASI_SCRATCHPAD, %o0
    4b40:	81 c3 e0 08 	retl 
    4b44:	90 0a 20 ff 	and  %o0, 0xff, %o0
    4b48:	03 3f ff cc 	sethi  %hi(0xffff3000), %g1
    4b4c:	84 10 63 00 	or  %g1, 0x300, %g2	! ffff3300 <MMAP_SEGMENT_1+0xfffed3a0>
    4b50:	d0 28 80 00 	stb  %o0, [ %g2 ]
    4b54:	82 10 63 08 	or  %g1, 0x308, %g1
    4b58:	84 10 20 13 	mov  0x13, %g2
    4b5c:	81 c3 e0 08 	retl 
    4b60:	c4 28 40 00 	stb  %g2, [ %g1 ]
    4b64:	91 d0 20 00 	ta  0
    4b68:	01 00 00 00 	nop 
    4b6c:	01 00 00 00 	nop 
    4b70:	81 c3 e0 08 	retl 
    4b74:	01 00 00 00 	nop 
    4b78:	c1 1a 00 00 	ldd  [ %o0 ], %f0
    4b7c:	85 a0 05 40 	fsqrtd  %f0, %f2
    4b80:	c5 3a 40 00 	std  %f2, [ %o1 ]
    4b84:	81 c3 e0 08 	retl 
    4b88:	01 00 00 00 	nop 
    4b8c:	c1 02 00 00 	ld  [ %o0 ], %f0
    4b90:	83 a0 05 20 	fsqrts  %f0, %f1
    4b94:	c3 22 40 00 	st  %f1, [ %o1 ]
    4b98:	81 c3 e0 08 	retl 
    4b9c:	01 00 00 00 	nop 
    4ba0:	c1 02 00 00 	ld  [ %o0 ], %f0
    4ba4:	85 a0 19 00 	fitod  %f0, %f2
    4ba8:	c5 3a 40 00 	std  %f2, [ %o1 ]
    4bac:	81 c3 e0 08 	retl 
    4bb0:	01 00 00 00 	nop 
    4bb4:	c1 02 00 00 	ld  [ %o0 ], %f0
    4bb8:	83 a0 18 80 	fitos  %f0, %f1
    4bbc:	c3 22 40 00 	st  %f1, [ %o1 ]
    4bc0:	81 c3 e0 08 	retl 
    4bc4:	01 00 00 00 	nop 
    4bc8:	c1 1a 00 00 	ldd  [ %o0 ], %f0
    4bcc:	85 a0 1a 40 	fdtoi  %f0, %f2
    4bd0:	c5 22 40 00 	st  %f2, [ %o1 ]
    4bd4:	81 c3 e0 08 	retl 
    4bd8:	01 00 00 00 	nop 
    4bdc:	c1 02 00 00 	ld  [ %o0 ], %f0
    4be0:	83 a0 1a 20 	fstoi  %f0, %f1
    4be4:	c3 22 40 00 	st  %f1, [ %o1 ]
    4be8:	81 c3 e0 08 	retl 
    4bec:	01 00 00 00 	nop 
    4bf0:	9d e3 bf 90 	save  %sp, -112, %sp
    4bf4:	f0 3f bf f8 	std  %i0, [ %fp + -8 ]
    4bf8:	de 07 a0 5c 	ld  [ %fp + 0x5c ], %o7
    4bfc:	d5 1f bf f8 	ldd  [ %fp + -8 ], %f10
    4c00:	80 a6 a0 00 	cmp  %i2, 0
    4c04:	06 80 00 05 	bl  4c18 <MMAP_SEGMENT_0+0x4b78>
    4c08:	84 10 20 00 	clr  %g2
    4c0c:	80 a6 a0 4e 	cmp  %i2, 0x4e
    4c10:	04 80 00 a6 	ble  4ea8 <MMAP_SEGMENT_0+0x4e08>
    4c14:	84 10 20 4e 	mov  0x4e, %g2
    4c18:	03 20 00 00 	sethi  %hi(0x80000000), %g1
    4c1c:	d1 18 60 90 	ldd  [ %g1 + 0x90 ], %f8	! 80000090 <MMAP_SEGMENT_1+0x7fffa130>
    4c20:	81 aa 8a c8 	fcmped  %f10, %f8
    4c24:	01 00 00 00 	nop 
    4c28:	09 80 00 9a 	fbl  4e90 <MMAP_SEGMENT_0+0x4df0>
    4c2c:	86 10 20 01 	mov  1, %g3	! 1 <_start+0x1>
    4c30:	c0 27 00 00 	clr  [ %i4 ]
    4c34:	91 a0 1a 4a 	fdtoi  %f10, %f8
    4c38:	d9 18 60 90 	ldd  [ %g1 + 0x90 ], %f12
    4c3c:	91 a0 19 08 	fitod  %f8, %f8
    4c40:	81 aa 0a 4c 	fcmpd  %f8, %f12
    4c44:	01 00 00 00 	nop 
    4c48:	13 80 00 66 	fbe  4de0 <MMAP_SEGMENT_0+0x4d40>
    4c4c:	95 a2 88 c8 	fsubd  %f10, %f8, %f10
    4c50:	03 20 00 00 	sethi  %hi(0x80000000), %g1
    4c54:	9a 07 60 50 	add  %i5, 0x50, %o5
    4c58:	35 20 00 00 	sethi  %hi(0x80000000), %i2
    4c5c:	e5 18 60 a0 	ldd  [ %g1 + 0xa0 ], %f18
    4c60:	b8 10 00 0d 	mov  %o5, %i4
    4c64:	03 20 00 00 	sethi  %hi(0x80000000), %g1
    4c68:	86 10 20 00 	clr  %g3
    4c6c:	dd 1e a0 98 	ldd  [ %i2 + 0x98 ], %f14
    4c70:	e1 18 60 90 	ldd  [ %g1 + 0x90 ], %f16
    4c74:	99 a2 09 ce 	fdivd  %f8, %f14, %f12
    4c78:	91 a0 1a 4c 	fdtoi  %f12, %f8
    4c7c:	91 a0 19 08 	fitod  %f8, %f8
    4c80:	99 a3 08 c8 	fsubd  %f12, %f8, %f12
    4c84:	99 a3 08 52 	faddd  %f12, %f18, %f12
    4c88:	99 a3 09 4e 	fmuld  %f12, %f14, %f12
    4c8c:	99 a0 1a 4c 	fdtoi  %f12, %f12
    4c90:	d9 27 bf f4 	st  %f12, [ %fp + -12 ]
    4c94:	b8 07 3f ff 	add  %i4, -1, %i4
    4c98:	c2 07 bf f4 	ld  [ %fp + -12 ], %g1
    4c9c:	88 00 60 30 	add  %g1, 0x30, %g4
    4ca0:	c8 2f 00 00 	stb  %g4, [ %i4 ]
    4ca4:	b2 10 00 04 	mov  %g4, %i1
    4ca8:	81 aa 0a 50 	fcmpd  %f8, %f16
    4cac:	01 00 00 00 	nop 
    4cb0:	03 bf ff f1 	fbne  4c74 <MMAP_SEGMENT_0+0x4bd4>
    4cb4:	86 00 e0 01 	inc  %g3
    4cb8:	80 a3 40 1c 	cmp  %o5, %i4
    4cbc:	08 80 00 0e 	bleu  4cf4 <MMAP_SEGMENT_0+0x4c54>
    4cc0:	82 10 00 1d 	mov  %i5, %g1
    4cc4:	b0 07 60 4f 	add  %i5, 0x4f, %i0
    4cc8:	88 10 00 1c 	mov  %i4, %g4
    4ccc:	10 80 00 04 	b  4cdc <MMAP_SEGMENT_0+0x4c3c>
    4cd0:	b4 10 00 1d 	mov  %i5, %i2
    4cd4:	f2 09 20 01 	ldub  [ %g4 + 1 ], %i1
    4cd8:	88 01 20 01 	inc  %g4
    4cdc:	f2 2e 80 00 	stb  %i1, [ %i2 ]
    4ce0:	80 a1 00 18 	cmp  %g4, %i0
    4ce4:	12 bf ff fc 	bne  4cd4 <MMAP_SEGMENT_0+0x4c34>
    4ce8:	b4 06 a0 01 	inc  %i2
    4cec:	82 23 40 1c 	sub  %o5, %i4, %g1
    4cf0:	82 07 40 01 	add  %i5, %g1, %g1
    4cf4:	80 a3 e0 00 	cmp  %o7, 0
    4cf8:	12 80 00 03 	bne  4d04 <MMAP_SEGMENT_0+0x4c64>
    4cfc:	84 07 40 02 	add  %i5, %g2, %g2
    4d00:	84 00 80 03 	add  %g2, %g3, %g2
    4d04:	80 a0 80 1d 	cmp  %g2, %i5
    4d08:	0a 80 00 5f 	bcs  4e84 <MMAP_SEGMENT_0+0x4de4>
    4d0c:	c6 26 c0 00 	st  %g3, [ %i3 ]
    4d10:	80 a0 40 02 	cmp  %g1, %g2
    4d14:	18 80 00 17 	bgu  4d70 <MMAP_SEGMENT_0+0x4cd0>
    4d18:	88 07 60 50 	add  %i5, 0x50, %g4
    4d1c:	35 20 00 00 	sethi  %hi(0x80000000), %i2
    4d20:	80 a0 40 04 	cmp  %g1, %g4
    4d24:	1a 80 00 13 	bcc  4d70 <MMAP_SEGMENT_0+0x4cd0>
    4d28:	b4 16 a0 98 	or  %i2, 0x98, %i2
    4d2c:	10 80 00 05 	b  4d40 <MMAP_SEGMENT_0+0x4ca0>
    4d30:	d9 1e 80 00 	ldd  [ %i2 ], %f12
    4d34:	80 a0 40 04 	cmp  %g1, %g4
    4d38:	02 80 00 0f 	be  4d74 <MMAP_SEGMENT_0+0x4cd4>
    4d3c:	80 a0 80 04 	cmp  %g2, %g4
    4d40:	95 a2 89 4c 	fmuld  %f10, %f12, %f10
    4d44:	91 a0 1a 4a 	fdtoi  %f10, %f8
    4d48:	91 a0 19 08 	fitod  %f8, %f8
    4d4c:	9d a0 1a 48 	fdtoi  %f8, %f14
    4d50:	dd 27 bf f4 	st  %f14, [ %fp + -12 ]
    4d54:	c6 07 bf f4 	ld  [ %fp + -12 ], %g3
    4d58:	86 00 e0 30 	add  %g3, 0x30, %g3
    4d5c:	c6 28 40 00 	stb  %g3, [ %g1 ]
    4d60:	82 00 60 01 	inc  %g1
    4d64:	80 a0 80 01 	cmp  %g2, %g1
    4d68:	1a bf ff f3 	bcc  4d34 <MMAP_SEGMENT_0+0x4c94>
    4d6c:	95 a2 88 c8 	fsubd  %f10, %f8, %f10
    4d70:	80 a0 80 04 	cmp  %g2, %g4
    4d74:	1a 80 00 4a 	bcc  4e9c <MMAP_SEGMENT_0+0x4dfc>
    4d78:	88 10 00 02 	mov  %g2, %g4
    4d7c:	f8 08 80 00 	ldub  [ %g2 ], %i4
    4d80:	b8 07 20 05 	add  %i4, 5, %i4
    4d84:	82 10 00 1c 	mov  %i4, %g1
    4d88:	f8 28 80 00 	stb  %i4, [ %g2 ]
    4d8c:	86 10 20 30 	mov  0x30, %g3
    4d90:	b8 10 20 31 	mov  0x31, %i4
    4d94:	83 28 60 18 	sll  %g1, 0x18, %g1
    4d98:	83 38 60 18 	sra  %g1, 0x18, %g1
    4d9c:	80 a0 60 39 	cmp  %g1, 0x39
    4da0:	24 80 00 0e 	ble,a   4dd8 <MMAP_SEGMENT_0+0x4d38>
    4da4:	c0 29 00 00 	clrb  [ %g4 ]
    4da8:	80 a0 80 1d 	cmp  %g2, %i5
    4dac:	08 80 00 2a 	bleu  4e54 <MMAP_SEGMENT_0+0x4db4>
    4db0:	c6 28 80 00 	stb  %g3, [ %g2 ]
    4db4:	c2 08 bf ff 	ldub  [ %g2 + -1 ], %g1
    4db8:	82 00 60 01 	inc  %g1
    4dbc:	c2 28 bf ff 	stb  %g1, [ %g2 + -1 ]
    4dc0:	83 28 60 18 	sll  %g1, 0x18, %g1
    4dc4:	83 38 60 18 	sra  %g1, 0x18, %g1
    4dc8:	80 a0 60 39 	cmp  %g1, 0x39
    4dcc:	14 bf ff f7 	bg  4da8 <MMAP_SEGMENT_0+0x4d08>
    4dd0:	84 00 bf ff 	add  %g2, -1, %g2
    4dd4:	c0 29 00 00 	clrb  [ %g4 ]
    4dd8:	81 c7 e0 08 	ret 
    4ddc:	91 e8 00 1d 	restore  %g0, %i5, %o0
    4de0:	81 aa 8a cc 	fcmped  %f10, %f12
    4de4:	01 00 00 00 	nop 
    4de8:	1d 80 00 32 	fbule  4eb0 <MMAP_SEGMENT_0+0x4e10>
    4dec:	01 00 00 00 	nop 
    4df0:	35 20 00 00 	sethi  %hi(0x80000000), %i2
    4df4:	03 20 00 00 	sethi  %hi(0x80000000), %g1
    4df8:	d9 1e a0 98 	ldd  [ %i2 + 0x98 ], %f12
    4dfc:	d1 18 60 a8 	ldd  [ %g1 + 0xa8 ], %f8
    4e00:	99 a2 89 4c 	fmuld  %f10, %f12, %f12
    4e04:	86 10 20 00 	clr  %g3
    4e08:	e1 1e a0 98 	ldd  [ %i2 + 0x98 ], %f16
    4e0c:	9d a0 00 28 	fmovs  %f8, %f14
    4e10:	81 ab 0a c8 	fcmped  %f12, %f8
    4e14:	01 00 00 00 	nop 
    4e18:	09 80 00 06 	fbl  4e30 <MMAP_SEGMENT_0+0x4d90>
    4e1c:	9f a0 00 29 	fmovs  %f9, %f15
    4e20:	10 bf ff b5 	b  4cf4 <MMAP_SEGMENT_0+0x4c54>
    4e24:	82 10 00 1d 	mov  %i5, %g1
    4e28:	99 a0 00 28 	fmovs  %f8, %f12
    4e2c:	9b a0 00 29 	fmovs  %f9, %f13
    4e30:	91 a3 09 50 	fmuld  %f12, %f16, %f8
    4e34:	81 aa 0a ce 	fcmped  %f8, %f14
    4e38:	01 00 00 00 	nop 
    4e3c:	09 bf ff fb 	fbl  4e28 <MMAP_SEGMENT_0+0x4d88>
    4e40:	86 00 ff ff 	add  %g3, -1, %g3
    4e44:	82 10 00 1d 	mov  %i5, %g1
    4e48:	95 a0 00 2c 	fmovs  %f12, %f10
    4e4c:	10 bf ff aa 	b  4cf4 <MMAP_SEGMENT_0+0x4c54>
    4e50:	97 a0 00 2d 	fmovs  %f13, %f11
    4e54:	f8 28 80 00 	stb  %i4, [ %g2 ]
    4e58:	c2 06 c0 00 	ld  [ %i3 ], %g1
    4e5c:	82 00 60 01 	inc  %g1
    4e60:	80 a3 e0 00 	cmp  %o7, 0
    4e64:	12 80 00 06 	bne  4e7c <MMAP_SEGMENT_0+0x4ddc>
    4e68:	c2 26 c0 00 	st  %g1, [ %i3 ]
    4e6c:	80 a1 00 1d 	cmp  %g4, %i5
    4e70:	38 80 00 02 	bgu,a   4e78 <MMAP_SEGMENT_0+0x4dd8>
    4e74:	c6 29 00 00 	stb  %g3, [ %g4 ]
    4e78:	88 01 20 01 	inc  %g4
    4e7c:	10 bf ff c6 	b  4d94 <MMAP_SEGMENT_0+0x4cf4>
    4e80:	c2 08 80 00 	ldub  [ %g2 ], %g1
    4e84:	c0 2f 40 00 	clrb  [ %i5 ]
    4e88:	81 c7 e0 08 	ret 
    4e8c:	91 e8 00 1d 	restore  %g0, %i5, %o0
    4e90:	95 a0 00 aa 	fnegs  %f10, %f10
    4e94:	10 bf ff 68 	b  4c34 <MMAP_SEGMENT_0+0x4b94>
    4e98:	c6 27 00 00 	st  %g3, [ %i4 ]
    4e9c:	c0 2f 60 4f 	clrb  [ %i5 + 0x4f ]
    4ea0:	81 c7 e0 08 	ret 
    4ea4:	91 e8 00 1d 	restore  %g0, %i5, %o0
    4ea8:	10 bf ff 5c 	b  4c18 <MMAP_SEGMENT_0+0x4b78>
    4eac:	84 10 00 1a 	mov  %i2, %g2
    4eb0:	82 10 00 1d 	mov  %i5, %g1
    4eb4:	10 bf ff 90 	b  4cf4 <MMAP_SEGMENT_0+0x4c54>
    4eb8:	86 10 20 00 	clr  %g3
    4ebc:	9c 03 bf b0 	add  %sp, -80, %sp
    4ec0:	d0 3b a0 48 	std  %o0, [ %sp + 0x48 ]
    4ec4:	c1 1b a0 48 	ldd  [ %sp + 0x48 ], %f0
    4ec8:	9c 23 bf b0 	sub  %sp, -80, %sp
    4ecc:	91 a0 1a 40 	fdtoi  %f0, %f8
    4ed0:	91 a0 19 08 	fitod  %f8, %f8
    4ed4:	81 a0 08 c8 	fsubd  %f0, %f8, %f0
    4ed8:	81 c3 e0 08 	retl 
    4edc:	d1 3a 80 00 	std  %f8, [ %o2 ]
    4ee0:	9d e3 bf 98 	save  %sp, -104, %sp
    4ee4:	82 10 20 01 	mov  1, %g1
    4ee8:	90 10 00 18 	mov  %i0, %o0
    4eec:	92 10 00 19 	mov  %i1, %o1
    4ef0:	c2 23 a0 5c 	st  %g1, [ %sp + 0x5c ]
    4ef4:	94 10 00 1a 	mov  %i2, %o2
    4ef8:	96 10 00 1b 	mov  %i3, %o3
    4efc:	98 10 00 1c 	mov  %i4, %o4
    4f00:	1b 20 00 00 	sethi  %hi(0x80000000), %o5
    4f04:	7f ff ff 3b 	call  4bf0 <MMAP_SEGMENT_0+0x4b50>
    4f08:	9a 13 61 48 	or  %o5, 0x148, %o5	! 80000148 <MMAP_SEGMENT_1+0x7fffa1e8>
    4f0c:	81 c7 e0 08 	ret 
    4f10:	91 e8 00 08 	restore  %g0, %o0, %o0
    4f14:	9d e3 bf 98 	save  %sp, -104, %sp
    4f18:	82 10 20 01 	mov  1, %g1
    4f1c:	90 10 00 18 	mov  %i0, %o0
    4f20:	92 10 00 19 	mov  %i1, %o1
    4f24:	c2 23 a0 5c 	st  %g1, [ %sp + 0x5c ]
    4f28:	94 10 00 1a 	mov  %i2, %o2
    4f2c:	96 10 00 1b 	mov  %i3, %o3
    4f30:	98 10 00 1c 	mov  %i4, %o4
    4f34:	7f ff ff 2f 	call  4bf0 <MMAP_SEGMENT_0+0x4b50>
    4f38:	9a 10 00 1d 	mov  %i5, %o5
    4f3c:	81 c7 e0 08 	ret 
    4f40:	91 e8 00 08 	restore  %g0, %o0, %o0
    4f44:	9d e3 bf 98 	save  %sp, -104, %sp
    4f48:	1b 20 00 00 	sethi  %hi(0x80000000), %o5
    4f4c:	c0 23 a0 5c 	clr  [ %sp + 0x5c ]
    4f50:	90 10 00 18 	mov  %i0, %o0
    4f54:	92 10 00 19 	mov  %i1, %o1
    4f58:	94 10 00 1a 	mov  %i2, %o2
    4f5c:	96 10 00 1b 	mov  %i3, %o3
    4f60:	98 10 00 1c 	mov  %i4, %o4
    4f64:	7f ff ff 23 	call  4bf0 <MMAP_SEGMENT_0+0x4b50>
    4f68:	9a 13 61 48 	or  %o5, 0x148, %o5
    4f6c:	81 c7 e0 08 	ret 
    4f70:	91 e8 00 08 	restore  %g0, %o0, %o0
    4f74:	9d e3 bf 98 	save  %sp, -104, %sp
    4f78:	c0 23 a0 5c 	clr  [ %sp + 0x5c ]
    4f7c:	90 10 00 18 	mov  %i0, %o0
    4f80:	92 10 00 19 	mov  %i1, %o1
    4f84:	94 10 00 1a 	mov  %i2, %o2
    4f88:	96 10 00 1b 	mov  %i3, %o3
    4f8c:	98 10 00 1c 	mov  %i4, %o4
    4f90:	7f ff ff 18 	call  4bf0 <MMAP_SEGMENT_0+0x4b50>
    4f94:	9a 10 00 1d 	mov  %i5, %o5
    4f98:	81 c7 e0 08 	ret 
    4f9c:	91 e8 00 08 	restore  %g0, %o0, %o0
    4fa0:	90 10 20 01 	mov  1, %o0
    4fa4:	92 10 20 00 	clr  %o1
    4fa8:	94 10 20 00 	clr  %o2
    4fac:	82 13 c0 00 	mov  %o7, %g1
    4fb0:	7f ff fd 34 	call  4480 <MMAP_SEGMENT_0+0x43e0>
    4fb4:	9e 10 40 00 	mov  %g1, %o7
    4fb8:	9d e3 bf a0 	save  %sp, -96, %sp
    4fbc:	7f ff fc bc 	call  42ac <MMAP_SEGMENT_0+0x420c>
    4fc0:	01 00 00 00 	nop 
    4fc4:	7f ff fc bd 	call  42b8 <MMAP_SEGMENT_0+0x4218>
    4fc8:	b0 10 00 08 	mov  %o0, %i0
    4fcc:	b1 2e 20 18 	sll  %i0, 0x18, %i0
    4fd0:	91 32 20 08 	srl  %o0, 8, %o0
    4fd4:	b0 12 00 18 	or  %o0, %i0, %i0
    4fd8:	81 c7 e0 08 	ret 
    4fdc:	81 e8 00 00 	restore 
    4fe0:	40 00 55 88 	call  1a600 <MMAP_SEGMENT_1+0x146a0>
    4fe4:	40 00 54 a0 	call  1a264 <MMAP_SEGMENT_1+0x14304>
    4fe8:	40 00 54 a0 	call  1a268 <MMAP_SEGMENT_1+0x14308>
    4fec:	40 00 54 a0 	call  1a26c <MMAP_SEGMENT_1+0x1430c>
    4ff0:	40 00 54 a0 	call  1a270 <MMAP_SEGMENT_1+0x14310>
    4ff4:	40 00 54 a0 	call  1a274 <MMAP_SEGMENT_1+0x14314>
    4ff8:	40 00 54 a0 	call  1a278 <MMAP_SEGMENT_1+0x14318>
    4ffc:	40 00 54 a0 	call  1a27c <MMAP_SEGMENT_1+0x1431c>
    5000:	40 00 54 a0 	call  1a280 <MMAP_SEGMENT_1+0x14320>
    5004:	40 00 54 a0 	call  1a284 <MMAP_SEGMENT_1+0x14324>
    5008:	40 00 54 a0 	call  1a288 <MMAP_SEGMENT_1+0x14328>
    500c:	40 00 54 a0 	call  1a28c <MMAP_SEGMENT_1+0x1432c>
    5010:	40 00 54 a0 	call  1a290 <MMAP_SEGMENT_1+0x14330>
    5014:	40 00 54 a0 	call  1a294 <MMAP_SEGMENT_1+0x14334>
    5018:	40 00 54 a0 	call  1a298 <MMAP_SEGMENT_1+0x14338>
    501c:	40 00 54 a0 	call  1a29c <MMAP_SEGMENT_1+0x1433c>
    5020:	40 00 54 a0 	call  1a2a0 <MMAP_SEGMENT_1+0x14340>
    5024:	40 00 54 a0 	call  1a2a4 <MMAP_SEGMENT_1+0x14344>
    5028:	40 00 54 a0 	call  1a2a8 <MMAP_SEGMENT_1+0x14348>
    502c:	40 00 54 a0 	call  1a2ac <MMAP_SEGMENT_1+0x1434c>
    5030:	40 00 54 a0 	call  1a2b0 <MMAP_SEGMENT_1+0x14350>
    5034:	40 00 54 a0 	call  1a2b4 <MMAP_SEGMENT_1+0x14354>
    5038:	40 00 54 a0 	call  1a2b8 <MMAP_SEGMENT_1+0x14358>
    503c:	40 00 59 28 	call  1b4dc <MMAP_SEGMENT_1+0x1557c>
    5040:	40 00 54 a0 	call  1a2c0 <MMAP_SEGMENT_1+0x14360>
    5044:	40 00 54 a0 	call  1a2c4 <MMAP_SEGMENT_1+0x14364>
    5048:	40 00 54 a0 	call  1a2c8 <MMAP_SEGMENT_1+0x14368>
    504c:	40 00 54 a0 	call  1a2cc <MMAP_SEGMENT_1+0x1436c>
    5050:	40 00 54 a0 	call  1a2d0 <MMAP_SEGMENT_1+0x14370>
    5054:	40 00 54 a0 	call  1a2d4 <MMAP_SEGMENT_1+0x14374>
    5058:	40 00 54 a0 	call  1a2d8 <MMAP_SEGMENT_1+0x14378>
    505c:	40 00 54 a0 	call  1a2dc <MMAP_SEGMENT_1+0x1437c>
    5060:	40 00 55 8c 	call  1a690 <MMAP_SEGMENT_1+0x14730>
    5064:	40 00 54 a0 	call  1a2e4 <MMAP_SEGMENT_1+0x14384>
    5068:	40 00 58 dc 	call  1b3d8 <MMAP_SEGMENT_1+0x15478>
    506c:	40 00 58 d0 	call  1b3ac <MMAP_SEGMENT_1+0x1544c>
    5070:	40 00 54 a0 	call  1a2f0 <MMAP_SEGMENT_1+0x14390>
    5074:	40 00 54 a0 	call  1a2f4 <MMAP_SEGMENT_1+0x14394>
    5078:	40 00 54 a0 	call  1a2f8 <MMAP_SEGMENT_1+0x14398>
    507c:	40 00 54 a0 	call  1a2fc <MMAP_SEGMENT_1+0x1439c>
    5080:	40 00 58 d0 	call  1b3c0 <MMAP_SEGMENT_1+0x15460>
    5084:	40 00 54 a0 	call  1a304 <MMAP_SEGMENT_1+0x143a4>
    5088:	40 00 54 a0 	call  1a308 <MMAP_SEGMENT_1+0x143a8>
    508c:	40 00 54 a0 	call  1a30c <MMAP_SEGMENT_1+0x143ac>
    5090:	40 00 54 a0 	call  1a310 <MMAP_SEGMENT_1+0x143b0>
    5094:	40 00 54 a0 	call  1a314 <MMAP_SEGMENT_1+0x143b4>
    5098:	40 00 58 c8 	call  1b3b8 <MMAP_SEGMENT_1+0x15458>
    509c:	40 00 58 a4 	call  1b32c <MMAP_SEGMENT_1+0x153cc>
    50a0:	40 00 54 a0 	call  1a320 <MMAP_SEGMENT_1+0x143c0>
    50a4:	40 00 54 a0 	call  1a324 <MMAP_SEGMENT_1+0x143c4>
    50a8:	40 00 57 b8 	call  1af88 <MMAP_SEGMENT_1+0x15028>
    50ac:	40 00 54 a0 	call  1a32c <MMAP_SEGMENT_1+0x143cc>
    50b0:	40 00 57 b0 	call  1af70 <MMAP_SEGMENT_1+0x15010>
    50b4:	40 00 54 a0 	call  1a334 <MMAP_SEGMENT_1+0x143d4>
    50b8:	40 00 54 a0 	call  1a338 <MMAP_SEGMENT_1+0x143d8>
    50bc:	40 00 57 98 	call  1af1c <MMAP_SEGMENT_1+0x14fbc>
    50c0:	40 00 55 6c 	call  1a670 <MMAP_SEGMENT_1+0x14710>
    50c4:	40 00 54 00 	call  1a0c4 <MMAP_SEGMENT_1+0x14164>
    50c8:	40 00 54 00 	call  1a0c8 <MMAP_SEGMENT_1+0x14168>
    50cc:	40 00 55 60 	call  1a64c <MMAP_SEGMENT_1+0x146ec>
    50d0:	40 00 54 00 	call  1a0d0 <MMAP_SEGMENT_1+0x14170>
    50d4:	40 00 54 00 	call  1a0d4 <MMAP_SEGMENT_1+0x14174>
    50d8:	40 00 54 00 	call  1a0d8 <MMAP_SEGMENT_1+0x14178>
    50dc:	40 00 54 00 	call  1a0dc <MMAP_SEGMENT_1+0x1417c>
    50e0:	40 00 54 00 	call  1a0e0 <MMAP_SEGMENT_1+0x14180>
    50e4:	40 00 54 00 	call  1a0e4 <MMAP_SEGMENT_1+0x14184>
    50e8:	40 00 54 00 	call  1a0e8 <MMAP_SEGMENT_1+0x14188>
    50ec:	40 00 55 54 	call  1a63c <MMAP_SEGMENT_1+0x146dc>
    50f0:	40 00 54 00 	call  1a0f0 <MMAP_SEGMENT_1+0x14190>
    50f4:	40 00 55 48 	call  1a614 <MMAP_SEGMENT_1+0x146b4>
    50f8:	40 00 54 00 	call  1a0f8 <MMAP_SEGMENT_1+0x14198>
    50fc:	40 00 54 00 	call  1a0fc <MMAP_SEGMENT_1+0x1419c>
    5100:	40 00 55 3c 	call  1a5f0 <MMAP_SEGMENT_1+0x14690>
    5104:	9d e3 bf 58 	save  %sp, -168, %sp
    5108:	80 8f 60 40 	btst  0x40, %i5
    510c:	02 80 00 79 	be  52f0 <MMAP_SEGMENT_0+0x5250>
    5110:	1f 20 00 00 	sethi  %hi(0x80000000), %o7
    5114:	1f 20 00 00 	sethi  %hi(0x80000000), %o7
    5118:	9e 13 e0 d8 	or  %o7, 0xd8, %o7	! 800000d8 <MMAP_SEGMENT_1+0x7fffa178>
    511c:	80 8f 60 10 	btst  0x10, %i5
    5120:	32 80 00 02 	bne,a   5128 <MMAP_SEGMENT_0+0x5088>
    5124:	ba 0f 7f fe 	and  %i5, -2, %i5
    5128:	82 06 bf fe 	add  %i2, -2, %g1
    512c:	80 a0 60 22 	cmp  %g1, 0x22
    5130:	18 80 00 83 	bgu  533c <MMAP_SEGMENT_0+0x529c>
    5134:	82 0f 60 01 	and  %i5, 1, %g1
    5138:	80 a0 00 01 	cmp  %g0, %g1
    513c:	98 10 20 00 	clr  %o4
    5140:	9a 40 3f ff 	addx  %g0, -1, %o5
    5144:	80 8f 60 02 	btst  2, %i5
    5148:	9a 0b 60 f0 	and  %o5, 0xf0, %o5
    514c:	02 80 00 0c 	be  517c <MMAP_SEGMENT_0+0x50dc>
    5150:	9a 03 60 30 	add  %o5, 0x30, %o5
    5154:	80 a6 60 00 	cmp  %i1, 0
    5158:	06 80 00 8a 	bl  5380 <MMAP_SEGMENT_0+0x52e0>
    515c:	80 8f 60 04 	btst  4, %i5
    5160:	32 80 00 7a 	bne,a   5348 <MMAP_SEGMENT_0+0x52a8>
    5164:	b6 06 ff ff 	add  %i3, -1, %i3
    5168:	80 8f 60 08 	btst  8, %i5
    516c:	02 80 00 05 	be  5180 <MMAP_SEGMENT_0+0x50e0>
    5170:	96 8f 60 20 	andcc  %i5, 0x20, %o3
    5174:	b6 06 ff ff 	add  %i3, -1, %i3
    5178:	98 10 20 20 	mov  0x20, %o4
    517c:	96 8f 60 20 	andcc  %i5, 0x20, %o3
    5180:	02 80 00 08 	be  51a0 <MMAP_SEGMENT_0+0x5100>
    5184:	80 a6 60 00 	cmp  %i1, 0
    5188:	80 a6 a0 10 	cmp  %i2, 0x10
    518c:	02 80 00 78 	be  536c <MMAP_SEGMENT_0+0x52cc>
    5190:	82 1e a0 08 	xor  %i2, 8, %g1
    5194:	80 a0 00 01 	cmp  %g0, %g1
    5198:	b6 46 ff ff 	addx  %i3, -1, %i3
    519c:	80 a6 60 00 	cmp  %i1, 0
    51a0:	12 80 00 57 	bne  52fc <MMAP_SEGMENT_0+0x525c>
    51a4:	82 10 20 00 	clr  %g1
    51a8:	82 10 20 30 	mov  0x30, %g1
    51ac:	88 07 bf b8 	add  %fp, -72, %g4
    51b0:	c2 2f bf b8 	stb  %g1, [ %fp + -72 ]
    51b4:	82 10 20 01 	mov  1, %g1
    51b8:	80 a0 40 1c 	cmp  %g1, %i4
    51bc:	16 80 00 03 	bge  51c8 <MMAP_SEGMENT_0+0x5128>
    51c0:	86 10 00 01 	mov  %g1, %g3
    51c4:	86 10 00 1c 	mov  %i4, %g3
    51c8:	80 8f 60 11 	btst  0x11, %i5
    51cc:	12 80 00 0d 	bne  5200 <MMAP_SEGMENT_0+0x5160>
    51d0:	b8 26 c0 03 	sub  %i3, %g3, %i4
    51d4:	80 a7 20 00 	cmp  %i4, 0
    51d8:	04 80 00 76 	ble  53b0 <MMAP_SEGMENT_0+0x5310>
    51dc:	84 07 3f ff 	add  %i4, -1, %g2
    51e0:	b8 06 00 1c 	add  %i0, %i4, %i4
    51e4:	84 10 20 20 	mov  0x20, %g2
    51e8:	c4 2e 00 00 	stb  %g2, [ %i0 ]
    51ec:	b0 06 20 01 	inc  %i0
    51f0:	80 a6 00 1c 	cmp  %i0, %i4
    51f4:	32 bf ff fe 	bne,a   51ec <MMAP_SEGMENT_0+0x514c>
    51f8:	c4 2e 00 00 	stb  %g2, [ %i0 ]
    51fc:	b8 10 3f ff 	mov  -1, %i4
    5200:	80 8b 20 ff 	btst  0xff, %o4
    5204:	02 80 00 04 	be  5214 <MMAP_SEGMENT_0+0x5174>
    5208:	80 a2 e0 00 	cmp  %o3, 0
    520c:	d8 2e 00 00 	stb  %o4, [ %i0 ]
    5210:	b0 06 20 01 	inc  %i0
    5214:	02 80 00 08 	be  5234 <MMAP_SEGMENT_0+0x5194>
    5218:	80 8f 60 10 	btst  0x10, %i5
    521c:	80 a6 a0 08 	cmp  %i2, 8
    5220:	02 80 00 4f 	be  535c <MMAP_SEGMENT_0+0x52bc>
    5224:	80 a6 a0 10 	cmp  %i2, 0x10
    5228:	22 80 00 5d 	be,a   539c <MMAP_SEGMENT_0+0x52fc>
    522c:	84 10 20 30 	mov  0x30, %g2
    5230:	80 8f 60 10 	btst  0x10, %i5
    5234:	12 80 00 0d 	bne  5268 <MMAP_SEGMENT_0+0x51c8>
    5238:	80 a0 c0 01 	cmp  %g3, %g1
    523c:	80 a7 20 00 	cmp  %i4, 0
    5240:	04 80 00 5e 	ble  53b8 <MMAP_SEGMENT_0+0x5318>
    5244:	84 07 3f ff 	add  %i4, -1, %g2
    5248:	b8 06 00 1c 	add  %i0, %i4, %i4
    524c:	da 2e 00 00 	stb  %o5, [ %i0 ]
    5250:	b0 06 20 01 	inc  %i0
    5254:	80 a6 00 1c 	cmp  %i0, %i4
    5258:	32 bf ff fe 	bne,a   5250 <MMAP_SEGMENT_0+0x51b0>
    525c:	da 2e 00 00 	stb  %o5, [ %i0 ]
    5260:	b8 10 3f ff 	mov  -1, %i4
    5264:	80 a0 c0 01 	cmp  %g3, %g1
    5268:	04 80 00 09 	ble  528c <MMAP_SEGMENT_0+0x51ec>
    526c:	82 20 c0 01 	sub  %g3, %g1, %g1
    5270:	86 10 20 30 	mov  0x30, %g3
    5274:	82 06 00 01 	add  %i0, %g1, %g1
    5278:	c6 2e 00 00 	stb  %g3, [ %i0 ]
    527c:	b0 06 20 01 	inc  %i0
    5280:	80 a6 00 01 	cmp  %i0, %g1
    5284:	32 bf ff fe 	bne,a   527c <MMAP_SEGMENT_0+0x51dc>
    5288:	c6 2e 00 00 	stb  %g3, [ %i0 ]
    528c:	82 10 00 19 	mov  %i1, %g1
    5290:	84 10 00 18 	mov  %i0, %g2
    5294:	c6 09 00 01 	ldub  [ %g4 + %g1 ], %g3
    5298:	c6 28 80 00 	stb  %g3, [ %g2 ]
    529c:	82 00 7f ff 	add  %g1, -1, %g1
    52a0:	86 00 60 01 	add  %g1, 1, %g3
    52a4:	80 a0 e0 00 	cmp  %g3, 0
    52a8:	14 bf ff fb 	bg  5294 <MMAP_SEGMENT_0+0x51f4>
    52ac:	84 00 a0 01 	inc  %g2
    52b0:	82 38 00 19 	xnor  %g0, %i1, %g1
    52b4:	80 a7 20 00 	cmp  %i4, 0
    52b8:	83 38 60 1f 	sra  %g1, 0x1f, %g1
    52bc:	82 0e 40 01 	and  %i1, %g1, %g1
    52c0:	82 00 60 01 	inc  %g1
    52c4:	04 80 00 09 	ble  52e8 <MMAP_SEGMENT_0+0x5248>
    52c8:	b0 06 00 01 	add  %i0, %g1, %i0
    52cc:	84 06 00 1c 	add  %i0, %i4, %g2
    52d0:	82 10 20 20 	mov  0x20, %g1
    52d4:	c2 2e 00 00 	stb  %g1, [ %i0 ]
    52d8:	b0 06 20 01 	inc  %i0
    52dc:	80 a6 00 02 	cmp  %i0, %g2
    52e0:	32 bf ff fe 	bne,a   52d8 <MMAP_SEGMENT_0+0x5238>
    52e4:	c2 2e 00 00 	stb  %g1, [ %i0 ]
    52e8:	81 c7 e0 08 	ret 
    52ec:	81 e8 00 00 	restore 
    52f0:	10 bf ff 8b 	b  511c <MMAP_SEGMENT_0+0x507c>
    52f4:	9e 13 e0 b0 	or  %o7, 0xb0, %o7
    52f8:	82 10 20 00 	clr  %g1
    52fc:	88 07 bf b8 	add  %fp, -72, %g4
    5300:	81 80 20 00 	mov  %g0, %y
    5304:	01 00 00 00 	nop 
    5308:	01 00 00 00 	nop 
    530c:	01 00 00 00 	nop 
    5310:	84 76 40 1a 	udiv  %i1, %i2, %g2
    5314:	86 58 80 1a 	smul  %g2, %i2, %g3
    5318:	b2 26 40 03 	sub  %i1, %g3, %i1
    531c:	c6 0b c0 19 	ldub  [ %o7 + %i1 ], %g3
    5320:	c6 29 00 01 	stb  %g3, [ %g4 + %g1 ]
    5324:	b2 10 00 02 	mov  %g2, %i1
    5328:	80 a0 a0 00 	cmp  %g2, 0
    532c:	12 bf ff f5 	bne  5300 <MMAP_SEGMENT_0+0x5260>
    5330:	82 00 60 01 	inc  %g1
    5334:	10 bf ff a1 	b  51b8 <MMAP_SEGMENT_0+0x5118>
    5338:	b2 00 7f ff 	add  %g1, -1, %i1
    533c:	b0 10 20 00 	clr  %i0
    5340:	81 c7 e0 08 	ret 
    5344:	81 e8 00 00 	restore 
    5348:	96 8f 60 20 	andcc  %i5, 0x20, %o3
    534c:	02 bf ff 94 	be  519c <MMAP_SEGMENT_0+0x50fc>
    5350:	98 10 20 2b 	mov  0x2b, %o4
    5354:	10 bf ff 8e 	b  518c <MMAP_SEGMENT_0+0x50ec>
    5358:	80 a6 a0 10 	cmp  %i2, 0x10
    535c:	84 10 20 30 	mov  0x30, %g2
    5360:	c4 2e 00 00 	stb  %g2, [ %i0 ]
    5364:	10 bf ff b3 	b  5230 <MMAP_SEGMENT_0+0x5190>
    5368:	b0 06 20 01 	inc  %i0
    536c:	80 a6 60 00 	cmp  %i1, 0
    5370:	12 bf ff e2 	bne  52f8 <MMAP_SEGMENT_0+0x5258>
    5374:	b6 06 ff fe 	add  %i3, -2, %i3
    5378:	10 bf ff 8d 	b  51ac <MMAP_SEGMENT_0+0x510c>
    537c:	82 10 20 30 	mov  0x30, %g1
    5380:	b2 20 00 19 	neg  %i1
    5384:	b6 06 ff ff 	add  %i3, -1, %i3
    5388:	96 8f 60 20 	andcc  %i5, 0x20, %o3
    538c:	02 bf ff 84 	be  519c <MMAP_SEGMENT_0+0x50fc>
    5390:	98 10 20 2d 	mov  0x2d, %o4
    5394:	10 bf ff 7e 	b  518c <MMAP_SEGMENT_0+0x50ec>
    5398:	80 a6 a0 10 	cmp  %i2, 0x10
    539c:	c4 2e 00 00 	stb  %g2, [ %i0 ]
    53a0:	84 10 20 78 	mov  0x78, %g2
    53a4:	c4 2e 20 01 	stb  %g2, [ %i0 + 1 ]
    53a8:	10 bf ff a2 	b  5230 <MMAP_SEGMENT_0+0x5190>
    53ac:	b0 06 20 02 	add  %i0, 2, %i0
    53b0:	10 bf ff 94 	b  5200 <MMAP_SEGMENT_0+0x5160>
    53b4:	b8 10 00 02 	mov  %g2, %i4
    53b8:	10 bf ff ab 	b  5264 <MMAP_SEGMENT_0+0x51c4>
    53bc:	b8 10 00 02 	mov  %g2, %i4
    53c0:	9d e3 bf a0 	save  %sp, -96, %sp
    53c4:	7f ff fc d6 	call  471c <MMAP_SEGMENT_0+0x467c>
    53c8:	90 10 00 18 	mov  %i0, %o0
    53cc:	80 a2 20 00 	cmp  %o0, 0
    53d0:	02 bf ff fd 	be  53c4 <MMAP_SEGMENT_0+0x5324>
    53d4:	05 3f ff cc 	sethi  %hi(0xffff3000), %g2
    53d8:	84 10 a2 00 	or  %g2, 0x200, %g2	! ffff3200 <MMAP_SEGMENT_1+0xfffed2a0>
    53dc:	c2 80 84 00 	lda  [ %g2 ] #ASI_SCRATCHPAD, %g1
    53e0:	82 08 60 09 	and  %g1, 9, %g1
    53e4:	80 a0 60 09 	cmp  %g1, 9
    53e8:	02 bf ff fd 	be  53dc <MMAP_SEGMENT_0+0x533c>
    53ec:	01 00 00 00 	nop 
    53f0:	81 c7 e0 08 	ret 
    53f4:	81 e8 00 00 	restore 
    53f8:	9d e3 bb 80 	save  %sp, -1152, %sp
    53fc:	fa 27 a0 58 	st  %i5, [ %fp + 0x58 ]
    5400:	aa 07 a0 48 	add  %fp, 0x48, %l5
    5404:	f2 27 a0 48 	st  %i1, [ %fp + 0x48 ]
    5408:	f4 27 a0 4c 	st  %i2, [ %fp + 0x4c ]
    540c:	f6 27 a0 50 	st  %i3, [ %fp + 0x50 ]
    5410:	f8 27 a0 54 	st  %i4, [ %fp + 0x54 ]
    5414:	ea 27 bb e4 	st  %l5, [ %fp + -1052 ]
    5418:	c4 0e 00 00 	ldub  [ %i0 ], %g2
    541c:	83 28 a0 18 	sll  %g2, 0x18, %g1
    5420:	80 a0 60 00 	cmp  %g1, 0
    5424:	02 80 01 ec 	be  5bd4 <MMAP_SEGMENT_0+0x5b34>
    5428:	ba 07 bc 00 	add  %fp, -1024, %i5
    542c:	2d 10 00 14 	sethi  %hi(0x40005000), %l6
    5430:	90 10 00 1d 	mov  %i5, %o0
    5434:	a2 10 20 25 	mov  0x25, %l1
    5438:	39 10 00 13 	sethi  %hi(0x40004c00), %i4
    543c:	37 20 00 00 	sethi  %hi(0x80000000), %i3
    5440:	b2 10 20 30 	mov  0x30, %i1
    5444:	b4 10 20 2e 	mov  0x2e, %i2
    5448:	a8 10 20 20 	mov  0x20, %l4
    544c:	a0 10 20 01 	mov  1, %l0
    5450:	25 20 00 00 	sethi  %hi(0x80000000), %l2
    5454:	10 80 00 08 	b  5474 <MMAP_SEGMENT_0+0x53d4>
    5458:	27 20 00 00 	sethi  %hi(0x80000000), %l3
    545c:	90 02 20 01 	inc  %o0
    5460:	c4 0e 20 01 	ldub  [ %i0 + 1 ], %g2
    5464:	83 28 a0 18 	sll  %g2, 0x18, %g1
    5468:	80 a0 60 00 	cmp  %g1, 0
    546c:	02 80 00 47 	be  5588 <MMAP_SEGMENT_0+0x54e8>
    5470:	b0 06 20 01 	inc  %i0
    5474:	83 38 60 18 	sra  %g1, 0x18, %g1
    5478:	80 a0 60 25 	cmp  %g1, 0x25
    547c:	32 bf ff f8 	bne,a   545c <MMAP_SEGMENT_0+0x53bc>
    5480:	c4 2a 00 00 	stb  %g2, [ %o0 ]
    5484:	9a 10 20 00 	clr  %o5
    5488:	c2 0e 20 01 	ldub  [ %i0 + 1 ], %g1
    548c:	86 00 7f e0 	add  %g1, -32, %g3
    5490:	86 08 e0 ff 	and  %g3, 0xff, %g3
    5494:	80 a0 e0 10 	cmp  %g3, 0x10
    5498:	08 80 00 4c 	bleu  55c8 <MMAP_SEGMENT_0+0x5528>
    549c:	84 06 20 01 	add  %i0, 1, %g2
    54a0:	86 00 7f d0 	add  %g1, -48, %g3
    54a4:	86 08 e0 ff 	and  %g3, 0xff, %g3
    54a8:	80 a0 e0 09 	cmp  %g3, 9
    54ac:	18 80 00 bd 	bgu  57a0 <MMAP_SEGMENT_0+0x5700>
    54b0:	87 28 60 18 	sll  %g1, 0x18, %g3
    54b4:	96 10 20 00 	clr  %o3
    54b8:	86 02 c0 0b 	add  %o3, %o3, %g3
    54bc:	83 28 60 18 	sll  %g1, 0x18, %g1
    54c0:	83 38 60 18 	sra  %g1, 0x18, %g1
    54c4:	97 2a e0 03 	sll  %o3, 3, %o3
    54c8:	84 00 a0 01 	inc  %g2
    54cc:	96 00 c0 0b 	add  %g3, %o3, %o3
    54d0:	96 02 c0 01 	add  %o3, %g1, %o3
    54d4:	c2 08 80 00 	ldub  [ %g2 ], %g1
    54d8:	86 00 7f d0 	add  %g1, -48, %g3
    54dc:	86 08 e0 ff 	and  %g3, 0xff, %g3
    54e0:	80 a0 e0 09 	cmp  %g3, 9
    54e4:	08 bf ff f5 	bleu  54b8 <MMAP_SEGMENT_0+0x5418>
    54e8:	96 02 ff d0 	add  %o3, -48, %o3
    54ec:	87 28 60 18 	sll  %g1, 0x18, %g3
    54f0:	b0 10 00 02 	mov  %g2, %i0
    54f4:	87 38 e0 18 	sra  %g3, 0x18, %g3
    54f8:	80 a0 e0 2e 	cmp  %g3, 0x2e
    54fc:	02 80 00 b2 	be  57c4 <MMAP_SEGMENT_0+0x5724>
    5500:	98 10 3f ff 	mov  -1, %o4
    5504:	84 08 7f df 	and  %g1, -33, %g2
    5508:	85 28 a0 18 	sll  %g2, 0x18, %g2
    550c:	85 38 a0 18 	sra  %g2, 0x18, %g2
    5510:	80 a0 a0 4c 	cmp  %g2, 0x4c
    5514:	12 80 00 06 	bne  552c <MMAP_SEGMENT_0+0x548c>
    5518:	86 10 3f ff 	mov  -1, %g3
    551c:	87 28 60 18 	sll  %g1, 0x18, %g3
    5520:	c2 0e 20 01 	ldub  [ %i0 + 1 ], %g1
    5524:	87 38 e0 18 	sra  %g3, 0x18, %g3
    5528:	b0 06 20 01 	inc  %i0
    552c:	84 00 7f bf 	add  %g1, -65, %g2
    5530:	84 08 a0 ff 	and  %g2, 0xff, %g2
    5534:	80 a0 a0 37 	cmp  %g2, 0x37
    5538:	08 80 00 38 	bleu  5618 <MMAP_SEGMENT_0+0x5578>
    553c:	88 17 23 40 	or  %i4, 0x340, %g4
    5540:	85 28 60 18 	sll  %g1, 0x18, %g2
    5544:	85 38 a0 18 	sra  %g2, 0x18, %g2
    5548:	80 a0 a0 25 	cmp  %g2, 0x25
    554c:	22 80 00 09 	be,a   5570 <MMAP_SEGMENT_0+0x54d0>
    5550:	c2 2a 00 00 	stb  %g1, [ %o0 ]
    5554:	e2 2a 00 00 	stb  %l1, [ %o0 ]
    5558:	90 02 20 01 	inc  %o0
    555c:	c4 4e 00 00 	ldsb  [ %i0 ], %g2
    5560:	80 a0 a0 00 	cmp  %g2, 0
    5564:	02 80 00 09 	be  5588 <MMAP_SEGMENT_0+0x54e8>
    5568:	c2 0e 00 00 	ldub  [ %i0 ], %g1
    556c:	c2 2a 00 00 	stb  %g1, [ %o0 ]
    5570:	90 02 20 01 	inc  %o0
    5574:	c4 0e 20 01 	ldub  [ %i0 + 1 ], %g2
    5578:	83 28 a0 18 	sll  %g2, 0x18, %g1
    557c:	80 a0 60 00 	cmp  %g1, 0
    5580:	12 bf ff bd 	bne  5474 <MMAP_SEGMENT_0+0x53d4>
    5584:	b0 06 20 01 	inc  %i0
    5588:	c0 2a 00 00 	clrb  [ %o0 ]
    558c:	d0 0f bc 00 	ldub  [ %fp + -1024 ], %o0
    5590:	91 2a 20 18 	sll  %o0, 0x18, %o0
    5594:	80 a2 20 00 	cmp  %o0, 0
    5598:	02 80 00 0a 	be  55c0 <MMAP_SEGMENT_0+0x5520>
    559c:	b0 10 20 00 	clr  %i0
    55a0:	7f ff ff 88 	call  53c0 <MMAP_SEGMENT_0+0x5320>
    55a4:	91 3a 20 18 	sra  %o0, 0x18, %o0
    55a8:	b0 06 20 01 	inc  %i0
    55ac:	d0 0f 40 18 	ldub  [ %i5 + %i0 ], %o0
    55b0:	91 2a 20 18 	sll  %o0, 0x18, %o0
    55b4:	80 a2 20 00 	cmp  %o0, 0
    55b8:	12 bf ff fa 	bne  55a0 <MMAP_SEGMENT_0+0x5500>
    55bc:	01 00 00 00 	nop 
    55c0:	81 c7 e0 08 	ret 
    55c4:	81 e8 00 00 	restore 
    55c8:	88 15 a0 20 	or  %l6, 0x20, %g4
    55cc:	87 28 e0 02 	sll  %g3, 2, %g3
    55d0:	c6 01 00 03 	ld  [ %g4 + %g3 ], %g3
    55d4:	81 c0 c0 00 	jmp  %g3
    55d8:	01 00 00 00 	nop 
    55dc:	9a 13 60 01 	or  %o5, 1, %o5
    55e0:	10 bf ff aa 	b  5488 <MMAP_SEGMENT_0+0x53e8>
    55e4:	b0 10 00 02 	mov  %g2, %i0
    55e8:	9a 13 60 10 	or  %o5, 0x10, %o5
    55ec:	10 bf ff a7 	b  5488 <MMAP_SEGMENT_0+0x53e8>
    55f0:	b0 10 00 02 	mov  %g2, %i0
    55f4:	9a 13 60 04 	or  %o5, 4, %o5
    55f8:	10 bf ff a4 	b  5488 <MMAP_SEGMENT_0+0x53e8>
    55fc:	b0 10 00 02 	mov  %g2, %i0
    5600:	9a 13 60 20 	or  %o5, 0x20, %o5
    5604:	10 bf ff a1 	b  5488 <MMAP_SEGMENT_0+0x53e8>
    5608:	b0 10 00 02 	mov  %g2, %i0
    560c:	9a 13 60 08 	or  %o5, 8, %o5
    5610:	10 bf ff 9e 	b  5488 <MMAP_SEGMENT_0+0x53e8>
    5614:	b0 10 00 02 	mov  %g2, %i0
    5618:	85 28 a0 02 	sll  %g2, 2, %g2
    561c:	c4 01 00 02 	ld  [ %g4 + %g2 ], %g2
    5620:	81 c0 80 00 	jmp  %g2
    5624:	01 00 00 00 	nop 
    5628:	9a 13 60 40 	or  %o5, 0x40, %o5
    562c:	80 a0 e0 6c 	cmp  %g3, 0x6c
    5630:	02 80 01 04 	be  5a40 <MMAP_SEGMENT_0+0x59a0>
    5634:	84 10 20 00 	clr  %g2
    5638:	de 05 40 00 	ld  [ %l5 ], %o7
    563c:	aa 05 60 04 	add  %l5, 4, %l5
    5640:	c2 0b c0 02 	ldub  [ %o7 + %g2 ], %g1
    5644:	80 a0 60 00 	cmp  %g1, 0
    5648:	12 80 00 0e 	bne  5680 <MMAP_SEGMENT_0+0x55e0>
    564c:	88 10 20 00 	clr  %g4
    5650:	82 07 80 04 	add  %fp, %g4, %g1
    5654:	f2 28 7b e8 	stb  %i1, [ %g1 + -1048 ]
    5658:	84 00 a0 01 	inc  %g2
    565c:	80 a0 a0 04 	cmp  %g2, 4
    5660:	02 80 00 2b 	be  570c <MMAP_SEGMENT_0+0x566c>
    5664:	88 01 20 01 	inc  %g4
    5668:	82 07 80 04 	add  %fp, %g4, %g1
    566c:	f4 28 7b e8 	stb  %i2, [ %g1 + -1048 ]
    5670:	c2 0b c0 02 	ldub  [ %o7 + %g2 ], %g1
    5674:	80 a0 60 00 	cmp  %g1, 0
    5678:	02 bf ff f6 	be  5650 <MMAP_SEGMENT_0+0x55b0>
    567c:	88 01 20 01 	inc  %g4
    5680:	80 a0 60 63 	cmp  %g1, 0x63
    5684:	04 80 00 dd 	ble  59f8 <MMAP_SEGMENT_0+0x5958>
    5688:	80 a0 60 09 	cmp  %g1, 9
    568c:	87 38 60 1f 	sra  %g1, 0x1f, %g3
    5690:	81 80 e0 00 	mov  %g3, %y
    5694:	01 00 00 00 	nop 
    5698:	01 00 00 00 	nop 
    569c:	01 00 00 00 	nop 
    56a0:	98 78 60 64 	sdiv  %g1, 0x64, %o4
    56a4:	86 16 e0 b0 	or  %i3, 0xb0, %g3
    56a8:	92 5b 20 64 	smul  %o4, 0x64, %o1
    56ac:	d8 08 c0 0c 	ldub  [ %g3 + %o4 ], %o4
    56b0:	94 07 80 04 	add  %fp, %g4, %o2
    56b4:	82 20 40 09 	sub  %g1, %o1, %g1
    56b8:	d8 2a bb e8 	stb  %o4, [ %o2 + -1048 ]
    56bc:	88 01 20 02 	add  %g4, 2, %g4
    56c0:	93 38 60 1f 	sra  %g1, 0x1f, %o1
    56c4:	81 82 60 00 	mov  %o1, %y
    56c8:	01 00 00 00 	nop 
    56cc:	01 00 00 00 	nop 
    56d0:	01 00 00 00 	nop 
    56d4:	98 78 60 0a 	sdiv  %g1, 0xa, %o4
    56d8:	ee 08 c0 0c 	ldub  [ %g3 + %o4 ], %l7
    56dc:	92 03 00 0c 	add  %o4, %o4, %o1
    56e0:	ee 2a bb e9 	stb  %l7, [ %o2 + -1047 ]
    56e4:	99 2b 20 03 	sll  %o4, 3, %o4
    56e8:	98 02 40 0c 	add  %o1, %o4, %o4
    56ec:	82 20 40 0c 	sub  %g1, %o4, %g1
    56f0:	98 07 80 04 	add  %fp, %g4, %o4
    56f4:	c2 08 c0 01 	ldub  [ %g3 + %g1 ], %g1
    56f8:	c2 2b 3b e8 	stb  %g1, [ %o4 + -1048 ]
    56fc:	84 00 a0 01 	inc  %g2
    5700:	80 a0 a0 04 	cmp  %g2, 4
    5704:	12 bf ff d9 	bne  5668 <MMAP_SEGMENT_0+0x55c8>
    5708:	88 01 20 01 	inc  %g4
    570c:	80 8b 60 10 	btst  0x10, %o5
    5710:	32 80 00 11 	bne,a   5754 <MMAP_SEGMENT_0+0x56b4>
    5714:	82 10 20 00 	clr  %g1
    5718:	80 a2 c0 04 	cmp  %o3, %g4
    571c:	04 80 01 36 	ble  5bf4 <MMAP_SEGMENT_0+0x5b54>
    5720:	82 02 ff ff 	add  %o3, -1, %g1
    5724:	82 22 c0 04 	sub  %o3, %g4, %g1
    5728:	82 02 00 01 	add  %o0, %g1, %g1
    572c:	e8 2a 00 00 	stb  %l4, [ %o0 ]
    5730:	90 02 20 01 	inc  %o0
    5734:	80 a2 00 01 	cmp  %o0, %g1
    5738:	32 bf ff fe 	bne,a   5730 <MMAP_SEGMENT_0+0x5690>
    573c:	e8 2a 00 00 	stb  %l4, [ %o0 ]
    5740:	82 24 00 0b 	sub  %l0, %o3, %g1
    5744:	96 02 ff fe 	add  %o3, -2, %o3
    5748:	82 01 00 01 	add  %g4, %g1, %g1
    574c:	96 02 c0 01 	add  %o3, %g1, %o3
    5750:	82 10 20 00 	clr  %g1
    5754:	86 07 bb e8 	add  %fp, -1048, %g3
    5758:	c4 08 c0 01 	ldub  [ %g3 + %g1 ], %g2
    575c:	c4 2a 00 01 	stb  %g2, [ %o0 + %g1 ]
    5760:	82 00 60 01 	inc  %g1
    5764:	80 a0 40 04 	cmp  %g1, %g4
    5768:	32 bf ff fd 	bne,a   575c <MMAP_SEGMENT_0+0x56bc>
    576c:	c4 08 c0 01 	ldub  [ %g3 + %g1 ], %g2
    5770:	80 a0 40 0b 	cmp  %g1, %o3
    5774:	16 80 00 09 	bge  5798 <MMAP_SEGMENT_0+0x56f8>
    5778:	90 02 00 01 	add  %o0, %g1, %o0
    577c:	82 22 c0 01 	sub  %o3, %g1, %g1
    5780:	82 02 00 01 	add  %o0, %g1, %g1
    5784:	e8 2a 00 00 	stb  %l4, [ %o0 ]
    5788:	90 02 20 01 	inc  %o0
    578c:	80 a2 00 01 	cmp  %o0, %g1
    5790:	32 bf ff fe 	bne,a   5788 <MMAP_SEGMENT_0+0x56e8>
    5794:	e8 2a 00 00 	stb  %l4, [ %o0 ]
    5798:	10 bf ff 33 	b  5464 <MMAP_SEGMENT_0+0x53c4>
    579c:	c4 0e 20 01 	ldub  [ %i0 + 1 ], %g2
    57a0:	89 38 e0 18 	sra  %g3, 0x18, %g4
    57a4:	80 a1 20 2a 	cmp  %g4, 0x2a
    57a8:	02 80 00 8b 	be  59d4 <MMAP_SEGMENT_0+0x5934>
    57ac:	87 38 e0 18 	sra  %g3, 0x18, %g3
    57b0:	b0 10 00 02 	mov  %g2, %i0
    57b4:	96 10 3f ff 	mov  -1, %o3
    57b8:	80 a0 e0 2e 	cmp  %g3, 0x2e
    57bc:	12 bf ff 52 	bne  5504 <MMAP_SEGMENT_0+0x5464>
    57c0:	98 10 3f ff 	mov  -1, %o4
    57c4:	c2 0e 20 01 	ldub  [ %i0 + 1 ], %g1
    57c8:	86 00 7f d0 	add  %g1, -48, %g3
    57cc:	86 08 e0 ff 	and  %g3, 0xff, %g3
    57d0:	80 a0 e0 09 	cmp  %g3, 9
    57d4:	18 80 00 12 	bgu  581c <MMAP_SEGMENT_0+0x577c>
    57d8:	84 06 20 01 	add  %i0, 1, %g2
    57dc:	98 10 20 00 	clr  %o4
    57e0:	86 03 00 0c 	add  %o4, %o4, %g3
    57e4:	83 28 60 18 	sll  %g1, 0x18, %g1
    57e8:	83 38 60 18 	sra  %g1, 0x18, %g1
    57ec:	99 2b 20 03 	sll  %o4, 3, %o4
    57f0:	84 00 a0 01 	inc  %g2
    57f4:	98 00 c0 0c 	add  %g3, %o4, %o4
    57f8:	98 03 00 01 	add  %o4, %g1, %o4
    57fc:	c2 08 80 00 	ldub  [ %g2 ], %g1
    5800:	86 00 7f d0 	add  %g1, -48, %g3
    5804:	86 08 e0 ff 	and  %g3, 0xff, %g3
    5808:	80 a0 e0 09 	cmp  %g3, 9
    580c:	08 bf ff f5 	bleu  57e0 <MMAP_SEGMENT_0+0x5740>
    5810:	98 03 3f d0 	add  %o4, -48, %o4
    5814:	10 bf ff 3c 	b  5504 <MMAP_SEGMENT_0+0x5464>
    5818:	b0 10 00 02 	mov  %g2, %i0
    581c:	87 28 60 18 	sll  %g1, 0x18, %g3
    5820:	87 38 e0 18 	sra  %g3, 0x18, %g3
    5824:	80 a0 e0 2a 	cmp  %g3, 0x2a
    5828:	02 80 00 e2 	be  5bb0 <MMAP_SEGMENT_0+0x5b10>
    582c:	98 10 20 00 	clr  %o4
    5830:	10 bf ff 35 	b  5504 <MMAP_SEGMENT_0+0x5464>
    5834:	b0 10 00 02 	mov  %g2, %i0
    5838:	94 10 20 10 	mov  0x10, %o2
    583c:	7f ff fe 32 	call  5104 <MMAP_SEGMENT_0+0x5064>
    5840:	d2 05 40 00 	ld  [ %l5 ], %o1
    5844:	aa 05 60 04 	add  %l5, 4, %l5
    5848:	10 bf ff 07 	b  5464 <MMAP_SEGMENT_0+0x53c4>
    584c:	c4 0e 20 01 	ldub  [ %i0 + 1 ], %g2
    5850:	10 bf ff fb 	b  583c <MMAP_SEGMENT_0+0x579c>
    5854:	94 10 20 0a 	mov  0xa, %o2
    5858:	c8 05 40 00 	ld  [ %l5 ], %g4
    585c:	80 a1 20 00 	cmp  %g4, 0
    5860:	02 80 00 e1 	be  5be4 <MMAP_SEGMENT_0+0x5b44>
    5864:	aa 05 60 04 	add  %l5, 4, %l5
    5868:	c2 49 00 00 	ldsb  [ %g4 ], %g1
    586c:	80 a0 60 00 	cmp  %g1, 0
    5870:	02 80 00 df 	be  5bec <MMAP_SEGMENT_0+0x5b4c>
    5874:	80 a3 20 00 	cmp  %o4, 0
    5878:	02 80 00 dd 	be  5bec <MMAP_SEGMENT_0+0x5b4c>
    587c:	82 10 00 04 	mov  %g4, %g1
    5880:	10 80 00 05 	b  5894 <MMAP_SEGMENT_0+0x57f4>
    5884:	82 00 60 01 	inc  %g1
    5888:	02 80 00 08 	be  58a8 <MMAP_SEGMENT_0+0x5808>
    588c:	86 20 40 04 	sub  %g1, %g4, %g3
    5890:	82 00 60 01 	inc  %g1
    5894:	c4 48 40 00 	ldsb  [ %g1 ], %g2
    5898:	80 a0 a0 00 	cmp  %g2, 0
    589c:	32 bf ff fb 	bne,a   5888 <MMAP_SEGMENT_0+0x57e8>
    58a0:	98 83 3f ff 	addcc  %o4, -1, %o4
    58a4:	86 20 40 04 	sub  %g1, %g4, %g3
    58a8:	80 8b 60 10 	btst  0x10, %o5
    58ac:	12 80 00 11 	bne  58f0 <MMAP_SEGMENT_0+0x5850>
    58b0:	80 a0 e0 00 	cmp  %g3, 0
    58b4:	80 a2 c0 03 	cmp  %o3, %g3
    58b8:	04 80 00 d1 	ble  5bfc <MMAP_SEGMENT_0+0x5b5c>
    58bc:	82 02 ff ff 	add  %o3, -1, %g1
    58c0:	82 22 c0 03 	sub  %o3, %g3, %g1
    58c4:	82 02 00 01 	add  %o0, %g1, %g1
    58c8:	e8 2a 00 00 	stb  %l4, [ %o0 ]
    58cc:	90 02 20 01 	inc  %o0
    58d0:	80 a2 00 01 	cmp  %o0, %g1
    58d4:	32 bf ff fe 	bne,a   58cc <MMAP_SEGMENT_0+0x582c>
    58d8:	e8 2a 00 00 	stb  %l4, [ %o0 ]
    58dc:	82 24 00 0b 	sub  %l0, %o3, %g1
    58e0:	96 02 ff fe 	add  %o3, -2, %o3
    58e4:	82 00 40 03 	add  %g1, %g3, %g1
    58e8:	96 02 c0 01 	add  %o3, %g1, %o3
    58ec:	80 a0 e0 00 	cmp  %g3, 0
    58f0:	04 80 00 0b 	ble  591c <MMAP_SEGMENT_0+0x587c>
    58f4:	82 22 c0 03 	sub  %o3, %g3, %g1
    58f8:	82 10 20 00 	clr  %g1
    58fc:	c4 09 00 01 	ldub  [ %g4 + %g1 ], %g2
    5900:	c4 2a 00 01 	stb  %g2, [ %o0 + %g1 ]
    5904:	82 00 60 01 	inc  %g1
    5908:	80 a0 40 03 	cmp  %g1, %g3
    590c:	32 bf ff fd 	bne,a   5900 <MMAP_SEGMENT_0+0x5860>
    5910:	c4 09 00 01 	ldub  [ %g4 + %g1 ], %g2
    5914:	90 02 00 03 	add  %o0, %g3, %o0
    5918:	82 22 c0 03 	sub  %o3, %g3, %g1
    591c:	80 a2 c0 03 	cmp  %o3, %g3
    5920:	04 bf ff 9e 	ble  5798 <MMAP_SEGMENT_0+0x56f8>
    5924:	82 02 00 01 	add  %o0, %g1, %g1
    5928:	e8 2a 00 00 	stb  %l4, [ %o0 ]
    592c:	90 02 20 01 	inc  %o0
    5930:	80 a2 00 01 	cmp  %o0, %g1
    5934:	32 bf ff fe 	bne,a   592c <MMAP_SEGMENT_0+0x588c>
    5938:	e8 2a 00 00 	stb  %l4, [ %o0 ]
    593c:	10 bf fe ca 	b  5464 <MMAP_SEGMENT_0+0x53c4>
    5940:	c4 0e 20 01 	ldub  [ %i0 + 1 ], %g2
    5944:	80 a2 ff ff 	cmp  %o3, -1
    5948:	22 80 00 98 	be,a   5ba8 <MMAP_SEGMENT_0+0x5b08>
    594c:	9a 13 60 01 	or  %o5, 1, %o5
    5950:	d2 05 40 00 	ld  [ %l5 ], %o1
    5954:	7f ff fd ec 	call  5104 <MMAP_SEGMENT_0+0x5064>
    5958:	94 10 20 10 	mov  0x10, %o2
    595c:	aa 05 60 04 	add  %l5, 4, %l5
    5960:	10 bf fe c1 	b  5464 <MMAP_SEGMENT_0+0x53c4>
    5964:	c4 0e 20 01 	ldub  [ %i0 + 1 ], %g2
    5968:	10 bf ff b5 	b  583c <MMAP_SEGMENT_0+0x579c>
    596c:	94 10 20 08 	mov  8, %o2
    5970:	9a 13 60 02 	or  %o5, 2, %o5
    5974:	10 bf ff b2 	b  583c <MMAP_SEGMENT_0+0x579c>
    5978:	94 10 20 0a 	mov  0xa, %o2
    597c:	80 8b 60 10 	btst  0x10, %o5
    5980:	32 80 00 7a 	bne,a   5b68 <MMAP_SEGMENT_0+0x5ac8>
    5984:	c2 05 40 00 	ld  [ %l5 ], %g1
    5988:	96 02 ff ff 	add  %o3, -1, %o3
    598c:	80 a2 e0 00 	cmp  %o3, 0
    5990:	24 80 00 76 	ble,a   5b68 <MMAP_SEGMENT_0+0x5ac8>
    5994:	c2 05 40 00 	ld  [ %l5 ], %g1
    5998:	82 02 00 0b 	add  %o0, %o3, %g1
    599c:	e8 2a 00 00 	stb  %l4, [ %o0 ]
    59a0:	90 02 20 01 	inc  %o0
    59a4:	80 a2 00 01 	cmp  %o0, %g1
    59a8:	32 bf ff fe 	bne,a   59a0 <MMAP_SEGMENT_0+0x5900>
    59ac:	e8 2a 00 00 	stb  %l4, [ %o0 ]
    59b0:	c2 05 40 00 	ld  [ %l5 ], %g1
    59b4:	aa 05 60 04 	add  %l5, 4, %l5
    59b8:	c2 2a 00 00 	stb  %g1, [ %o0 ]
    59bc:	90 02 20 01 	inc  %o0
    59c0:	10 bf fe a9 	b  5464 <MMAP_SEGMENT_0+0x53c4>
    59c4:	c4 0e 20 01 	ldub  [ %i0 + 1 ], %g2
    59c8:	9a 13 60 40 	or  %o5, 0x40, %o5
    59cc:	10 bf ff 9c 	b  583c <MMAP_SEGMENT_0+0x579c>
    59d0:	94 10 20 10 	mov  0x10, %o2
    59d4:	d6 05 40 00 	ld  [ %l5 ], %o3
    59d8:	84 06 20 02 	add  %i0, 2, %g2
    59dc:	aa 05 60 04 	add  %l5, 4, %l5
    59e0:	80 a2 e0 00 	cmp  %o3, 0
    59e4:	16 bf fe c2 	bge  54ec <MMAP_SEGMENT_0+0x544c>
    59e8:	c2 0e 20 02 	ldub  [ %i0 + 2 ], %g1
    59ec:	96 20 00 0b 	neg  %o3
    59f0:	10 bf fe bf 	b  54ec <MMAP_SEGMENT_0+0x544c>
    59f4:	9a 13 60 10 	or  %o5, 0x10, %o5
    59f8:	24 bf ff 3e 	ble,a   56f0 <MMAP_SEGMENT_0+0x5650>
    59fc:	86 16 e0 b0 	or  %i3, 0xb0, %g3
    5a00:	87 38 60 1f 	sra  %g1, 0x1f, %g3
    5a04:	81 80 e0 00 	mov  %g3, %y
    5a08:	01 00 00 00 	nop 
    5a0c:	01 00 00 00 	nop 
    5a10:	01 00 00 00 	nop 
    5a14:	98 78 60 0a 	sdiv  %g1, 0xa, %o4
    5a18:	92 07 80 04 	add  %fp, %g4, %o1
    5a1c:	94 03 00 0c 	add  %o4, %o4, %o2
    5a20:	86 16 e0 b0 	or  %i3, 0xb0, %g3
    5a24:	88 01 20 01 	inc  %g4
    5a28:	ee 08 c0 0c 	ldub  [ %g3 + %o4 ], %l7
    5a2c:	99 2b 20 03 	sll  %o4, 3, %o4
    5a30:	ee 2a 7b e8 	stb  %l7, [ %o1 + -1048 ]
    5a34:	98 02 80 0c 	add  %o2, %o4, %o4
    5a38:	10 bf ff 2e 	b  56f0 <MMAP_SEGMENT_0+0x5650>
    5a3c:	82 20 40 0c 	sub  %g1, %o4, %g1
    5a40:	d8 05 40 00 	ld  [ %l5 ], %o4
    5a44:	80 8b 60 40 	btst  0x40, %o5
    5a48:	02 80 00 65 	be  5bdc <MMAP_SEGMENT_0+0x5b3c>
    5a4c:	aa 05 60 04 	add  %l5, 4, %l5
    5a50:	9e 14 a0 d8 	or  %l2, 0xd8, %o7
    5a54:	82 10 20 00 	clr  %g1
    5a58:	c8 0b 00 01 	ldub  [ %o4 + %g1 ], %g4
    5a5c:	ae 09 20 ff 	and  %g4, 0xff, %l7
    5a60:	88 09 20 0f 	and  %g4, 0xf, %g4
    5a64:	84 10 20 00 	clr  %g2
    5a68:	d2 0b c0 04 	ldub  [ %o7 + %g4 ], %o1
    5a6c:	86 07 80 02 	add  %fp, %g2, %g3
    5a70:	af 35 e0 04 	srl  %l7, 4, %l7
    5a74:	d2 28 fb e9 	stb  %o1, [ %g3 + -1047 ]
    5a78:	c8 0b c0 17 	ldub  [ %o7 + %l7 ], %g4
    5a7c:	c8 28 fb e8 	stb  %g4, [ %g3 + -1048 ]
    5a80:	82 00 60 01 	inc  %g1
    5a84:	94 10 20 3a 	mov  0x3a, %o2
    5a88:	80 a0 60 06 	cmp  %g1, 6
    5a8c:	02 80 00 12 	be  5ad4 <MMAP_SEGMENT_0+0x5a34>
    5a90:	88 00 a0 02 	add  %g2, 2, %g4
    5a94:	88 07 80 04 	add  %fp, %g4, %g4
    5a98:	d4 29 3b e8 	stb  %o2, [ %g4 + -1048 ]
    5a9c:	c8 0b 00 01 	ldub  [ %o4 + %g1 ], %g4
    5aa0:	ae 09 20 ff 	and  %g4, 0xff, %l7
    5aa4:	88 09 20 0f 	and  %g4, 0xf, %g4
    5aa8:	84 00 a0 03 	add  %g2, 3, %g2
    5aac:	d2 0b c0 04 	ldub  [ %o7 + %g4 ], %o1
    5ab0:	86 07 80 02 	add  %fp, %g2, %g3
    5ab4:	af 35 e0 04 	srl  %l7, 4, %l7
    5ab8:	d2 28 fb e9 	stb  %o1, [ %g3 + -1047 ]
    5abc:	c8 0b c0 17 	ldub  [ %o7 + %l7 ], %g4
    5ac0:	c8 28 fb e8 	stb  %g4, [ %g3 + -1048 ]
    5ac4:	82 00 60 01 	inc  %g1
    5ac8:	80 a0 60 06 	cmp  %g1, 6
    5acc:	12 bf ff f2 	bne  5a94 <MMAP_SEGMENT_0+0x59f4>
    5ad0:	88 00 a0 02 	add  %g2, 2, %g4
    5ad4:	80 8b 60 10 	btst  0x10, %o5
    5ad8:	32 80 00 11 	bne,a   5b1c <MMAP_SEGMENT_0+0x5a7c>
    5adc:	82 10 20 00 	clr  %g1
    5ae0:	80 a2 c0 04 	cmp  %o3, %g4
    5ae4:	04 80 00 48 	ble  5c04 <MMAP_SEGMENT_0+0x5b64>
    5ae8:	82 02 ff ff 	add  %o3, -1, %g1
    5aec:	82 22 c0 04 	sub  %o3, %g4, %g1
    5af0:	82 02 00 01 	add  %o0, %g1, %g1
    5af4:	e8 2a 00 00 	stb  %l4, [ %o0 ]
    5af8:	90 02 20 01 	inc  %o0
    5afc:	80 a2 00 01 	cmp  %o0, %g1
    5b00:	32 bf ff fe 	bne,a   5af8 <MMAP_SEGMENT_0+0x5a58>
    5b04:	e8 2a 00 00 	stb  %l4, [ %o0 ]
    5b08:	82 24 00 0b 	sub  %l0, %o3, %g1
    5b0c:	96 02 ff fe 	add  %o3, -2, %o3
    5b10:	82 01 00 01 	add  %g4, %g1, %g1
    5b14:	96 02 c0 01 	add  %o3, %g1, %o3
    5b18:	82 10 20 00 	clr  %g1
    5b1c:	86 07 bb e8 	add  %fp, -1048, %g3
    5b20:	c4 08 c0 01 	ldub  [ %g3 + %g1 ], %g2
    5b24:	c4 2a 00 01 	stb  %g2, [ %o0 + %g1 ]
    5b28:	82 00 60 01 	inc  %g1
    5b2c:	80 a0 40 04 	cmp  %g1, %g4
    5b30:	32 bf ff fd 	bne,a   5b24 <MMAP_SEGMENT_0+0x5a84>
    5b34:	c4 08 c0 01 	ldub  [ %g3 + %g1 ], %g2
    5b38:	80 a2 c0 01 	cmp  %o3, %g1
    5b3c:	04 bf ff 17 	ble  5798 <MMAP_SEGMENT_0+0x56f8>
    5b40:	90 02 00 01 	add  %o0, %g1, %o0
    5b44:	82 22 c0 01 	sub  %o3, %g1, %g1
    5b48:	82 02 00 01 	add  %o0, %g1, %g1
    5b4c:	e8 2a 00 00 	stb  %l4, [ %o0 ]
    5b50:	90 02 20 01 	inc  %o0
    5b54:	80 a2 00 01 	cmp  %o0, %g1
    5b58:	32 bf ff fe 	bne,a   5b50 <MMAP_SEGMENT_0+0x5ab0>
    5b5c:	e8 2a 00 00 	stb  %l4, [ %o0 ]
    5b60:	10 bf fe 41 	b  5464 <MMAP_SEGMENT_0+0x53c4>
    5b64:	c4 0e 20 01 	ldub  [ %i0 + 1 ], %g2
    5b68:	c2 2a 00 00 	stb  %g1, [ %o0 ]
    5b6c:	86 02 20 01 	add  %o0, 1, %g3
    5b70:	aa 05 60 04 	add  %l5, 4, %l5
    5b74:	90 02 00 0b 	add  %o0, %o3, %o0
    5b78:	80 a2 e0 01 	cmp  %o3, 1
    5b7c:	04 80 00 24 	ble  5c0c <MMAP_SEGMENT_0+0x5b6c>
    5b80:	82 10 00 03 	mov  %g3, %g1
    5b84:	e8 28 40 00 	stb  %l4, [ %g1 ]
    5b88:	82 00 60 01 	inc  %g1
    5b8c:	80 a0 40 08 	cmp  %g1, %o0
    5b90:	32 bf ff fe 	bne,a   5b88 <MMAP_SEGMENT_0+0x5ae8>
    5b94:	e8 28 40 00 	stb  %l4, [ %g1 ]
    5b98:	96 02 ff ff 	add  %o3, -1, %o3
    5b9c:	c4 0e 20 01 	ldub  [ %i0 + 1 ], %g2
    5ba0:	10 bf fe 31 	b  5464 <MMAP_SEGMENT_0+0x53c4>
    5ba4:	90 00 c0 0b 	add  %g3, %o3, %o0
    5ba8:	10 bf ff 6a 	b  5950 <MMAP_SEGMENT_0+0x58b0>
    5bac:	96 10 20 08 	mov  8, %o3
    5bb0:	d8 05 40 00 	ld  [ %l5 ], %o4
    5bb4:	84 06 20 02 	add  %i0, 2, %g2
    5bb8:	aa 05 60 04 	add  %l5, 4, %l5
    5bbc:	80 a3 20 00 	cmp  %o4, 0
    5bc0:	16 bf ff 15 	bge  5814 <MMAP_SEGMENT_0+0x5774>
    5bc4:	c2 0e 20 02 	ldub  [ %i0 + 2 ], %g1
    5bc8:	98 10 20 00 	clr  %o4
    5bcc:	10 bf fe 4e 	b  5504 <MMAP_SEGMENT_0+0x5464>
    5bd0:	b0 10 00 02 	mov  %g2, %i0
    5bd4:	10 bf fe 6d 	b  5588 <MMAP_SEGMENT_0+0x54e8>
    5bd8:	90 10 00 1d 	mov  %i5, %o0
    5bdc:	10 bf ff 9e 	b  5a54 <MMAP_SEGMENT_0+0x59b4>
    5be0:	9e 16 e0 b0 	or  %i3, 0xb0, %o7
    5be4:	10 bf ff 21 	b  5868 <MMAP_SEGMENT_0+0x57c8>
    5be8:	88 14 e1 00 	or  %l3, 0x100, %g4
    5bec:	10 bf ff 2f 	b  58a8 <MMAP_SEGMENT_0+0x5808>
    5bf0:	86 10 20 00 	clr  %g3
    5bf4:	10 bf fe d7 	b  5750 <MMAP_SEGMENT_0+0x56b0>
    5bf8:	96 10 00 01 	mov  %g1, %o3
    5bfc:	10 bf ff 3c 	b  58ec <MMAP_SEGMENT_0+0x584c>
    5c00:	96 10 00 01 	mov  %g1, %o3
    5c04:	10 bf ff c5 	b  5b18 <MMAP_SEGMENT_0+0x5a78>
    5c08:	96 10 00 01 	mov  %g1, %o3
    5c0c:	90 10 00 03 	mov  %g3, %o0
    5c10:	10 bf fe 15 	b  5464 <MMAP_SEGMENT_0+0x53c4>
    5c14:	c4 0e 20 01 	ldub  [ %i0 + 1 ], %g2
    5c18:	9d e3 bf a0 	save  %sp, -96, %sp
    5c1c:	b0 10 20 00 	clr  %i0
    5c20:	7f ff fa 13 	call  446c <MMAP_SEGMENT_0+0x43cc>
    5c24:	90 10 20 03 	mov  3, %o0
    5c28:	81 c7 e0 08 	ret 
    5c2c:	81 e8 00 00 	restore 
    5c30:	9d e3 bf a0 	save  %sp, -96, %sp
    5c34:	b0 10 20 00 	clr  %i0
    5c38:	7f ff fa 0d 	call  446c <MMAP_SEGMENT_0+0x43cc>
    5c3c:	90 10 20 07 	mov  7, %o0
    5c40:	81 c7 e0 08 	ret 
    5c44:	81 e8 00 00 	restore 
    5c48:	9d e3 bf a0 	save  %sp, -96, %sp
    5c4c:	ba 10 20 00 	clr  %i5
    5c50:	7f ff fa c0 	call  4750 <MMAP_SEGMENT_0+0x46b0>
    5c54:	01 00 00 00 	nop 
    5c58:	80 a2 20 00 	cmp  %o0, 0
    5c5c:	02 bf ff fd 	be  5c50 <MMAP_SEGMENT_0+0x5bb0>
    5c60:	80 a2 20 0a 	cmp  %o0, 0xa
    5c64:	02 80 00 05 	be  5c78 <MMAP_SEGMENT_0+0x5bd8>
    5c68:	01 00 00 00 	nop 
    5c6c:	d0 2e 00 1d 	stb  %o0, [ %i0 + %i5 ]
    5c70:	10 bf ff f8 	b  5c50 <MMAP_SEGMENT_0+0x5bb0>
    5c74:	ba 07 60 01 	inc  %i5
    5c78:	81 c7 e0 08 	ret 
    5c7c:	91 e8 00 1d 	restore  %g0, %i5, %o0
    5c80:	9d e3 bf a0 	save  %sp, -96, %sp
    5c84:	7f ff fa b3 	call  4750 <MMAP_SEGMENT_0+0x46b0>
    5c88:	01 00 00 00 	nop 
    5c8c:	80 a2 20 00 	cmp  %o0, 0
    5c90:	02 bf ff fd 	be  5c84 <MMAP_SEGMENT_0+0x5be4>
    5c94:	01 00 00 00 	nop 
    5c98:	81 c7 e0 08 	ret 
    5c9c:	81 e8 00 00 	restore 
    5ca0:	9d e3 bf a0 	save  %sp, -96, %sp
    5ca4:	7f ff fa ab 	call  4750 <MMAP_SEGMENT_0+0x46b0>
    5ca8:	01 00 00 00 	nop 
    5cac:	80 a2 20 00 	cmp  %o0, 0
    5cb0:	02 bf ff fd 	be  5ca4 <MMAP_SEGMENT_0+0x5c04>
    5cb4:	b0 10 00 08 	mov  %o0, %i0
    5cb8:	81 c7 e0 08 	ret 
    5cbc:	81 e8 00 00 	restore 
    5cc0:	03 3f ff cc 	sethi  %hi(0xffff3000), %g1
    5cc4:	84 10 20 00 	clr  %g2
    5cc8:	c4 a0 44 00 	sta  %g2, [ %g1 ] #ASI_SCRATCHPAD
    5ccc:	82 10 62 20 	or  %g1, 0x220, %g1
    5cd0:	c2 88 44 00 	lduba  [ %g1 ] #ASI_SCRATCHPAD, %g1
    5cd4:	80 a0 60 71 	cmp  %g1, 0x71
    5cd8:	02 80 00 10 	be  5d18 <MMAP_SEGMENT_0+0x5c78>
    5cdc:	07 20 00 00 	sethi  %hi(0x80000000), %g3
    5ce0:	c4 00 e1 a0 	ld  [ %g3 + 0x1a0 ], %g2	! 800001a0 <MMAP_SEGMENT_1+0x7fffa240>
    5ce4:	80 a0 a0 09 	cmp  %g2, 9
    5ce8:	02 80 00 14 	be  5d38 <MMAP_SEGMENT_0+0x5c98>
    5cec:	80 a0 60 0a 	cmp  %g1, 0xa
    5cf0:	02 80 00 12 	be  5d38 <MMAP_SEGMENT_0+0x5c98>
    5cf4:	80 a0 60 00 	cmp  %g1, 0
    5cf8:	02 80 00 06 	be  5d10 <MMAP_SEGMENT_0+0x5c70>
    5cfc:	88 00 a0 01 	add  %g2, 1, %g4
    5d00:	c8 20 e1 a0 	st  %g4, [ %g3 + 0x1a0 ]
    5d04:	07 20 00 00 	sethi  %hi(0x80000000), %g3
    5d08:	86 10 e1 a8 	or  %g3, 0x1a8, %g3	! 800001a8 <MMAP_SEGMENT_1+0x7fffa248>
    5d0c:	c2 28 c0 02 	stb  %g1, [ %g3 + %g2 ]
    5d10:	81 c3 e0 08 	retl 
    5d14:	01 00 00 00 	nop 
    5d18:	86 10 20 01 	mov  1, %g3	! 1 <_start+0x1>
    5d1c:	05 20 00 00 	sethi  %hi(0x80000000), %g2
    5d20:	c6 20 a1 98 	st  %g3, [ %g2 + 0x198 ]	! 80000198 <MMAP_SEGMENT_1+0x7fffa238>
    5d24:	07 20 00 00 	sethi  %hi(0x80000000), %g3
    5d28:	c4 00 e1 a0 	ld  [ %g3 + 0x1a0 ], %g2	! 800001a0 <MMAP_SEGMENT_1+0x7fffa240>
    5d2c:	80 a0 a0 09 	cmp  %g2, 9
    5d30:	12 bf ff f4 	bne  5d00 <MMAP_SEGMENT_0+0x5c60>
    5d34:	88 00 a0 01 	add  %g2, 1, %g4
    5d38:	03 20 00 00 	sethi  %hi(0x80000000), %g1
    5d3c:	82 10 61 a8 	or  %g1, 0x1a8, %g1	! 800001a8 <MMAP_SEGMENT_1+0x7fffa248>
    5d40:	c0 20 e1 a0 	clr  [ %g3 + 0x1a0 ]
    5d44:	c0 28 40 02 	clrb  [ %g1 + %g2 ]
    5d48:	84 10 20 01 	mov  1, %g2
    5d4c:	03 20 00 00 	sethi  %hi(0x80000000), %g1
    5d50:	81 c3 e0 08 	retl 
    5d54:	c4 20 61 9c 	st  %g2, [ %g1 + 0x19c ]	! 8000019c <MMAP_SEGMENT_1+0x7fffa23c>
    5d58:	9d e3 bf a0 	save  %sp, -96, %sp
    5d5c:	37 20 00 00 	sethi  %hi(0x80000000), %i3
    5d60:	c2 0e 00 00 	ldub  [ %i0 ], %g1
    5d64:	ba 06 20 01 	add  %i0, 1, %i5
    5d68:	93 28 60 18 	sll  %g1, 0x18, %o1
    5d6c:	80 a2 60 00 	cmp  %o1, 0
    5d70:	12 80 00 0d 	bne  5da4 <MMAP_SEGMENT_0+0x5d04>
    5d74:	b6 16 e1 08 	or  %i3, 0x108, %i3
    5d78:	30 80 00 28 	b,a   5e18 <MMAP_SEGMENT_0+0x5d78>
    5d7c:	90 10 00 19 	mov  %i1, %o0
    5d80:	7f ff f8 e8 	call  4120 <MMAP_SEGMENT_0+0x4080>
    5d84:	92 02 7f d0 	add  %o1, -48, %o1
    5d88:	b0 10 00 1d 	mov  %i5, %i0
    5d8c:	ba 07 60 01 	inc  %i5
    5d90:	c2 0f 7f ff 	ldub  [ %i5 + -1 ], %g1
    5d94:	93 28 60 18 	sll  %g1, 0x18, %o1
    5d98:	80 a2 60 00 	cmp  %o1, 0
    5d9c:	02 80 00 1f 	be  5e18 <MMAP_SEGMENT_0+0x5d78>
    5da0:	01 00 00 00 	nop 
    5da4:	82 00 7f d0 	add  %g1, -48, %g1
    5da8:	82 08 60 ff 	and  %g1, 0xff, %g1
    5dac:	80 a0 60 09 	cmp  %g1, 9
    5db0:	08 bf ff f3 	bleu  5d7c <MMAP_SEGMENT_0+0x5cdc>
    5db4:	93 3a 60 18 	sra  %o1, 0x18, %o1
    5db8:	7f ff f8 c9 	call  40dc <MMAP_SEGMENT_0+0x403c>
    5dbc:	90 10 00 19 	mov  %i1, %o0
    5dc0:	b8 10 00 08 	mov  %o0, %i4
    5dc4:	7f ff f8 c6 	call  40dc <MMAP_SEGMENT_0+0x403c>
    5dc8:	90 10 00 19 	mov  %i1, %o0
    5dcc:	c2 4e 00 00 	ldsb  [ %i0 ], %g1
    5dd0:	80 a0 60 2b 	cmp  %g1, 0x2b
    5dd4:	02 80 00 26 	be  5e6c <MMAP_SEGMENT_0+0x5dcc>
    5dd8:	92 10 00 08 	mov  %o0, %o1
    5ddc:	80 a0 60 2b 	cmp  %g1, 0x2b
    5de0:	14 80 00 10 	bg  5e20 <MMAP_SEGMENT_0+0x5d80>
    5de4:	80 a0 60 2d 	cmp  %g1, 0x2d
    5de8:	80 a0 60 2a 	cmp  %g1, 0x2a
    5dec:	02 80 00 25 	be  5e80 <MMAP_SEGMENT_0+0x5de0>
    5df0:	90 10 00 19 	mov  %i1, %o0
    5df4:	7f ff fd 81 	call  53f8 <MMAP_SEGMENT_0+0x5358>
    5df8:	90 10 00 1b 	mov  %i3, %o0
    5dfc:	b0 10 00 1d 	mov  %i5, %i0
    5e00:	ba 07 60 01 	inc  %i5
    5e04:	c2 0f 7f ff 	ldub  [ %i5 + -1 ], %g1
    5e08:	93 28 60 18 	sll  %g1, 0x18, %o1
    5e0c:	80 a2 60 00 	cmp  %o1, 0
    5e10:	12 bf ff e6 	bne  5da8 <MMAP_SEGMENT_0+0x5d08>
    5e14:	82 00 7f d0 	add  %g1, -48, %g1
    5e18:	7f ff f8 b1 	call  40dc <MMAP_SEGMENT_0+0x403c>
    5e1c:	91 e8 00 19 	restore  %g0, %i1, %o0
    5e20:	02 80 00 0e 	be  5e58 <MMAP_SEGMENT_0+0x5db8>
    5e24:	80 a0 60 2f 	cmp  %g1, 0x2f
    5e28:	12 bf ff f3 	bne  5df4 <MMAP_SEGMENT_0+0x5d54>
    5e2c:	01 00 00 00 	nop 
    5e30:	83 3a 60 1f 	sra  %o1, 0x1f, %g1
    5e34:	81 80 60 00 	mov  %g1, %y
    5e38:	01 00 00 00 	nop 
    5e3c:	01 00 00 00 	nop 
    5e40:	01 00 00 00 	nop 
    5e44:	92 7a 40 1c 	sdiv  %o1, %i4, %o1
    5e48:	7f ff f8 b6 	call  4120 <MMAP_SEGMENT_0+0x4080>
    5e4c:	90 10 00 19 	mov  %i1, %o0
    5e50:	10 bf ff cf 	b  5d8c <MMAP_SEGMENT_0+0x5cec>
    5e54:	b0 10 00 1d 	mov  %i5, %i0
    5e58:	90 10 00 19 	mov  %i1, %o0
    5e5c:	7f ff f8 b1 	call  4120 <MMAP_SEGMENT_0+0x4080>
    5e60:	92 22 40 1c 	sub  %o1, %i4, %o1
    5e64:	10 bf ff ca 	b  5d8c <MMAP_SEGMENT_0+0x5cec>
    5e68:	b0 10 00 1d 	mov  %i5, %i0
    5e6c:	90 10 00 19 	mov  %i1, %o0
    5e70:	7f ff f8 ac 	call  4120 <MMAP_SEGMENT_0+0x4080>
    5e74:	92 02 40 1c 	add  %o1, %i4, %o1
    5e78:	10 bf ff c5 	b  5d8c <MMAP_SEGMENT_0+0x5cec>
    5e7c:	b0 10 00 1d 	mov  %i5, %i0
    5e80:	7f ff f8 a8 	call  4120 <MMAP_SEGMENT_0+0x4080>
    5e84:	92 5a 40 1c 	smul  %o1, %i4, %o1
    5e88:	10 bf ff c1 	b  5d8c <MMAP_SEGMENT_0+0x5cec>
    5e8c:	b0 10 00 1d 	mov  %i5, %i0
    5e90:	01 00 00 00 	nop 
    5e94:	81 c3 e0 08 	retl 
    5e98:	01 00 00 00 	nop 
    5e9c:	9d e3 bf 70 	save  %sp, -144, %sp
    5ea0:	7f ff f8 80 	call  40a0 <MMAP_SEGMENT_0+0x4000>
    5ea4:	90 07 bf d4 	add  %fp, -44, %o0
    5ea8:	7f ff ff 62 	call  5c30 <MMAP_SEGMENT_0+0x5b90>
    5eac:	39 20 00 00 	sethi  %hi(0x80000000), %i4
    5eb0:	11 20 00 00 	sethi  %hi(0x80000000), %o0
    5eb4:	90 12 21 18 	or  %o0, 0x118, %o0	! 80000118 <MMAP_SEGMENT_1+0x7fffa1b8>
    5eb8:	31 20 00 00 	sethi  %hi(0x80000000), %i0
    5ebc:	33 20 00 00 	sethi  %hi(0x80000000), %i1
    5ec0:	23 20 00 00 	sethi  %hi(0x80000000), %l1
    5ec4:	21 20 00 00 	sethi  %hi(0x80000000), %l0
    5ec8:	b4 10 20 01 	mov  1, %i2
    5ecc:	3b 3f ff cc 	sethi  %hi(0xffff3000), %i5
    5ed0:	7f ff fd 4a 	call  53f8 <MMAP_SEGMENT_0+0x5358>
    5ed4:	b6 10 20 00 	clr  %i3
    5ed8:	b8 17 21 9c 	or  %i4, 0x19c, %i4
    5edc:	b0 16 21 98 	or  %i0, 0x198, %i0
    5ee0:	b2 16 61 a8 	or  %i1, 0x1a8, %i1
    5ee4:	a2 14 61 20 	or  %l1, 0x120, %l1
    5ee8:	a0 14 21 28 	or  %l0, 0x128, %l0
    5eec:	f4 a7 44 00 	sta  %i2, [ %i5 ] #ASI_SCRATCHPAD
    5ef0:	7f ff ff e8 	call  5e90 <MMAP_SEGMENT_0+0x5df0>
    5ef4:	01 00 00 00 	nop 
    5ef8:	f6 a7 44 00 	sta  %i3, [ %i5 ] #ASI_SCRATCHPAD
    5efc:	c2 07 00 00 	ld  [ %i4 ], %g1
    5f00:	80 a0 60 01 	cmp  %g1, 1
    5f04:	12 bf ff fa 	bne  5eec <MMAP_SEGMENT_0+0x5e4c>
    5f08:	90 10 00 19 	mov  %i1, %o0
    5f0c:	c0 27 00 00 	clr  [ %i4 ]
    5f10:	c2 06 00 00 	ld  [ %i0 ], %g1
    5f14:	80 a0 60 00 	cmp  %g1, 0
    5f18:	12 80 00 0a 	bne  5f40 <MMAP_SEGMENT_0+0x5ea0>
    5f1c:	92 07 bf d4 	add  %fp, -44, %o1
    5f20:	7f ff ff 8e 	call  5d58 <MMAP_SEGMENT_0+0x5cb8>
    5f24:	01 00 00 00 	nop 
    5f28:	92 10 00 08 	mov  %o0, %o1
    5f2c:	7f ff fd 33 	call  53f8 <MMAP_SEGMENT_0+0x5358>
    5f30:	90 10 00 11 	mov  %l1, %o0
    5f34:	7f ff fd 31 	call  53f8 <MMAP_SEGMENT_0+0x5358>
    5f38:	90 10 00 10 	mov  %l0, %o0
    5f3c:	30 bf ff ec 	b,a   5eec <MMAP_SEGMENT_0+0x5e4c>
    5f40:	b0 10 20 00 	clr  %i0
    5f44:	92 10 00 01 	mov  %g1, %o1
    5f48:	11 20 00 00 	sethi  %hi(0x80000000), %o0
    5f4c:	7f ff fd 2b 	call  53f8 <MMAP_SEGMENT_0+0x5358>
    5f50:	90 12 21 30 	or  %o0, 0x130, %o0	! 80000130 <MMAP_SEGMENT_1+0x7fffa1d0>
    5f54:	81 c7 e0 08 	ret 
    5f58:	81 e8 00 00 	restore 
    5f5c:	00 00 00 00 	unimp  0

00005f60 <MMAP_SEGMENT_1>:
    5f60:	43 6f 75 6c 	call  dbe3510 <MMAP_SEGMENT_1+0xdbdd5b0>
    5f64:	64 20 6e 6f 	call  90821920 <MMAP_SEGMENT_1+0x9081b9c0>
    5f68:	74 20 72 65 	call  d08228fc <MMAP_SEGMENT_1+0xd081c99c>
    5f6c:	74 72 69 65 	call  d1ca0500 <MMAP_SEGMENT_1+0xd1c9a5a0>
    5f70:	76 65 20 64 	call  d994e100 <MMAP_SEGMENT_1+0xd99481a0>
    5f74:	61 74 61 2c 	call  85d1e424 <MMAP_SEGMENT_1+0x85d184c4>
    5f78:	20 53 74 61 	unknown
    5f7c:	63 6b 20 69 	call  8dace120 <MMAP_SEGMENT_1+0x8dac81c0>
    5f80:	73 20 65 6d 	call  cc81f534 <MMAP_SEGMENT_1+0xcc8195d4>
    5f84:	70 74 79 2e 	call  c1d2443c <MMAP_SEGMENT_1+0xc1d1e4dc>
    5f88:	0a 00 00 00 	unknown
    5f8c:	00 00 00 00 	unimp  0
    5f90:	43 6f 75 6c 	call  dbe3540 <MMAP_SEGMENT_1+0xdbdd5e0>
    5f94:	64 20 6e 6f 	call  90821950 <MMAP_SEGMENT_1+0x9081b9f0>
    5f98:	74 20 69 6e 	call  d0820550 <MMAP_SEGMENT_1+0xd081a5f0>
    5f9c:	73 65 72 74 	call  cd96296c <MMAP_SEGMENT_1+0xcd95ca0c>
    5fa0:	20 64 61 74 	unknown
    5fa4:	61 2c 20 53 	call  84b0e0f0 <MMAP_SEGMENT_1+0x84b08190>
    5fa8:	74 61 63 6b 	call  d185ed54 <MMAP_SEGMENT_1+0xd1858df4>
    5fac:	20 69 73 20 	unknown
    5fb0:	66 75 6c 6c 	call  99d61160 <MMAP_SEGMENT_1+0x99d5b200>
    5fb4:	2e 0a 00 00 	unknown
    5fb8:	53 74 61 63 	call  4dd1e544 <MMAP_SEGMENT_1+0x4dd185e4>
    5fbc:	6b 20 69 73 	call  ac820588 <MMAP_SEGMENT_1+0xac81a628>
    5fc0:	20 65 6d 70 	unknown
    5fc4:	74 79 0a 00 	call  d1e487c4 <MMAP_SEGMENT_1+0xd1e42864>
    5fc8:	0a 20 54 68 	unknown
    5fcc:	65 20 73 74 	call  94822d9c <MMAP_SEGMENT_1+0x9481ce3c>
    5fd0:	61 74 75 73 	call  85d2359c <MMAP_SEGMENT_1+0x85d1d63c>
    5fd4:	20 6f 66 20 	unknown
    5fd8:	74 68 65 20 	call  d1a1f458 <MMAP_SEGMENT_1+0xd1a194f8>
    5fdc:	73 74 61 63 	call  cdd1e568 <MMAP_SEGMENT_1+0xcdd18608>
    5fe0:	6b 20 69 73 	call  ac8205ac <MMAP_SEGMENT_1+0xac81a64c>
    5fe4:	20 0a 00 00 	unknown
    5fe8:	25 64 0a 00 	unknown
	...
    5ff8:	40 24 00 00 	call  905ff8 <MMAP_SEGMENT_1+0x900098>
    5ffc:	00 00 00 00 	unimp  0
    6000:	3f 9e b8 51 	fbo,a   7b4144 <MMAP_SEGMENT_1+0x7ae1e4>
    6004:	eb 85 1e b8 	ld  [ %l4 + %i0 ], %c21
    6008:	3f f0 00 00 	cb012,a   ffc06008 <MMAP_SEGMENT_1+0xffc000a8>
    600c:	00 00 00 00 	unimp  0
    6010:	30 31 32 33 	unknown
    6014:	34 35 36 37 	unknown
    6018:	38 39 61 62 	unknown
    601c:	63 64 65 66 	call  8d91f5b4 <MMAP_SEGMENT_1+0x8d919654>
    6020:	67 68 69 6a 	call  9da205c8 <MMAP_SEGMENT_1+0x9da1a668>
    6024:	6b 6c 6d 6e 	call  adb215dc <MMAP_SEGMENT_1+0xadb1b67c>
    6028:	6f 70 71 72 	call  bdc225f0 <MMAP_SEGMENT_1+0xbdc1c690>
    602c:	73 74 75 76 	call  cdd23604 <MMAP_SEGMENT_1+0xcdd1d6a4>
    6030:	77 78 79 7a 	call  dde24618 <MMAP_SEGMENT_1+0xdde1e6b8>
    6034:	00 00 00 00 	unimp  0
    6038:	30 31 32 33 	unknown
    603c:	34 35 36 37 	unknown
    6040:	38 39 41 42 	unknown
    6044:	43 44 45 46 	call  d11755c <MMAP_SEGMENT_1+0xd1115fc>
    6048:	47 48 49 4a 	call  1d218570 <MMAP_SEGMENT_1+0x1d212610>
    604c:	4b 4c 4d 4e 	call  2d319584 <MMAP_SEGMENT_1+0x2d313624>
    6050:	4f 50 51 52 	call  3d41a598 <MMAP_SEGMENT_1+0x3d414638>
    6054:	53 54 55 56 	call  4d51b5ac <MMAP_SEGMENT_1+0x4d51564c>
    6058:	57 58 59 5a 	call  5d61c5c0 <MMAP_SEGMENT_1+0x5d616660>
    605c:	00 00 00 00 	unimp  0
    6060:	3c 4e 55 4c 	unknown
    6064:	4c 3e 00 00 	call  30f86064 <MMAP_SEGMENT_1+0x30f80104>
    6068:	57 72 6f 6e 	call  5dca1e20 <MMAP_SEGMENT_1+0x5dc9bec0>
    606c:	67 20 6f 70 	call  9c821e2c <MMAP_SEGMENT_1+0x9c81becc>
    6070:	65 72 61 74 	call  95c9e640 <MMAP_SEGMENT_1+0x95c986e0>
    6074:	6f 72 0a 00 	call  bdc88874 <MMAP_SEGMENT_1+0xbdc82914>
    6078:	3f 3f 20 3a 	sethi  %hi(0xfc80e800), %i7
    607c:	20 0a 00 00 	unknown
    6080:	0a 52 3a 20 	unknown
    6084:	25 64 0a 00 	unknown
    6088:	3f 3f 20 3a 	sethi  %hi(0xfc80e800), %i7
    608c:	0a 20 00 00 	unknown
    6090:	0a 42 59 45 	unknown
    6094:	28 25 64 29 	unknown
    6098:	0a 00 00 00 	unknown
    609c:	00 00 00 00 	unimp  0
    60a0:	00 00 00 01 	unimp  0x1
	...
