
.//ADD.elf:     file format elf32-sparc


Disassembly of section .text:

00000000 <main>:
       0:	a0 10 20 e0 	mov  0xe0, %l0
       4:	81 88 00 10 	mov  %l0, %psr
       8:	01 00 00 00 	nop 
       c:	01 00 00 00 	nop 
      10:	01 00 00 00 	nop 
      14:	21 00 00 04 	sethi  %hi(0x1000), %l0
      18:	a0 14 20 00 	mov  %l0, %l0	! 1000 <HW_trap_0x00>
      1c:	81 9c 20 00 	mov  %l0, %tbr
      20:	01 00 00 00 	nop 
      24:	01 00 00 00 	nop 
      28:	01 00 00 00 	nop 
      2c:	82 10 2b ad 	mov  0xbad, %g1	! bad <not_reached+0xb05>
      30:	a0 10 20 02 	mov  2, %l0
      34:	90 04 20 03 	add  %l0, 3, %o0
      38:	93 48 00 00 	rd  %psr, %o1
      3c:	a0 10 3f fe 	mov  -2, %l0
      40:	a2 10 3f fd 	mov  -3, %l1
      44:	94 04 00 11 	add  %l0, %l1, %o2
      48:	97 48 00 00 	rd  %psr, %o3
      4c:	a0 10 3f fe 	mov  -2, %l0
      50:	a2 10 20 03 	mov  3, %l1
      54:	98 04 00 11 	add  %l0, %l1, %o4
      58:	9b 48 00 00 	rd  %psr, %o5
      5c:	a0 10 20 02 	mov  2, %l0
      60:	a2 10 3f fd 	mov  -3, %l1
      64:	9c 04 00 11 	add  %l0, %l1, %sp
      68:	9f 48 00 00 	rd  %psr, %o7
      6c:	21 1f ff ff 	sethi  %hi(0x7ffffc00), %l0
      70:	a0 14 23 ff 	or  %l0, 0x3ff, %l0	! 7fffffff <SW_trap_0xfe+0x7fffe01f>
      74:	23 1f ff ff 	sethi  %hi(0x7ffffc00), %l1
      78:	a2 14 63 ff 	or  %l1, 0x3ff, %l1	! 7fffffff <SW_trap_0xfe+0x7fffe01f>
      7c:	b0 04 00 11 	add  %l0, %l1, %i0
      80:	b3 48 00 00 	rd  %psr, %i1
      84:	21 20 00 00 	sethi  %hi(0x80000000), %l0
      88:	a0 14 20 01 	or  %l0, 1, %l0	! 80000001 <SW_trap_0xfe+0x7fffe021>
      8c:	23 20 00 00 	sethi  %hi(0x80000000), %l1
      90:	a2 14 60 01 	or  %l1, 1, %l1	! 80000001 <SW_trap_0xfe+0x7fffe021>
      94:	b4 04 00 11 	add  %l0, %l1, %i2
      98:	b7 48 00 00 	rd  %psr, %i3
      9c:	91 d0 20 00 	ta  0
      a0:	01 00 00 00 	nop 
      a4:	01 00 00 00 	nop 

000000a8 <not_reached>:
      a8:	03 00 00 37 	sethi  %hi(0xdc00), %g1
      ac:	82 10 62 ad 	or  %g1, 0x2ad, %g1	! dead <SW_trap_0xfe+0xbecd>
      b0:	91 d0 20 00 	ta  0
      b4:	01 00 00 00 	nop 
      b8:	01 00 00 00 	nop 
      bc:	01 00 00 00 	nop 
      c0:	01 00 00 00 	nop 
      c4:	01 00 00 00 	nop 
      c8:	01 00 00 00 	nop 
      cc:	01 00 00 00 	nop 
      d0:	01 00 00 00 	nop 
      d4:	01 00 00 00 	nop 
      d8:	01 00 00 00 	nop 
      dc:	01 00 00 00 	nop 
      e0:	01 00 00 00 	nop 
      e4:	01 00 00 00 	nop 
      e8:	01 00 00 00 	nop 
      ec:	01 00 00 00 	nop 
      f0:	01 00 00 00 	nop 
      f4:	01 00 00 00 	nop 
      f8:	01 00 00 00 	nop 
      fc:	01 00 00 00 	nop 
     100:	01 00 00 00 	nop 
     104:	01 00 00 00 	nop 
     108:	01 00 00 00 	nop 
     10c:	01 00 00 00 	nop 
     110:	01 00 00 00 	nop 
     114:	01 00 00 00 	nop 
     118:	01 00 00 00 	nop 
     11c:	01 00 00 00 	nop 
     120:	01 00 00 00 	nop 
     124:	01 00 00 00 	nop 
     128:	01 00 00 00 	nop 
     12c:	01 00 00 00 	nop 
     130:	01 00 00 00 	nop 
     134:	01 00 00 00 	nop 
     138:	01 00 00 00 	nop 
     13c:	01 00 00 00 	nop 
     140:	01 00 00 00 	nop 
     144:	01 00 00 00 	nop 
     148:	01 00 00 00 	nop 
     14c:	01 00 00 00 	nop 
     150:	01 00 00 00 	nop 
     154:	01 00 00 00 	nop 
     158:	01 00 00 00 	nop 
     15c:	01 00 00 00 	nop 
     160:	01 00 00 00 	nop 
     164:	01 00 00 00 	nop 
     168:	01 00 00 00 	nop 
     16c:	01 00 00 00 	nop 
     170:	01 00 00 00 	nop 
     174:	01 00 00 00 	nop 
     178:	01 00 00 00 	nop 
     17c:	01 00 00 00 	nop 
     180:	01 00 00 00 	nop 
     184:	01 00 00 00 	nop 
     188:	01 00 00 00 	nop 
     18c:	01 00 00 00 	nop 
     190:	01 00 00 00 	nop 
     194:	01 00 00 00 	nop 
     198:	01 00 00 00 	nop 
     19c:	01 00 00 00 	nop 
     1a0:	01 00 00 00 	nop 
     1a4:	01 00 00 00 	nop 
     1a8:	01 00 00 00 	nop 
     1ac:	01 00 00 00 	nop 
     1b0:	01 00 00 00 	nop 
     1b4:	01 00 00 00 	nop 
     1b8:	01 00 00 00 	nop 
     1bc:	01 00 00 00 	nop 
     1c0:	01 00 00 00 	nop 
     1c4:	01 00 00 00 	nop 
     1c8:	01 00 00 00 	nop 
     1cc:	01 00 00 00 	nop 
     1d0:	01 00 00 00 	nop 
     1d4:	01 00 00 00 	nop 
     1d8:	01 00 00 00 	nop 
     1dc:	01 00 00 00 	nop 
     1e0:	01 00 00 00 	nop 
     1e4:	01 00 00 00 	nop 
     1e8:	01 00 00 00 	nop 
     1ec:	01 00 00 00 	nop 
     1f0:	01 00 00 00 	nop 
     1f4:	01 00 00 00 	nop 
     1f8:	01 00 00 00 	nop 
     1fc:	01 00 00 00 	nop 
     200:	01 00 00 00 	nop 
     204:	01 00 00 00 	nop 
     208:	01 00 00 00 	nop 
     20c:	01 00 00 00 	nop 
     210:	01 00 00 00 	nop 
     214:	01 00 00 00 	nop 
     218:	01 00 00 00 	nop 
     21c:	01 00 00 00 	nop 
     220:	01 00 00 00 	nop 
     224:	01 00 00 00 	nop 
     228:	01 00 00 00 	nop 
     22c:	01 00 00 00 	nop 
     230:	01 00 00 00 	nop 
     234:	01 00 00 00 	nop 
     238:	01 00 00 00 	nop 
     23c:	01 00 00 00 	nop 
     240:	01 00 00 00 	nop 
     244:	01 00 00 00 	nop 
     248:	01 00 00 00 	nop 
     24c:	01 00 00 00 	nop 
     250:	01 00 00 00 	nop 
     254:	01 00 00 00 	nop 
     258:	01 00 00 00 	nop 
     25c:	01 00 00 00 	nop 
     260:	01 00 00 00 	nop 
     264:	01 00 00 00 	nop 
     268:	01 00 00 00 	nop 
     26c:	01 00 00 00 	nop 
     270:	01 00 00 00 	nop 
     274:	01 00 00 00 	nop 
     278:	01 00 00 00 	nop 
     27c:	01 00 00 00 	nop 
     280:	01 00 00 00 	nop 
     284:	01 00 00 00 	nop 
     288:	01 00 00 00 	nop 
     28c:	01 00 00 00 	nop 
     290:	01 00 00 00 	nop 
     294:	01 00 00 00 	nop 
     298:	01 00 00 00 	nop 
     29c:	01 00 00 00 	nop 
     2a0:	01 00 00 00 	nop 
     2a4:	01 00 00 00 	nop 
     2a8:	01 00 00 00 	nop 
     2ac:	01 00 00 00 	nop 
     2b0:	01 00 00 00 	nop 
     2b4:	01 00 00 00 	nop 
     2b8:	01 00 00 00 	nop 
     2bc:	01 00 00 00 	nop 
     2c0:	01 00 00 00 	nop 
     2c4:	01 00 00 00 	nop 
     2c8:	01 00 00 00 	nop 
     2cc:	01 00 00 00 	nop 
     2d0:	01 00 00 00 	nop 
     2d4:	01 00 00 00 	nop 
     2d8:	01 00 00 00 	nop 
     2dc:	01 00 00 00 	nop 
     2e0:	01 00 00 00 	nop 
     2e4:	01 00 00 00 	nop 
     2e8:	01 00 00 00 	nop 
     2ec:	01 00 00 00 	nop 
     2f0:	01 00 00 00 	nop 
     2f4:	01 00 00 00 	nop 
     2f8:	01 00 00 00 	nop 
     2fc:	01 00 00 00 	nop 
     300:	01 00 00 00 	nop 
     304:	01 00 00 00 	nop 
     308:	01 00 00 00 	nop 
     30c:	01 00 00 00 	nop 
     310:	01 00 00 00 	nop 
     314:	01 00 00 00 	nop 
     318:	01 00 00 00 	nop 
     31c:	01 00 00 00 	nop 
     320:	01 00 00 00 	nop 
     324:	01 00 00 00 	nop 
     328:	01 00 00 00 	nop 
     32c:	01 00 00 00 	nop 
     330:	01 00 00 00 	nop 
     334:	01 00 00 00 	nop 
     338:	01 00 00 00 	nop 
     33c:	01 00 00 00 	nop 
     340:	01 00 00 00 	nop 
     344:	01 00 00 00 	nop 
     348:	01 00 00 00 	nop 
     34c:	01 00 00 00 	nop 
     350:	01 00 00 00 	nop 
     354:	01 00 00 00 	nop 
     358:	01 00 00 00 	nop 
     35c:	01 00 00 00 	nop 
     360:	01 00 00 00 	nop 
     364:	01 00 00 00 	nop 
     368:	01 00 00 00 	nop 
     36c:	01 00 00 00 	nop 
     370:	01 00 00 00 	nop 
     374:	01 00 00 00 	nop 
     378:	01 00 00 00 	nop 
     37c:	01 00 00 00 	nop 
     380:	01 00 00 00 	nop 
     384:	01 00 00 00 	nop 
     388:	01 00 00 00 	nop 
     38c:	01 00 00 00 	nop 
     390:	01 00 00 00 	nop 
     394:	01 00 00 00 	nop 
     398:	01 00 00 00 	nop 
     39c:	01 00 00 00 	nop 
     3a0:	01 00 00 00 	nop 
     3a4:	01 00 00 00 	nop 
     3a8:	01 00 00 00 	nop 
     3ac:	01 00 00 00 	nop 
     3b0:	01 00 00 00 	nop 
     3b4:	01 00 00 00 	nop 
     3b8:	01 00 00 00 	nop 
     3bc:	01 00 00 00 	nop 
     3c0:	01 00 00 00 	nop 
     3c4:	01 00 00 00 	nop 
     3c8:	01 00 00 00 	nop 
     3cc:	01 00 00 00 	nop 
     3d0:	01 00 00 00 	nop 
     3d4:	01 00 00 00 	nop 
     3d8:	01 00 00 00 	nop 
     3dc:	01 00 00 00 	nop 
     3e0:	01 00 00 00 	nop 
     3e4:	01 00 00 00 	nop 
     3e8:	01 00 00 00 	nop 
     3ec:	01 00 00 00 	nop 
     3f0:	01 00 00 00 	nop 
     3f4:	01 00 00 00 	nop 
     3f8:	01 00 00 00 	nop 
     3fc:	01 00 00 00 	nop 
     400:	01 00 00 00 	nop 
     404:	01 00 00 00 	nop 
     408:	01 00 00 00 	nop 
     40c:	01 00 00 00 	nop 
     410:	01 00 00 00 	nop 
     414:	01 00 00 00 	nop 
     418:	01 00 00 00 	nop 
     41c:	01 00 00 00 	nop 
     420:	01 00 00 00 	nop 
     424:	01 00 00 00 	nop 
     428:	01 00 00 00 	nop 
     42c:	01 00 00 00 	nop 
     430:	01 00 00 00 	nop 
     434:	01 00 00 00 	nop 
     438:	01 00 00 00 	nop 
     43c:	01 00 00 00 	nop 
     440:	01 00 00 00 	nop 
     444:	01 00 00 00 	nop 
     448:	01 00 00 00 	nop 
     44c:	01 00 00 00 	nop 
     450:	01 00 00 00 	nop 
     454:	01 00 00 00 	nop 
     458:	01 00 00 00 	nop 
     45c:	01 00 00 00 	nop 
     460:	01 00 00 00 	nop 
     464:	01 00 00 00 	nop 
     468:	01 00 00 00 	nop 
     46c:	01 00 00 00 	nop 
     470:	01 00 00 00 	nop 
     474:	01 00 00 00 	nop 
     478:	01 00 00 00 	nop 
     47c:	01 00 00 00 	nop 
     480:	01 00 00 00 	nop 
     484:	01 00 00 00 	nop 
     488:	01 00 00 00 	nop 
     48c:	01 00 00 00 	nop 
     490:	01 00 00 00 	nop 
     494:	01 00 00 00 	nop 
     498:	01 00 00 00 	nop 
     49c:	01 00 00 00 	nop 
     4a0:	01 00 00 00 	nop 
     4a4:	01 00 00 00 	nop 
     4a8:	01 00 00 00 	nop 
     4ac:	01 00 00 00 	nop 
     4b0:	01 00 00 00 	nop 
     4b4:	01 00 00 00 	nop 
     4b8:	01 00 00 00 	nop 
     4bc:	01 00 00 00 	nop 
     4c0:	01 00 00 00 	nop 
     4c4:	01 00 00 00 	nop 
     4c8:	01 00 00 00 	nop 
     4cc:	01 00 00 00 	nop 
     4d0:	01 00 00 00 	nop 
     4d4:	01 00 00 00 	nop 
     4d8:	01 00 00 00 	nop 
     4dc:	01 00 00 00 	nop 
     4e0:	01 00 00 00 	nop 
     4e4:	01 00 00 00 	nop 
     4e8:	01 00 00 00 	nop 
     4ec:	01 00 00 00 	nop 
     4f0:	01 00 00 00 	nop 
     4f4:	01 00 00 00 	nop 
     4f8:	01 00 00 00 	nop 
     4fc:	01 00 00 00 	nop 
     500:	01 00 00 00 	nop 
     504:	01 00 00 00 	nop 
     508:	01 00 00 00 	nop 
     50c:	01 00 00 00 	nop 
     510:	01 00 00 00 	nop 
     514:	01 00 00 00 	nop 
     518:	01 00 00 00 	nop 
     51c:	01 00 00 00 	nop 
     520:	01 00 00 00 	nop 
     524:	01 00 00 00 	nop 
     528:	01 00 00 00 	nop 
     52c:	01 00 00 00 	nop 
     530:	01 00 00 00 	nop 
     534:	01 00 00 00 	nop 
     538:	01 00 00 00 	nop 
     53c:	01 00 00 00 	nop 
     540:	01 00 00 00 	nop 
     544:	01 00 00 00 	nop 
     548:	01 00 00 00 	nop 
     54c:	01 00 00 00 	nop 
     550:	01 00 00 00 	nop 
     554:	01 00 00 00 	nop 
     558:	01 00 00 00 	nop 
     55c:	01 00 00 00 	nop 
     560:	01 00 00 00 	nop 
     564:	01 00 00 00 	nop 
     568:	01 00 00 00 	nop 
     56c:	01 00 00 00 	nop 
     570:	01 00 00 00 	nop 
     574:	01 00 00 00 	nop 
     578:	01 00 00 00 	nop 
     57c:	01 00 00 00 	nop 
     580:	01 00 00 00 	nop 
     584:	01 00 00 00 	nop 
     588:	01 00 00 00 	nop 
     58c:	01 00 00 00 	nop 
     590:	01 00 00 00 	nop 
     594:	01 00 00 00 	nop 
     598:	01 00 00 00 	nop 
     59c:	01 00 00 00 	nop 
     5a0:	01 00 00 00 	nop 
     5a4:	01 00 00 00 	nop 
     5a8:	01 00 00 00 	nop 
     5ac:	01 00 00 00 	nop 
     5b0:	01 00 00 00 	nop 
     5b4:	01 00 00 00 	nop 
     5b8:	01 00 00 00 	nop 
     5bc:	01 00 00 00 	nop 
     5c0:	01 00 00 00 	nop 
     5c4:	01 00 00 00 	nop 
     5c8:	01 00 00 00 	nop 
     5cc:	01 00 00 00 	nop 
     5d0:	01 00 00 00 	nop 
     5d4:	01 00 00 00 	nop 
     5d8:	01 00 00 00 	nop 
     5dc:	01 00 00 00 	nop 
     5e0:	01 00 00 00 	nop 
     5e4:	01 00 00 00 	nop 
     5e8:	01 00 00 00 	nop 
     5ec:	01 00 00 00 	nop 
     5f0:	01 00 00 00 	nop 
     5f4:	01 00 00 00 	nop 
     5f8:	01 00 00 00 	nop 
     5fc:	01 00 00 00 	nop 
     600:	01 00 00 00 	nop 
     604:	01 00 00 00 	nop 
     608:	01 00 00 00 	nop 
     60c:	01 00 00 00 	nop 
     610:	01 00 00 00 	nop 
     614:	01 00 00 00 	nop 
     618:	01 00 00 00 	nop 
     61c:	01 00 00 00 	nop 
     620:	01 00 00 00 	nop 
     624:	01 00 00 00 	nop 
     628:	01 00 00 00 	nop 
     62c:	01 00 00 00 	nop 
     630:	01 00 00 00 	nop 
     634:	01 00 00 00 	nop 
     638:	01 00 00 00 	nop 
     63c:	01 00 00 00 	nop 
     640:	01 00 00 00 	nop 
     644:	01 00 00 00 	nop 
     648:	01 00 00 00 	nop 
     64c:	01 00 00 00 	nop 
     650:	01 00 00 00 	nop 
     654:	01 00 00 00 	nop 
     658:	01 00 00 00 	nop 
     65c:	01 00 00 00 	nop 
     660:	01 00 00 00 	nop 
     664:	01 00 00 00 	nop 
     668:	01 00 00 00 	nop 
     66c:	01 00 00 00 	nop 
     670:	01 00 00 00 	nop 
     674:	01 00 00 00 	nop 
     678:	01 00 00 00 	nop 
     67c:	01 00 00 00 	nop 
     680:	01 00 00 00 	nop 
     684:	01 00 00 00 	nop 
     688:	01 00 00 00 	nop 
     68c:	01 00 00 00 	nop 
     690:	01 00 00 00 	nop 
     694:	01 00 00 00 	nop 
     698:	01 00 00 00 	nop 
     69c:	01 00 00 00 	nop 
     6a0:	01 00 00 00 	nop 
     6a4:	01 00 00 00 	nop 
     6a8:	01 00 00 00 	nop 
     6ac:	01 00 00 00 	nop 
     6b0:	01 00 00 00 	nop 
     6b4:	01 00 00 00 	nop 
     6b8:	01 00 00 00 	nop 
     6bc:	01 00 00 00 	nop 
     6c0:	01 00 00 00 	nop 
     6c4:	01 00 00 00 	nop 
     6c8:	01 00 00 00 	nop 
     6cc:	01 00 00 00 	nop 
     6d0:	01 00 00 00 	nop 
     6d4:	01 00 00 00 	nop 
     6d8:	01 00 00 00 	nop 
     6dc:	01 00 00 00 	nop 
     6e0:	01 00 00 00 	nop 
     6e4:	01 00 00 00 	nop 
     6e8:	01 00 00 00 	nop 
     6ec:	01 00 00 00 	nop 
     6f0:	01 00 00 00 	nop 
     6f4:	01 00 00 00 	nop 
     6f8:	01 00 00 00 	nop 
     6fc:	01 00 00 00 	nop 
     700:	01 00 00 00 	nop 
     704:	01 00 00 00 	nop 
     708:	01 00 00 00 	nop 
     70c:	01 00 00 00 	nop 
     710:	01 00 00 00 	nop 
     714:	01 00 00 00 	nop 
     718:	01 00 00 00 	nop 
     71c:	01 00 00 00 	nop 
     720:	01 00 00 00 	nop 
     724:	01 00 00 00 	nop 
     728:	01 00 00 00 	nop 
     72c:	01 00 00 00 	nop 
     730:	01 00 00 00 	nop 
     734:	01 00 00 00 	nop 
     738:	01 00 00 00 	nop 
     73c:	01 00 00 00 	nop 
     740:	01 00 00 00 	nop 
     744:	01 00 00 00 	nop 
     748:	01 00 00 00 	nop 
     74c:	01 00 00 00 	nop 
     750:	01 00 00 00 	nop 
     754:	01 00 00 00 	nop 
     758:	01 00 00 00 	nop 
     75c:	01 00 00 00 	nop 
     760:	01 00 00 00 	nop 
     764:	01 00 00 00 	nop 
     768:	01 00 00 00 	nop 
     76c:	01 00 00 00 	nop 
     770:	01 00 00 00 	nop 
     774:	01 00 00 00 	nop 
     778:	01 00 00 00 	nop 
     77c:	01 00 00 00 	nop 
     780:	01 00 00 00 	nop 
     784:	01 00 00 00 	nop 
     788:	01 00 00 00 	nop 
     78c:	01 00 00 00 	nop 
     790:	01 00 00 00 	nop 
     794:	01 00 00 00 	nop 
     798:	01 00 00 00 	nop 
     79c:	01 00 00 00 	nop 
     7a0:	01 00 00 00 	nop 
     7a4:	01 00 00 00 	nop 
     7a8:	01 00 00 00 	nop 
     7ac:	01 00 00 00 	nop 
     7b0:	01 00 00 00 	nop 
     7b4:	01 00 00 00 	nop 
     7b8:	01 00 00 00 	nop 
     7bc:	01 00 00 00 	nop 
     7c0:	01 00 00 00 	nop 
     7c4:	01 00 00 00 	nop 
     7c8:	01 00 00 00 	nop 
     7cc:	01 00 00 00 	nop 
     7d0:	01 00 00 00 	nop 
     7d4:	01 00 00 00 	nop 
     7d8:	01 00 00 00 	nop 
     7dc:	01 00 00 00 	nop 
     7e0:	01 00 00 00 	nop 
     7e4:	01 00 00 00 	nop 
     7e8:	01 00 00 00 	nop 
     7ec:	01 00 00 00 	nop 
     7f0:	01 00 00 00 	nop 
     7f4:	01 00 00 00 	nop 
     7f8:	01 00 00 00 	nop 
     7fc:	01 00 00 00 	nop 
     800:	01 00 00 00 	nop 
     804:	01 00 00 00 	nop 
     808:	01 00 00 00 	nop 
     80c:	01 00 00 00 	nop 
     810:	01 00 00 00 	nop 
     814:	01 00 00 00 	nop 
     818:	01 00 00 00 	nop 
     81c:	01 00 00 00 	nop 
     820:	01 00 00 00 	nop 
     824:	01 00 00 00 	nop 
     828:	01 00 00 00 	nop 
     82c:	01 00 00 00 	nop 
     830:	01 00 00 00 	nop 
     834:	01 00 00 00 	nop 
     838:	01 00 00 00 	nop 
     83c:	01 00 00 00 	nop 
     840:	01 00 00 00 	nop 
     844:	01 00 00 00 	nop 
     848:	01 00 00 00 	nop 
     84c:	01 00 00 00 	nop 
     850:	01 00 00 00 	nop 
     854:	01 00 00 00 	nop 
     858:	01 00 00 00 	nop 
     85c:	01 00 00 00 	nop 
     860:	01 00 00 00 	nop 
     864:	01 00 00 00 	nop 
     868:	01 00 00 00 	nop 
     86c:	01 00 00 00 	nop 
     870:	01 00 00 00 	nop 
     874:	01 00 00 00 	nop 
     878:	01 00 00 00 	nop 
     87c:	01 00 00 00 	nop 
     880:	01 00 00 00 	nop 
     884:	01 00 00 00 	nop 
     888:	01 00 00 00 	nop 
     88c:	01 00 00 00 	nop 
     890:	01 00 00 00 	nop 
     894:	01 00 00 00 	nop 
     898:	01 00 00 00 	nop 
     89c:	01 00 00 00 	nop 
     8a0:	01 00 00 00 	nop 
     8a4:	01 00 00 00 	nop 
     8a8:	01 00 00 00 	nop 
     8ac:	01 00 00 00 	nop 
     8b0:	01 00 00 00 	nop 
     8b4:	01 00 00 00 	nop 
     8b8:	01 00 00 00 	nop 
     8bc:	01 00 00 00 	nop 
     8c0:	01 00 00 00 	nop 
     8c4:	01 00 00 00 	nop 
     8c8:	01 00 00 00 	nop 
     8cc:	01 00 00 00 	nop 
     8d0:	01 00 00 00 	nop 
     8d4:	01 00 00 00 	nop 
     8d8:	01 00 00 00 	nop 
     8dc:	01 00 00 00 	nop 
     8e0:	01 00 00 00 	nop 
     8e4:	01 00 00 00 	nop 
     8e8:	01 00 00 00 	nop 
     8ec:	01 00 00 00 	nop 
     8f0:	01 00 00 00 	nop 
     8f4:	01 00 00 00 	nop 
     8f8:	01 00 00 00 	nop 
     8fc:	01 00 00 00 	nop 
     900:	01 00 00 00 	nop 
     904:	01 00 00 00 	nop 
     908:	01 00 00 00 	nop 
     90c:	01 00 00 00 	nop 
     910:	01 00 00 00 	nop 
     914:	01 00 00 00 	nop 
     918:	01 00 00 00 	nop 
     91c:	01 00 00 00 	nop 
     920:	01 00 00 00 	nop 
     924:	01 00 00 00 	nop 
     928:	01 00 00 00 	nop 
     92c:	01 00 00 00 	nop 
     930:	01 00 00 00 	nop 
     934:	01 00 00 00 	nop 
     938:	01 00 00 00 	nop 
     93c:	01 00 00 00 	nop 
     940:	01 00 00 00 	nop 
     944:	01 00 00 00 	nop 
     948:	01 00 00 00 	nop 
     94c:	01 00 00 00 	nop 
     950:	01 00 00 00 	nop 
     954:	01 00 00 00 	nop 
     958:	01 00 00 00 	nop 
     95c:	01 00 00 00 	nop 
     960:	01 00 00 00 	nop 
     964:	01 00 00 00 	nop 
     968:	01 00 00 00 	nop 
     96c:	01 00 00 00 	nop 
     970:	01 00 00 00 	nop 
     974:	01 00 00 00 	nop 
     978:	01 00 00 00 	nop 
     97c:	01 00 00 00 	nop 
     980:	01 00 00 00 	nop 
     984:	01 00 00 00 	nop 
     988:	01 00 00 00 	nop 
     98c:	01 00 00 00 	nop 
     990:	01 00 00 00 	nop 
     994:	01 00 00 00 	nop 
     998:	01 00 00 00 	nop 
     99c:	01 00 00 00 	nop 
     9a0:	01 00 00 00 	nop 
     9a4:	01 00 00 00 	nop 
     9a8:	01 00 00 00 	nop 
     9ac:	01 00 00 00 	nop 
     9b0:	01 00 00 00 	nop 
     9b4:	01 00 00 00 	nop 
     9b8:	01 00 00 00 	nop 
     9bc:	01 00 00 00 	nop 
     9c0:	01 00 00 00 	nop 
     9c4:	01 00 00 00 	nop 
     9c8:	01 00 00 00 	nop 
     9cc:	01 00 00 00 	nop 
     9d0:	01 00 00 00 	nop 
     9d4:	01 00 00 00 	nop 
     9d8:	01 00 00 00 	nop 
     9dc:	01 00 00 00 	nop 
     9e0:	01 00 00 00 	nop 
     9e4:	01 00 00 00 	nop 
     9e8:	01 00 00 00 	nop 
     9ec:	01 00 00 00 	nop 
     9f0:	01 00 00 00 	nop 
     9f4:	01 00 00 00 	nop 
     9f8:	01 00 00 00 	nop 
     9fc:	01 00 00 00 	nop 
     a00:	01 00 00 00 	nop 
     a04:	01 00 00 00 	nop 
     a08:	01 00 00 00 	nop 
     a0c:	01 00 00 00 	nop 
     a10:	01 00 00 00 	nop 
     a14:	01 00 00 00 	nop 
     a18:	01 00 00 00 	nop 
     a1c:	01 00 00 00 	nop 
     a20:	01 00 00 00 	nop 
     a24:	01 00 00 00 	nop 
     a28:	01 00 00 00 	nop 
     a2c:	01 00 00 00 	nop 
     a30:	01 00 00 00 	nop 
     a34:	01 00 00 00 	nop 
     a38:	01 00 00 00 	nop 
     a3c:	01 00 00 00 	nop 
     a40:	01 00 00 00 	nop 
     a44:	01 00 00 00 	nop 
     a48:	01 00 00 00 	nop 
     a4c:	01 00 00 00 	nop 
     a50:	01 00 00 00 	nop 
     a54:	01 00 00 00 	nop 
     a58:	01 00 00 00 	nop 
     a5c:	01 00 00 00 	nop 
     a60:	01 00 00 00 	nop 
     a64:	01 00 00 00 	nop 
     a68:	01 00 00 00 	nop 
     a6c:	01 00 00 00 	nop 
     a70:	01 00 00 00 	nop 
     a74:	01 00 00 00 	nop 
     a78:	01 00 00 00 	nop 
     a7c:	01 00 00 00 	nop 
     a80:	01 00 00 00 	nop 
     a84:	01 00 00 00 	nop 
     a88:	01 00 00 00 	nop 
     a8c:	01 00 00 00 	nop 
     a90:	01 00 00 00 	nop 
     a94:	01 00 00 00 	nop 
     a98:	01 00 00 00 	nop 
     a9c:	01 00 00 00 	nop 
     aa0:	01 00 00 00 	nop 
     aa4:	01 00 00 00 	nop 
     aa8:	01 00 00 00 	nop 
     aac:	01 00 00 00 	nop 
     ab0:	01 00 00 00 	nop 
     ab4:	01 00 00 00 	nop 
     ab8:	01 00 00 00 	nop 
     abc:	01 00 00 00 	nop 
     ac0:	01 00 00 00 	nop 
     ac4:	01 00 00 00 	nop 
     ac8:	01 00 00 00 	nop 
     acc:	01 00 00 00 	nop 
     ad0:	01 00 00 00 	nop 
     ad4:	01 00 00 00 	nop 
     ad8:	01 00 00 00 	nop 
     adc:	01 00 00 00 	nop 
     ae0:	01 00 00 00 	nop 
     ae4:	01 00 00 00 	nop 
     ae8:	01 00 00 00 	nop 
     aec:	01 00 00 00 	nop 
     af0:	01 00 00 00 	nop 
     af4:	01 00 00 00 	nop 
     af8:	01 00 00 00 	nop 
     afc:	01 00 00 00 	nop 
     b00:	01 00 00 00 	nop 
     b04:	01 00 00 00 	nop 
     b08:	01 00 00 00 	nop 
     b0c:	01 00 00 00 	nop 
     b10:	01 00 00 00 	nop 
     b14:	01 00 00 00 	nop 
     b18:	01 00 00 00 	nop 
     b1c:	01 00 00 00 	nop 
     b20:	01 00 00 00 	nop 
     b24:	01 00 00 00 	nop 
     b28:	01 00 00 00 	nop 
     b2c:	01 00 00 00 	nop 
     b30:	01 00 00 00 	nop 
     b34:	01 00 00 00 	nop 
     b38:	01 00 00 00 	nop 
     b3c:	01 00 00 00 	nop 
     b40:	01 00 00 00 	nop 
     b44:	01 00 00 00 	nop 
     b48:	01 00 00 00 	nop 
     b4c:	01 00 00 00 	nop 
     b50:	01 00 00 00 	nop 
     b54:	01 00 00 00 	nop 
     b58:	01 00 00 00 	nop 
     b5c:	01 00 00 00 	nop 
     b60:	01 00 00 00 	nop 
     b64:	01 00 00 00 	nop 
     b68:	01 00 00 00 	nop 
     b6c:	01 00 00 00 	nop 
     b70:	01 00 00 00 	nop 
     b74:	01 00 00 00 	nop 
     b78:	01 00 00 00 	nop 
     b7c:	01 00 00 00 	nop 
     b80:	01 00 00 00 	nop 
     b84:	01 00 00 00 	nop 
     b88:	01 00 00 00 	nop 
     b8c:	01 00 00 00 	nop 
     b90:	01 00 00 00 	nop 
     b94:	01 00 00 00 	nop 
     b98:	01 00 00 00 	nop 
     b9c:	01 00 00 00 	nop 
     ba0:	01 00 00 00 	nop 
     ba4:	01 00 00 00 	nop 
     ba8:	01 00 00 00 	nop 
     bac:	01 00 00 00 	nop 
     bb0:	01 00 00 00 	nop 
     bb4:	01 00 00 00 	nop 
     bb8:	01 00 00 00 	nop 
     bbc:	01 00 00 00 	nop 
     bc0:	01 00 00 00 	nop 
     bc4:	01 00 00 00 	nop 
     bc8:	01 00 00 00 	nop 
     bcc:	01 00 00 00 	nop 
     bd0:	01 00 00 00 	nop 
     bd4:	01 00 00 00 	nop 
     bd8:	01 00 00 00 	nop 
     bdc:	01 00 00 00 	nop 
     be0:	01 00 00 00 	nop 
     be4:	01 00 00 00 	nop 
     be8:	01 00 00 00 	nop 
     bec:	01 00 00 00 	nop 
     bf0:	01 00 00 00 	nop 
     bf4:	01 00 00 00 	nop 
     bf8:	01 00 00 00 	nop 
     bfc:	01 00 00 00 	nop 
     c00:	01 00 00 00 	nop 
     c04:	01 00 00 00 	nop 
     c08:	01 00 00 00 	nop 
     c0c:	01 00 00 00 	nop 
     c10:	01 00 00 00 	nop 
     c14:	01 00 00 00 	nop 
     c18:	01 00 00 00 	nop 
     c1c:	01 00 00 00 	nop 
     c20:	01 00 00 00 	nop 
     c24:	01 00 00 00 	nop 
     c28:	01 00 00 00 	nop 
     c2c:	01 00 00 00 	nop 
     c30:	01 00 00 00 	nop 
     c34:	01 00 00 00 	nop 
     c38:	01 00 00 00 	nop 
     c3c:	01 00 00 00 	nop 
     c40:	01 00 00 00 	nop 
     c44:	01 00 00 00 	nop 
     c48:	01 00 00 00 	nop 
     c4c:	01 00 00 00 	nop 
     c50:	01 00 00 00 	nop 
     c54:	01 00 00 00 	nop 
     c58:	01 00 00 00 	nop 
     c5c:	01 00 00 00 	nop 
     c60:	01 00 00 00 	nop 
     c64:	01 00 00 00 	nop 
     c68:	01 00 00 00 	nop 
     c6c:	01 00 00 00 	nop 
     c70:	01 00 00 00 	nop 
     c74:	01 00 00 00 	nop 
     c78:	01 00 00 00 	nop 
     c7c:	01 00 00 00 	nop 
     c80:	01 00 00 00 	nop 
     c84:	01 00 00 00 	nop 
     c88:	01 00 00 00 	nop 
     c8c:	01 00 00 00 	nop 
     c90:	01 00 00 00 	nop 
     c94:	01 00 00 00 	nop 
     c98:	01 00 00 00 	nop 
     c9c:	01 00 00 00 	nop 
     ca0:	01 00 00 00 	nop 
     ca4:	01 00 00 00 	nop 
     ca8:	01 00 00 00 	nop 
     cac:	01 00 00 00 	nop 
     cb0:	01 00 00 00 	nop 
     cb4:	01 00 00 00 	nop 
     cb8:	01 00 00 00 	nop 
     cbc:	01 00 00 00 	nop 
     cc0:	01 00 00 00 	nop 
     cc4:	01 00 00 00 	nop 
     cc8:	01 00 00 00 	nop 
     ccc:	01 00 00 00 	nop 
     cd0:	01 00 00 00 	nop 
     cd4:	01 00 00 00 	nop 
     cd8:	01 00 00 00 	nop 
     cdc:	01 00 00 00 	nop 
     ce0:	01 00 00 00 	nop 
     ce4:	01 00 00 00 	nop 
     ce8:	01 00 00 00 	nop 
     cec:	01 00 00 00 	nop 
     cf0:	01 00 00 00 	nop 
     cf4:	01 00 00 00 	nop 
     cf8:	01 00 00 00 	nop 
     cfc:	01 00 00 00 	nop 
     d00:	01 00 00 00 	nop 
     d04:	01 00 00 00 	nop 
     d08:	01 00 00 00 	nop 
     d0c:	01 00 00 00 	nop 
     d10:	01 00 00 00 	nop 
     d14:	01 00 00 00 	nop 
     d18:	01 00 00 00 	nop 
     d1c:	01 00 00 00 	nop 
     d20:	01 00 00 00 	nop 
     d24:	01 00 00 00 	nop 
     d28:	01 00 00 00 	nop 
     d2c:	01 00 00 00 	nop 
     d30:	01 00 00 00 	nop 
     d34:	01 00 00 00 	nop 
     d38:	01 00 00 00 	nop 
     d3c:	01 00 00 00 	nop 
     d40:	01 00 00 00 	nop 
     d44:	01 00 00 00 	nop 
     d48:	01 00 00 00 	nop 
     d4c:	01 00 00 00 	nop 
     d50:	01 00 00 00 	nop 
     d54:	01 00 00 00 	nop 
     d58:	01 00 00 00 	nop 
     d5c:	01 00 00 00 	nop 
     d60:	01 00 00 00 	nop 
     d64:	01 00 00 00 	nop 
     d68:	01 00 00 00 	nop 
     d6c:	01 00 00 00 	nop 
     d70:	01 00 00 00 	nop 
     d74:	01 00 00 00 	nop 
     d78:	01 00 00 00 	nop 
     d7c:	01 00 00 00 	nop 
     d80:	01 00 00 00 	nop 
     d84:	01 00 00 00 	nop 
     d88:	01 00 00 00 	nop 
     d8c:	01 00 00 00 	nop 
     d90:	01 00 00 00 	nop 
     d94:	01 00 00 00 	nop 
     d98:	01 00 00 00 	nop 
     d9c:	01 00 00 00 	nop 
     da0:	01 00 00 00 	nop 
     da4:	01 00 00 00 	nop 
     da8:	01 00 00 00 	nop 
     dac:	01 00 00 00 	nop 
     db0:	01 00 00 00 	nop 
     db4:	01 00 00 00 	nop 
     db8:	01 00 00 00 	nop 
     dbc:	01 00 00 00 	nop 
     dc0:	01 00 00 00 	nop 
     dc4:	01 00 00 00 	nop 
     dc8:	01 00 00 00 	nop 
     dcc:	01 00 00 00 	nop 
     dd0:	01 00 00 00 	nop 
     dd4:	01 00 00 00 	nop 
     dd8:	01 00 00 00 	nop 
     ddc:	01 00 00 00 	nop 
     de0:	01 00 00 00 	nop 
     de4:	01 00 00 00 	nop 
     de8:	01 00 00 00 	nop 
     dec:	01 00 00 00 	nop 
     df0:	01 00 00 00 	nop 
     df4:	01 00 00 00 	nop 
     df8:	01 00 00 00 	nop 
     dfc:	01 00 00 00 	nop 
     e00:	01 00 00 00 	nop 
     e04:	01 00 00 00 	nop 
     e08:	01 00 00 00 	nop 
     e0c:	01 00 00 00 	nop 
     e10:	01 00 00 00 	nop 
     e14:	01 00 00 00 	nop 
     e18:	01 00 00 00 	nop 
     e1c:	01 00 00 00 	nop 
     e20:	01 00 00 00 	nop 
     e24:	01 00 00 00 	nop 
     e28:	01 00 00 00 	nop 
     e2c:	01 00 00 00 	nop 
     e30:	01 00 00 00 	nop 
     e34:	01 00 00 00 	nop 
     e38:	01 00 00 00 	nop 
     e3c:	01 00 00 00 	nop 
     e40:	01 00 00 00 	nop 
     e44:	01 00 00 00 	nop 
     e48:	01 00 00 00 	nop 
     e4c:	01 00 00 00 	nop 
     e50:	01 00 00 00 	nop 
     e54:	01 00 00 00 	nop 
     e58:	01 00 00 00 	nop 
     e5c:	01 00 00 00 	nop 
     e60:	01 00 00 00 	nop 
     e64:	01 00 00 00 	nop 
     e68:	01 00 00 00 	nop 
     e6c:	01 00 00 00 	nop 
     e70:	01 00 00 00 	nop 
     e74:	01 00 00 00 	nop 
     e78:	01 00 00 00 	nop 
     e7c:	01 00 00 00 	nop 
     e80:	01 00 00 00 	nop 
     e84:	01 00 00 00 	nop 
     e88:	01 00 00 00 	nop 
     e8c:	01 00 00 00 	nop 
     e90:	01 00 00 00 	nop 
     e94:	01 00 00 00 	nop 
     e98:	01 00 00 00 	nop 
     e9c:	01 00 00 00 	nop 
     ea0:	01 00 00 00 	nop 
     ea4:	01 00 00 00 	nop 
     ea8:	01 00 00 00 	nop 
     eac:	01 00 00 00 	nop 
     eb0:	01 00 00 00 	nop 
     eb4:	01 00 00 00 	nop 
     eb8:	01 00 00 00 	nop 
     ebc:	01 00 00 00 	nop 
     ec0:	01 00 00 00 	nop 
     ec4:	01 00 00 00 	nop 
     ec8:	01 00 00 00 	nop 
     ecc:	01 00 00 00 	nop 
     ed0:	01 00 00 00 	nop 
     ed4:	01 00 00 00 	nop 
     ed8:	01 00 00 00 	nop 
     edc:	01 00 00 00 	nop 
     ee0:	01 00 00 00 	nop 
     ee4:	01 00 00 00 	nop 
     ee8:	01 00 00 00 	nop 
     eec:	01 00 00 00 	nop 
     ef0:	01 00 00 00 	nop 
     ef4:	01 00 00 00 	nop 
     ef8:	01 00 00 00 	nop 
     efc:	01 00 00 00 	nop 
     f00:	01 00 00 00 	nop 
     f04:	01 00 00 00 	nop 
     f08:	01 00 00 00 	nop 
     f0c:	01 00 00 00 	nop 
     f10:	01 00 00 00 	nop 
     f14:	01 00 00 00 	nop 
     f18:	01 00 00 00 	nop 
     f1c:	01 00 00 00 	nop 
     f20:	01 00 00 00 	nop 
     f24:	01 00 00 00 	nop 
     f28:	01 00 00 00 	nop 
     f2c:	01 00 00 00 	nop 
     f30:	01 00 00 00 	nop 
     f34:	01 00 00 00 	nop 
     f38:	01 00 00 00 	nop 
     f3c:	01 00 00 00 	nop 
     f40:	01 00 00 00 	nop 
     f44:	01 00 00 00 	nop 
     f48:	01 00 00 00 	nop 
     f4c:	01 00 00 00 	nop 
     f50:	01 00 00 00 	nop 
     f54:	01 00 00 00 	nop 
     f58:	01 00 00 00 	nop 
     f5c:	01 00 00 00 	nop 
     f60:	01 00 00 00 	nop 
     f64:	01 00 00 00 	nop 
     f68:	01 00 00 00 	nop 
     f6c:	01 00 00 00 	nop 
     f70:	01 00 00 00 	nop 
     f74:	01 00 00 00 	nop 
     f78:	01 00 00 00 	nop 
     f7c:	01 00 00 00 	nop 
     f80:	01 00 00 00 	nop 
     f84:	01 00 00 00 	nop 
     f88:	01 00 00 00 	nop 
     f8c:	01 00 00 00 	nop 
     f90:	01 00 00 00 	nop 
     f94:	01 00 00 00 	nop 
     f98:	01 00 00 00 	nop 
     f9c:	01 00 00 00 	nop 
     fa0:	01 00 00 00 	nop 
     fa4:	01 00 00 00 	nop 
     fa8:	01 00 00 00 	nop 
     fac:	01 00 00 00 	nop 
     fb0:	01 00 00 00 	nop 
     fb4:	01 00 00 00 	nop 
     fb8:	01 00 00 00 	nop 
     fbc:	01 00 00 00 	nop 
     fc0:	01 00 00 00 	nop 
     fc4:	01 00 00 00 	nop 
     fc8:	01 00 00 00 	nop 
     fcc:	01 00 00 00 	nop 
     fd0:	01 00 00 00 	nop 
     fd4:	01 00 00 00 	nop 
     fd8:	01 00 00 00 	nop 
     fdc:	01 00 00 00 	nop 
     fe0:	01 00 00 00 	nop 
     fe4:	01 00 00 00 	nop 
     fe8:	01 00 00 00 	nop 
     fec:	01 00 00 00 	nop 
     ff0:	01 00 00 00 	nop 
     ff4:	01 00 00 00 	nop 
     ff8:	01 00 00 00 	nop 
     ffc:	01 00 00 00 	nop 

00001000 <HW_trap_0x00>:
    1000:	82 10 20 00 	clr  %g1	! 0 <main>
    1004:	81 e8 00 00 	restore 
    1008:	91 d0 20 00 	ta  0
    100c:	01 00 00 00 	nop 

00001010 <HW_trap_0x01>:
    1010:	82 10 20 01 	mov  1, %g1	! 1 <main+0x1>
    1014:	81 e8 00 00 	restore 
    1018:	91 d0 20 00 	ta  0
    101c:	01 00 00 00 	nop 

00001020 <HW_trap_0x02>:
    1020:	82 10 20 02 	mov  2, %g1	! 2 <main+0x2>
    1024:	81 e8 00 00 	restore 
    1028:	91 d0 20 00 	ta  0
    102c:	01 00 00 00 	nop 

00001030 <HW_trap_0x03>:
    1030:	82 10 20 03 	mov  3, %g1	! 3 <main+0x3>
    1034:	81 e8 00 00 	restore 
    1038:	91 d0 20 00 	ta  0
    103c:	01 00 00 00 	nop 

00001040 <HW_trap_0x04>:
    1040:	82 10 20 04 	mov  4, %g1	! 4 <main+0x4>
    1044:	81 e8 00 00 	restore 
    1048:	91 d0 20 00 	ta  0
    104c:	01 00 00 00 	nop 

00001050 <HW_trap_0x05>:
    1050:	82 10 20 05 	mov  5, %g1	! 5 <main+0x5>
    1054:	81 e8 00 00 	restore 
    1058:	91 d0 20 00 	ta  0
    105c:	01 00 00 00 	nop 

00001060 <HW_trap_0x06>:
    1060:	82 10 20 06 	mov  6, %g1	! 6 <main+0x6>
    1064:	81 e8 00 00 	restore 
    1068:	91 d0 20 00 	ta  0
    106c:	01 00 00 00 	nop 

00001070 <HW_trap_0x07>:
    1070:	82 10 20 07 	mov  7, %g1	! 7 <main+0x7>
    1074:	81 e8 00 00 	restore 
    1078:	91 d0 20 00 	ta  0
    107c:	01 00 00 00 	nop 

00001080 <HW_trap_0x08>:
    1080:	82 10 20 08 	mov  8, %g1	! 8 <main+0x8>
    1084:	81 e8 00 00 	restore 
    1088:	91 d0 20 00 	ta  0
    108c:	01 00 00 00 	nop 

00001090 <HW_trap_0x09>:
    1090:	82 10 20 09 	mov  9, %g1	! 9 <main+0x9>
    1094:	81 e8 00 00 	restore 
    1098:	91 d0 20 00 	ta  0
    109c:	01 00 00 00 	nop 

000010a0 <HW_trap_0x0a>:
    10a0:	82 10 20 0a 	mov  0xa, %g1	! a <main+0xa>
    10a4:	81 e8 00 00 	restore 
    10a8:	91 d0 20 00 	ta  0
    10ac:	01 00 00 00 	nop 

000010b0 <HW_trap_0x0b>:
    10b0:	82 10 20 0b 	mov  0xb, %g1	! b <main+0xb>
    10b4:	81 e8 00 00 	restore 
    10b8:	91 d0 20 00 	ta  0
    10bc:	01 00 00 00 	nop 

000010c0 <HW_trap_0x0c>:
    10c0:	82 10 20 0c 	mov  0xc, %g1	! c <main+0xc>
    10c4:	81 e8 00 00 	restore 
    10c8:	91 d0 20 00 	ta  0
    10cc:	01 00 00 00 	nop 

000010d0 <HW_trap_0x0d>:
    10d0:	82 10 20 0d 	mov  0xd, %g1	! d <main+0xd>
    10d4:	81 e8 00 00 	restore 
    10d8:	91 d0 20 00 	ta  0
    10dc:	01 00 00 00 	nop 

000010e0 <HW_trap_0x0e>:
    10e0:	82 10 20 0e 	mov  0xe, %g1	! e <main+0xe>
    10e4:	81 e8 00 00 	restore 
    10e8:	91 d0 20 00 	ta  0
    10ec:	01 00 00 00 	nop 

000010f0 <HW_trap_0x0f>:
    10f0:	82 10 20 0f 	mov  0xf, %g1	! f <main+0xf>
    10f4:	81 e8 00 00 	restore 
    10f8:	91 d0 20 00 	ta  0
    10fc:	01 00 00 00 	nop 

00001100 <HW_trap_0x10>:
    1100:	82 10 20 10 	mov  0x10, %g1	! 10 <main+0x10>
    1104:	81 e8 00 00 	restore 
    1108:	91 d0 20 00 	ta  0
    110c:	01 00 00 00 	nop 

00001110 <HW_trap_0x11>:
    1110:	82 10 20 11 	mov  0x11, %g1	! 11 <main+0x11>
    1114:	81 e8 00 00 	restore 
    1118:	91 d0 20 00 	ta  0
    111c:	01 00 00 00 	nop 

00001120 <HW_trap_0x12>:
    1120:	82 10 20 12 	mov  0x12, %g1	! 12 <main+0x12>
    1124:	81 e8 00 00 	restore 
    1128:	91 d0 20 00 	ta  0
    112c:	01 00 00 00 	nop 

00001130 <HW_trap_0x13>:
    1130:	82 10 20 13 	mov  0x13, %g1	! 13 <main+0x13>
    1134:	81 e8 00 00 	restore 
    1138:	91 d0 20 00 	ta  0
    113c:	01 00 00 00 	nop 

00001140 <HW_trap_0x14>:
    1140:	82 10 20 14 	mov  0x14, %g1	! 14 <main+0x14>
    1144:	81 e8 00 00 	restore 
    1148:	91 d0 20 00 	ta  0
    114c:	01 00 00 00 	nop 

00001150 <HW_trap_0x15>:
    1150:	82 10 20 15 	mov  0x15, %g1	! 15 <main+0x15>
    1154:	81 e8 00 00 	restore 
    1158:	91 d0 20 00 	ta  0
    115c:	01 00 00 00 	nop 

00001160 <HW_trap_0x16>:
    1160:	82 10 20 16 	mov  0x16, %g1	! 16 <main+0x16>
    1164:	81 e8 00 00 	restore 
    1168:	91 d0 20 00 	ta  0
    116c:	01 00 00 00 	nop 

00001170 <HW_trap_0x17>:
    1170:	82 10 20 17 	mov  0x17, %g1	! 17 <main+0x17>
    1174:	81 e8 00 00 	restore 
    1178:	91 d0 20 00 	ta  0
    117c:	01 00 00 00 	nop 

00001180 <HW_trap_0x18>:
    1180:	82 10 20 18 	mov  0x18, %g1	! 18 <main+0x18>
    1184:	81 e8 00 00 	restore 
    1188:	91 d0 20 00 	ta  0
    118c:	01 00 00 00 	nop 

00001190 <HW_trap_0x19>:
    1190:	82 10 20 19 	mov  0x19, %g1	! 19 <main+0x19>
    1194:	81 e8 00 00 	restore 
    1198:	91 d0 20 00 	ta  0
    119c:	01 00 00 00 	nop 

000011a0 <HW_trap_0x1a>:
    11a0:	82 10 20 1a 	mov  0x1a, %g1	! 1a <main+0x1a>
    11a4:	81 e8 00 00 	restore 
    11a8:	91 d0 20 00 	ta  0
    11ac:	01 00 00 00 	nop 

000011b0 <HW_trap_0x1b>:
    11b0:	82 10 20 1b 	mov  0x1b, %g1	! 1b <main+0x1b>
    11b4:	81 e8 00 00 	restore 
    11b8:	91 d0 20 00 	ta  0
    11bc:	01 00 00 00 	nop 

000011c0 <HW_trap_0x1c>:
    11c0:	82 10 20 1c 	mov  0x1c, %g1	! 1c <main+0x1c>
    11c4:	81 e8 00 00 	restore 
    11c8:	91 d0 20 00 	ta  0
    11cc:	01 00 00 00 	nop 

000011d0 <HW_trap_0x1d>:
    11d0:	82 10 20 1d 	mov  0x1d, %g1	! 1d <main+0x1d>
    11d4:	81 e8 00 00 	restore 
    11d8:	91 d0 20 00 	ta  0
    11dc:	01 00 00 00 	nop 

000011e0 <HW_trap_0x1e>:
    11e0:	82 10 20 1e 	mov  0x1e, %g1	! 1e <main+0x1e>
    11e4:	81 e8 00 00 	restore 
    11e8:	91 d0 20 00 	ta  0
    11ec:	01 00 00 00 	nop 

000011f0 <HW_trap_0x1f>:
    11f0:	82 10 20 1f 	mov  0x1f, %g1	! 1f <main+0x1f>
    11f4:	81 e8 00 00 	restore 
    11f8:	91 d0 20 00 	ta  0
    11fc:	01 00 00 00 	nop 

00001200 <HW_trap_0x20>:
    1200:	82 10 20 20 	mov  0x20, %g1	! 20 <main+0x20>
    1204:	81 e8 00 00 	restore 
    1208:	91 d0 20 00 	ta  0
    120c:	01 00 00 00 	nop 

00001210 <HW_trap_0x21>:
    1210:	82 10 20 21 	mov  0x21, %g1	! 21 <main+0x21>
    1214:	81 e8 00 00 	restore 
    1218:	91 d0 20 00 	ta  0
    121c:	01 00 00 00 	nop 

00001220 <HW_trap_0x22>:
    1220:	82 10 20 22 	mov  0x22, %g1	! 22 <main+0x22>
    1224:	81 e8 00 00 	restore 
    1228:	91 d0 20 00 	ta  0
    122c:	01 00 00 00 	nop 

00001230 <HW_trap_0x23>:
    1230:	82 10 20 23 	mov  0x23, %g1	! 23 <main+0x23>
    1234:	81 e8 00 00 	restore 
    1238:	91 d0 20 00 	ta  0
    123c:	01 00 00 00 	nop 

00001240 <HW_trap_0x24>:
    1240:	82 10 20 24 	mov  0x24, %g1	! 24 <main+0x24>
    1244:	81 e8 00 00 	restore 
    1248:	91 d0 20 00 	ta  0
    124c:	01 00 00 00 	nop 

00001250 <HW_trap_0x25>:
    1250:	82 10 20 25 	mov  0x25, %g1	! 25 <main+0x25>
    1254:	81 e8 00 00 	restore 
    1258:	91 d0 20 00 	ta  0
    125c:	01 00 00 00 	nop 

00001260 <HW_trap_0x26>:
    1260:	82 10 20 26 	mov  0x26, %g1	! 26 <main+0x26>
    1264:	81 e8 00 00 	restore 
    1268:	91 d0 20 00 	ta  0
    126c:	01 00 00 00 	nop 

00001270 <HW_trap_0x27>:
    1270:	82 10 20 27 	mov  0x27, %g1	! 27 <main+0x27>
    1274:	81 e8 00 00 	restore 
    1278:	91 d0 20 00 	ta  0
    127c:	01 00 00 00 	nop 

00001280 <HW_trap_0x28>:
    1280:	82 10 20 28 	mov  0x28, %g1	! 28 <main+0x28>
    1284:	81 e8 00 00 	restore 
    1288:	91 d0 20 00 	ta  0
    128c:	01 00 00 00 	nop 

00001290 <HW_trap_0x29>:
    1290:	82 10 20 29 	mov  0x29, %g1	! 29 <main+0x29>
    1294:	81 e8 00 00 	restore 
    1298:	91 d0 20 00 	ta  0
    129c:	01 00 00 00 	nop 

000012a0 <HW_trap_0x2a>:
    12a0:	82 10 20 2a 	mov  0x2a, %g1	! 2a <main+0x2a>
    12a4:	81 e8 00 00 	restore 
    12a8:	91 d0 20 00 	ta  0
    12ac:	01 00 00 00 	nop 

000012b0 <HW_trap_0x2b>:
    12b0:	82 10 20 2b 	mov  0x2b, %g1	! 2b <main+0x2b>
    12b4:	81 e8 00 00 	restore 
    12b8:	91 d0 20 00 	ta  0
    12bc:	01 00 00 00 	nop 

000012c0 <HW_trap_0x2c>:
    12c0:	82 10 20 2c 	mov  0x2c, %g1	! 2c <main+0x2c>
    12c4:	81 e8 00 00 	restore 
    12c8:	91 d0 20 00 	ta  0
    12cc:	01 00 00 00 	nop 

000012d0 <HW_trap_0x2d>:
    12d0:	82 10 20 2d 	mov  0x2d, %g1	! 2d <main+0x2d>
    12d4:	81 e8 00 00 	restore 
    12d8:	91 d0 20 00 	ta  0
    12dc:	01 00 00 00 	nop 

000012e0 <HW_trap_0x2e>:
    12e0:	82 10 20 2e 	mov  0x2e, %g1	! 2e <main+0x2e>
    12e4:	81 e8 00 00 	restore 
    12e8:	91 d0 20 00 	ta  0
    12ec:	01 00 00 00 	nop 

000012f0 <HW_trap_0x2f>:
    12f0:	82 10 20 2f 	mov  0x2f, %g1	! 2f <main+0x2f>
    12f4:	81 e8 00 00 	restore 
    12f8:	91 d0 20 00 	ta  0
    12fc:	01 00 00 00 	nop 

00001300 <HW_trap_0x30>:
    1300:	82 10 20 30 	mov  0x30, %g1	! 30 <main+0x30>
    1304:	81 e8 00 00 	restore 
    1308:	91 d0 20 00 	ta  0
    130c:	01 00 00 00 	nop 

00001310 <HW_trap_0x31>:
    1310:	82 10 20 31 	mov  0x31, %g1	! 31 <main+0x31>
    1314:	81 e8 00 00 	restore 
    1318:	91 d0 20 00 	ta  0
    131c:	01 00 00 00 	nop 

00001320 <HW_trap_0x32>:
    1320:	82 10 20 32 	mov  0x32, %g1	! 32 <main+0x32>
    1324:	81 e8 00 00 	restore 
    1328:	91 d0 20 00 	ta  0
    132c:	01 00 00 00 	nop 

00001330 <HW_trap_0x33>:
    1330:	82 10 20 33 	mov  0x33, %g1	! 33 <main+0x33>
    1334:	81 e8 00 00 	restore 
    1338:	91 d0 20 00 	ta  0
    133c:	01 00 00 00 	nop 

00001340 <HW_trap_0x34>:
    1340:	82 10 20 34 	mov  0x34, %g1	! 34 <main+0x34>
    1344:	81 e8 00 00 	restore 
    1348:	91 d0 20 00 	ta  0
    134c:	01 00 00 00 	nop 

00001350 <HW_trap_0x35>:
    1350:	82 10 20 35 	mov  0x35, %g1	! 35 <main+0x35>
    1354:	81 e8 00 00 	restore 
    1358:	91 d0 20 00 	ta  0
    135c:	01 00 00 00 	nop 

00001360 <HW_trap_0x36>:
    1360:	82 10 20 36 	mov  0x36, %g1	! 36 <main+0x36>
    1364:	81 e8 00 00 	restore 
    1368:	91 d0 20 00 	ta  0
    136c:	01 00 00 00 	nop 

00001370 <HW_trap_0x37>:
    1370:	82 10 20 37 	mov  0x37, %g1	! 37 <main+0x37>
    1374:	81 e8 00 00 	restore 
    1378:	91 d0 20 00 	ta  0
    137c:	01 00 00 00 	nop 

00001380 <HW_trap_0x38>:
    1380:	82 10 20 38 	mov  0x38, %g1	! 38 <main+0x38>
    1384:	81 e8 00 00 	restore 
    1388:	91 d0 20 00 	ta  0
    138c:	01 00 00 00 	nop 

00001390 <HW_trap_0x39>:
    1390:	82 10 20 39 	mov  0x39, %g1	! 39 <main+0x39>
    1394:	81 e8 00 00 	restore 
    1398:	91 d0 20 00 	ta  0
    139c:	01 00 00 00 	nop 

000013a0 <HW_trap_0x3a>:
    13a0:	82 10 20 3a 	mov  0x3a, %g1	! 3a <main+0x3a>
    13a4:	81 e8 00 00 	restore 
    13a8:	91 d0 20 00 	ta  0
    13ac:	01 00 00 00 	nop 

000013b0 <HW_trap_0x3b>:
    13b0:	82 10 20 3b 	mov  0x3b, %g1	! 3b <main+0x3b>
    13b4:	81 e8 00 00 	restore 
    13b8:	91 d0 20 00 	ta  0
    13bc:	01 00 00 00 	nop 

000013c0 <HW_trap_0x3c>:
    13c0:	82 10 20 3c 	mov  0x3c, %g1	! 3c <main+0x3c>
    13c4:	81 e8 00 00 	restore 
    13c8:	91 d0 20 00 	ta  0
    13cc:	01 00 00 00 	nop 

000013d0 <HW_trap_0x3d>:
    13d0:	82 10 20 3d 	mov  0x3d, %g1	! 3d <main+0x3d>
    13d4:	81 e8 00 00 	restore 
    13d8:	91 d0 20 00 	ta  0
    13dc:	01 00 00 00 	nop 

000013e0 <HW_trap_0x3e>:
    13e0:	82 10 20 3e 	mov  0x3e, %g1	! 3e <main+0x3e>
    13e4:	81 e8 00 00 	restore 
    13e8:	91 d0 20 00 	ta  0
    13ec:	01 00 00 00 	nop 

000013f0 <HW_trap_0x3f>:
    13f0:	82 10 20 3f 	mov  0x3f, %g1	! 3f <main+0x3f>
    13f4:	81 e8 00 00 	restore 
    13f8:	91 d0 20 00 	ta  0
    13fc:	01 00 00 00 	nop 

00001400 <HW_trap_0x40>:
    1400:	82 10 20 40 	mov  0x40, %g1	! 40 <main+0x40>
    1404:	81 e8 00 00 	restore 
    1408:	91 d0 20 00 	ta  0
    140c:	01 00 00 00 	nop 

00001410 <HW_trap_0x41>:
    1410:	82 10 20 41 	mov  0x41, %g1	! 41 <main+0x41>
    1414:	81 e8 00 00 	restore 
    1418:	91 d0 20 00 	ta  0
    141c:	01 00 00 00 	nop 

00001420 <HW_trap_0x42>:
    1420:	82 10 20 42 	mov  0x42, %g1	! 42 <main+0x42>
    1424:	81 e8 00 00 	restore 
    1428:	91 d0 20 00 	ta  0
    142c:	01 00 00 00 	nop 

00001430 <HW_trap_0x43>:
    1430:	82 10 20 43 	mov  0x43, %g1	! 43 <main+0x43>
    1434:	81 e8 00 00 	restore 
    1438:	91 d0 20 00 	ta  0
    143c:	01 00 00 00 	nop 

00001440 <HW_trap_0x44>:
    1440:	82 10 20 44 	mov  0x44, %g1	! 44 <main+0x44>
    1444:	81 e8 00 00 	restore 
    1448:	91 d0 20 00 	ta  0
    144c:	01 00 00 00 	nop 

00001450 <HW_trap_0x45>:
    1450:	82 10 20 45 	mov  0x45, %g1	! 45 <main+0x45>
    1454:	81 e8 00 00 	restore 
    1458:	91 d0 20 00 	ta  0
    145c:	01 00 00 00 	nop 

00001460 <HW_trap_0x46>:
    1460:	82 10 20 46 	mov  0x46, %g1	! 46 <main+0x46>
    1464:	81 e8 00 00 	restore 
    1468:	91 d0 20 00 	ta  0
    146c:	01 00 00 00 	nop 

00001470 <HW_trap_0x47>:
    1470:	82 10 20 47 	mov  0x47, %g1	! 47 <main+0x47>
    1474:	81 e8 00 00 	restore 
    1478:	91 d0 20 00 	ta  0
    147c:	01 00 00 00 	nop 

00001480 <HW_trap_0x48>:
    1480:	82 10 20 48 	mov  0x48, %g1	! 48 <main+0x48>
    1484:	81 e8 00 00 	restore 
    1488:	91 d0 20 00 	ta  0
    148c:	01 00 00 00 	nop 

00001490 <HW_trap_0x49>:
    1490:	82 10 20 49 	mov  0x49, %g1	! 49 <main+0x49>
    1494:	81 e8 00 00 	restore 
    1498:	91 d0 20 00 	ta  0
    149c:	01 00 00 00 	nop 

000014a0 <HW_trap_0x4a>:
    14a0:	82 10 20 4a 	mov  0x4a, %g1	! 4a <main+0x4a>
    14a4:	81 e8 00 00 	restore 
    14a8:	91 d0 20 00 	ta  0
    14ac:	01 00 00 00 	nop 

000014b0 <HW_trap_0x4b>:
    14b0:	82 10 20 4b 	mov  0x4b, %g1	! 4b <main+0x4b>
    14b4:	81 e8 00 00 	restore 
    14b8:	91 d0 20 00 	ta  0
    14bc:	01 00 00 00 	nop 

000014c0 <HW_trap_0x4c>:
    14c0:	82 10 20 4c 	mov  0x4c, %g1	! 4c <main+0x4c>
    14c4:	81 e8 00 00 	restore 
    14c8:	91 d0 20 00 	ta  0
    14cc:	01 00 00 00 	nop 

000014d0 <HW_trap_0x4d>:
    14d0:	82 10 20 4d 	mov  0x4d, %g1	! 4d <main+0x4d>
    14d4:	81 e8 00 00 	restore 
    14d8:	91 d0 20 00 	ta  0
    14dc:	01 00 00 00 	nop 

000014e0 <HW_trap_0x4e>:
    14e0:	82 10 20 4e 	mov  0x4e, %g1	! 4e <main+0x4e>
    14e4:	81 e8 00 00 	restore 
    14e8:	91 d0 20 00 	ta  0
    14ec:	01 00 00 00 	nop 

000014f0 <HW_trap_0x4f>:
    14f0:	82 10 20 4f 	mov  0x4f, %g1	! 4f <main+0x4f>
    14f4:	81 e8 00 00 	restore 
    14f8:	91 d0 20 00 	ta  0
    14fc:	01 00 00 00 	nop 

00001500 <HW_trap_0x50>:
    1500:	82 10 20 50 	mov  0x50, %g1	! 50 <main+0x50>
    1504:	81 e8 00 00 	restore 
    1508:	91 d0 20 00 	ta  0
    150c:	01 00 00 00 	nop 

00001510 <HW_trap_0x51>:
    1510:	82 10 20 51 	mov  0x51, %g1	! 51 <main+0x51>
    1514:	81 e8 00 00 	restore 
    1518:	91 d0 20 00 	ta  0
    151c:	01 00 00 00 	nop 

00001520 <HW_trap_0x52>:
    1520:	82 10 20 52 	mov  0x52, %g1	! 52 <main+0x52>
    1524:	81 e8 00 00 	restore 
    1528:	91 d0 20 00 	ta  0
    152c:	01 00 00 00 	nop 

00001530 <HW_trap_0x53>:
    1530:	82 10 20 53 	mov  0x53, %g1	! 53 <main+0x53>
    1534:	81 e8 00 00 	restore 
    1538:	91 d0 20 00 	ta  0
    153c:	01 00 00 00 	nop 

00001540 <HW_trap_0x54>:
    1540:	82 10 20 54 	mov  0x54, %g1	! 54 <main+0x54>
    1544:	81 e8 00 00 	restore 
    1548:	91 d0 20 00 	ta  0
    154c:	01 00 00 00 	nop 

00001550 <HW_trap_0x55>:
    1550:	82 10 20 55 	mov  0x55, %g1	! 55 <main+0x55>
    1554:	81 e8 00 00 	restore 
    1558:	91 d0 20 00 	ta  0
    155c:	01 00 00 00 	nop 

00001560 <HW_trap_0x56>:
    1560:	82 10 20 56 	mov  0x56, %g1	! 56 <main+0x56>
    1564:	81 e8 00 00 	restore 
    1568:	91 d0 20 00 	ta  0
    156c:	01 00 00 00 	nop 

00001570 <HW_trap_0x57>:
    1570:	82 10 20 57 	mov  0x57, %g1	! 57 <main+0x57>
    1574:	81 e8 00 00 	restore 
    1578:	91 d0 20 00 	ta  0
    157c:	01 00 00 00 	nop 

00001580 <HW_trap_0x58>:
    1580:	82 10 20 58 	mov  0x58, %g1	! 58 <main+0x58>
    1584:	81 e8 00 00 	restore 
    1588:	91 d0 20 00 	ta  0
    158c:	01 00 00 00 	nop 

00001590 <HW_trap_0x59>:
    1590:	82 10 20 59 	mov  0x59, %g1	! 59 <main+0x59>
    1594:	81 e8 00 00 	restore 
    1598:	91 d0 20 00 	ta  0
    159c:	01 00 00 00 	nop 

000015a0 <HW_trap_0x5a>:
    15a0:	82 10 20 5a 	mov  0x5a, %g1	! 5a <main+0x5a>
    15a4:	81 e8 00 00 	restore 
    15a8:	91 d0 20 00 	ta  0
    15ac:	01 00 00 00 	nop 

000015b0 <HW_trap_0x5b>:
    15b0:	82 10 20 5b 	mov  0x5b, %g1	! 5b <main+0x5b>
    15b4:	81 e8 00 00 	restore 
    15b8:	91 d0 20 00 	ta  0
    15bc:	01 00 00 00 	nop 

000015c0 <HW_trap_0x5c>:
    15c0:	82 10 20 5c 	mov  0x5c, %g1	! 5c <main+0x5c>
    15c4:	81 e8 00 00 	restore 
    15c8:	91 d0 20 00 	ta  0
    15cc:	01 00 00 00 	nop 

000015d0 <HW_trap_0x5d>:
    15d0:	82 10 20 5d 	mov  0x5d, %g1	! 5d <main+0x5d>
    15d4:	81 e8 00 00 	restore 
    15d8:	91 d0 20 00 	ta  0
    15dc:	01 00 00 00 	nop 

000015e0 <HW_trap_0x5e>:
    15e0:	82 10 20 5e 	mov  0x5e, %g1	! 5e <main+0x5e>
    15e4:	81 e8 00 00 	restore 
    15e8:	91 d0 20 00 	ta  0
    15ec:	01 00 00 00 	nop 

000015f0 <HW_trap_0x5f>:
    15f0:	82 10 20 5f 	mov  0x5f, %g1	! 5f <main+0x5f>
    15f4:	81 e8 00 00 	restore 
    15f8:	91 d0 20 00 	ta  0
    15fc:	01 00 00 00 	nop 

00001600 <HW_trap_0x60>:
    1600:	82 10 20 60 	mov  0x60, %g1	! 60 <main+0x60>
    1604:	81 e8 00 00 	restore 
    1608:	91 d0 20 00 	ta  0
    160c:	01 00 00 00 	nop 

00001610 <HW_trap_0x61>:
    1610:	82 10 20 61 	mov  0x61, %g1	! 61 <main+0x61>
    1614:	81 e8 00 00 	restore 
    1618:	91 d0 20 00 	ta  0
    161c:	01 00 00 00 	nop 

00001620 <HW_trap_0x62>:
    1620:	82 10 20 62 	mov  0x62, %g1	! 62 <main+0x62>
    1624:	81 e8 00 00 	restore 
    1628:	91 d0 20 00 	ta  0
    162c:	01 00 00 00 	nop 

00001630 <HW_trap_0x63>:
    1630:	82 10 20 63 	mov  0x63, %g1	! 63 <main+0x63>
    1634:	81 e8 00 00 	restore 
    1638:	91 d0 20 00 	ta  0
    163c:	01 00 00 00 	nop 

00001640 <HW_trap_0x64>:
    1640:	82 10 20 64 	mov  0x64, %g1	! 64 <main+0x64>
    1644:	81 e8 00 00 	restore 
    1648:	91 d0 20 00 	ta  0
    164c:	01 00 00 00 	nop 

00001650 <HW_trap_0x65>:
    1650:	82 10 20 65 	mov  0x65, %g1	! 65 <main+0x65>
    1654:	81 e8 00 00 	restore 
    1658:	91 d0 20 00 	ta  0
    165c:	01 00 00 00 	nop 

00001660 <HW_trap_0x66>:
    1660:	82 10 20 66 	mov  0x66, %g1	! 66 <main+0x66>
    1664:	81 e8 00 00 	restore 
    1668:	91 d0 20 00 	ta  0
    166c:	01 00 00 00 	nop 

00001670 <HW_trap_0x67>:
    1670:	82 10 20 67 	mov  0x67, %g1	! 67 <main+0x67>
    1674:	81 e8 00 00 	restore 
    1678:	91 d0 20 00 	ta  0
    167c:	01 00 00 00 	nop 

00001680 <HW_trap_0x68>:
    1680:	82 10 20 68 	mov  0x68, %g1	! 68 <main+0x68>
    1684:	81 e8 00 00 	restore 
    1688:	91 d0 20 00 	ta  0
    168c:	01 00 00 00 	nop 

00001690 <HW_trap_0x69>:
    1690:	82 10 20 69 	mov  0x69, %g1	! 69 <main+0x69>
    1694:	81 e8 00 00 	restore 
    1698:	91 d0 20 00 	ta  0
    169c:	01 00 00 00 	nop 

000016a0 <HW_trap_0x6a>:
    16a0:	82 10 20 6a 	mov  0x6a, %g1	! 6a <main+0x6a>
    16a4:	81 e8 00 00 	restore 
    16a8:	91 d0 20 00 	ta  0
    16ac:	01 00 00 00 	nop 

000016b0 <HW_trap_0x6b>:
    16b0:	82 10 20 6b 	mov  0x6b, %g1	! 6b <main+0x6b>
    16b4:	81 e8 00 00 	restore 
    16b8:	91 d0 20 00 	ta  0
    16bc:	01 00 00 00 	nop 

000016c0 <HW_trap_0x6c>:
    16c0:	82 10 20 6c 	mov  0x6c, %g1	! 6c <main+0x6c>
    16c4:	81 e8 00 00 	restore 
    16c8:	91 d0 20 00 	ta  0
    16cc:	01 00 00 00 	nop 

000016d0 <HW_trap_0x6d>:
    16d0:	82 10 20 6d 	mov  0x6d, %g1	! 6d <main+0x6d>
    16d4:	81 e8 00 00 	restore 
    16d8:	91 d0 20 00 	ta  0
    16dc:	01 00 00 00 	nop 

000016e0 <HW_trap_0x6e>:
    16e0:	82 10 20 6e 	mov  0x6e, %g1	! 6e <main+0x6e>
    16e4:	81 e8 00 00 	restore 
    16e8:	91 d0 20 00 	ta  0
    16ec:	01 00 00 00 	nop 

000016f0 <HW_trap_0x6f>:
    16f0:	82 10 20 6f 	mov  0x6f, %g1	! 6f <main+0x6f>
    16f4:	81 e8 00 00 	restore 
    16f8:	91 d0 20 00 	ta  0
    16fc:	01 00 00 00 	nop 

00001700 <HW_trap_0x70>:
    1700:	82 10 20 70 	mov  0x70, %g1	! 70 <main+0x70>
    1704:	81 e8 00 00 	restore 
    1708:	91 d0 20 00 	ta  0
    170c:	01 00 00 00 	nop 

00001710 <HW_trap_0x71>:
    1710:	82 10 20 71 	mov  0x71, %g1	! 71 <main+0x71>
    1714:	81 e8 00 00 	restore 
    1718:	91 d0 20 00 	ta  0
    171c:	01 00 00 00 	nop 

00001720 <HW_trap_0x72>:
    1720:	82 10 20 72 	mov  0x72, %g1	! 72 <main+0x72>
    1724:	81 e8 00 00 	restore 
    1728:	91 d0 20 00 	ta  0
    172c:	01 00 00 00 	nop 

00001730 <HW_trap_0x73>:
    1730:	82 10 20 73 	mov  0x73, %g1	! 73 <main+0x73>
    1734:	81 e8 00 00 	restore 
    1738:	91 d0 20 00 	ta  0
    173c:	01 00 00 00 	nop 

00001740 <HW_trap_0x74>:
    1740:	82 10 20 74 	mov  0x74, %g1	! 74 <main+0x74>
    1744:	81 e8 00 00 	restore 
    1748:	91 d0 20 00 	ta  0
    174c:	01 00 00 00 	nop 

00001750 <HW_trap_0x75>:
    1750:	82 10 20 75 	mov  0x75, %g1	! 75 <main+0x75>
    1754:	81 e8 00 00 	restore 
    1758:	91 d0 20 00 	ta  0
    175c:	01 00 00 00 	nop 

00001760 <HW_trap_0x76>:
    1760:	82 10 20 76 	mov  0x76, %g1	! 76 <main+0x76>
    1764:	81 e8 00 00 	restore 
    1768:	91 d0 20 00 	ta  0
    176c:	01 00 00 00 	nop 

00001770 <HW_trap_0x77>:
    1770:	82 10 20 77 	mov  0x77, %g1	! 77 <main+0x77>
    1774:	81 e8 00 00 	restore 
    1778:	91 d0 20 00 	ta  0
    177c:	01 00 00 00 	nop 

00001780 <HW_trap_0x78>:
    1780:	82 10 20 78 	mov  0x78, %g1	! 78 <main+0x78>
    1784:	81 e8 00 00 	restore 
    1788:	91 d0 20 00 	ta  0
    178c:	01 00 00 00 	nop 

00001790 <HW_trap_0x79>:
    1790:	82 10 20 79 	mov  0x79, %g1	! 79 <main+0x79>
    1794:	81 e8 00 00 	restore 
    1798:	91 d0 20 00 	ta  0
    179c:	01 00 00 00 	nop 

000017a0 <HW_trap_0x7a>:
    17a0:	82 10 20 7a 	mov  0x7a, %g1	! 7a <main+0x7a>
    17a4:	81 e8 00 00 	restore 
    17a8:	91 d0 20 00 	ta  0
    17ac:	01 00 00 00 	nop 

000017b0 <HW_trap_0x7b>:
    17b0:	82 10 20 7b 	mov  0x7b, %g1	! 7b <main+0x7b>
    17b4:	81 e8 00 00 	restore 
    17b8:	91 d0 20 00 	ta  0
    17bc:	01 00 00 00 	nop 

000017c0 <HW_trap_0x7c>:
    17c0:	82 10 20 7c 	mov  0x7c, %g1	! 7c <main+0x7c>
    17c4:	81 e8 00 00 	restore 
    17c8:	91 d0 20 00 	ta  0
    17cc:	01 00 00 00 	nop 

000017d0 <HW_trap_0x7d>:
    17d0:	82 10 20 7d 	mov  0x7d, %g1	! 7d <main+0x7d>
    17d4:	81 e8 00 00 	restore 
    17d8:	91 d0 20 00 	ta  0
    17dc:	01 00 00 00 	nop 

000017e0 <HW_trap_0x7e>:
    17e0:	82 10 20 7e 	mov  0x7e, %g1	! 7e <main+0x7e>
    17e4:	81 e8 00 00 	restore 
    17e8:	91 d0 20 00 	ta  0
    17ec:	01 00 00 00 	nop 

000017f0 <HW_trap_0x7f>:
    17f0:	82 10 20 7f 	mov  0x7f, %g1	! 7f <main+0x7f>
    17f4:	81 e8 00 00 	restore 
    17f8:	91 d0 20 00 	ta  0
    17fc:	01 00 00 00 	nop 

00001800 <SW_trap_0x80>:
    1800:	82 10 20 80 	mov  0x80, %g1	! 80 <main+0x80>
    1804:	81 e8 00 00 	restore 
    1808:	91 d0 20 00 	ta  0
    180c:	01 00 00 00 	nop 

00001810 <SW_trap_0x81>:
    1810:	82 10 20 81 	mov  0x81, %g1	! 81 <main+0x81>
    1814:	81 e8 00 00 	restore 
    1818:	91 d0 20 00 	ta  0
    181c:	01 00 00 00 	nop 

00001820 <SW_trap_0x82>:
    1820:	82 10 20 82 	mov  0x82, %g1	! 82 <main+0x82>
    1824:	81 e8 00 00 	restore 
    1828:	91 d0 20 00 	ta  0
    182c:	01 00 00 00 	nop 

00001830 <SW_trap_0x83>:
    1830:	82 10 20 83 	mov  0x83, %g1	! 83 <main+0x83>
    1834:	81 e8 00 00 	restore 
    1838:	91 d0 20 00 	ta  0
    183c:	01 00 00 00 	nop 

00001840 <SW_trap_0x84>:
    1840:	82 10 20 84 	mov  0x84, %g1	! 84 <main+0x84>
    1844:	81 e8 00 00 	restore 
    1848:	91 d0 20 00 	ta  0
    184c:	01 00 00 00 	nop 

00001850 <SW_trap_0x85>:
    1850:	82 10 20 85 	mov  0x85, %g1	! 85 <main+0x85>
    1854:	81 e8 00 00 	restore 
    1858:	91 d0 20 00 	ta  0
    185c:	01 00 00 00 	nop 

00001860 <SW_trap_0x86>:
    1860:	82 10 20 86 	mov  0x86, %g1	! 86 <main+0x86>
    1864:	81 e8 00 00 	restore 
    1868:	91 d0 20 00 	ta  0
    186c:	01 00 00 00 	nop 

00001870 <SW_trap_0x87>:
    1870:	82 10 20 87 	mov  0x87, %g1	! 87 <main+0x87>
    1874:	81 e8 00 00 	restore 
    1878:	91 d0 20 00 	ta  0
    187c:	01 00 00 00 	nop 

00001880 <SW_trap_0x88>:
    1880:	82 10 20 88 	mov  0x88, %g1	! 88 <main+0x88>
    1884:	81 e8 00 00 	restore 
    1888:	91 d0 20 00 	ta  0
    188c:	01 00 00 00 	nop 

00001890 <SW_trap_0x89>:
    1890:	82 10 20 89 	mov  0x89, %g1	! 89 <main+0x89>
    1894:	81 e8 00 00 	restore 
    1898:	91 d0 20 00 	ta  0
    189c:	01 00 00 00 	nop 

000018a0 <SW_trap_0x8a>:
    18a0:	82 10 20 8a 	mov  0x8a, %g1	! 8a <main+0x8a>
    18a4:	81 e8 00 00 	restore 
    18a8:	91 d0 20 00 	ta  0
    18ac:	01 00 00 00 	nop 

000018b0 <SW_trap_0x8b>:
    18b0:	82 10 20 8b 	mov  0x8b, %g1	! 8b <main+0x8b>
    18b4:	81 e8 00 00 	restore 
    18b8:	91 d0 20 00 	ta  0
    18bc:	01 00 00 00 	nop 

000018c0 <SW_trap_0x8c>:
    18c0:	82 10 20 8c 	mov  0x8c, %g1	! 8c <main+0x8c>
    18c4:	81 e8 00 00 	restore 
    18c8:	91 d0 20 00 	ta  0
    18cc:	01 00 00 00 	nop 

000018d0 <SW_trap_0x8d>:
    18d0:	82 10 20 8d 	mov  0x8d, %g1	! 8d <main+0x8d>
    18d4:	81 e8 00 00 	restore 
    18d8:	91 d0 20 00 	ta  0
    18dc:	01 00 00 00 	nop 

000018e0 <SW_trap_0x8e>:
    18e0:	82 10 20 8e 	mov  0x8e, %g1	! 8e <main+0x8e>
    18e4:	81 e8 00 00 	restore 
    18e8:	91 d0 20 00 	ta  0
    18ec:	01 00 00 00 	nop 

000018f0 <SW_trap_0x8f>:
    18f0:	82 10 20 8f 	mov  0x8f, %g1	! 8f <main+0x8f>
    18f4:	81 e8 00 00 	restore 
    18f8:	91 d0 20 00 	ta  0
    18fc:	01 00 00 00 	nop 

00001900 <SW_trap_0x90>:
    1900:	82 10 20 90 	mov  0x90, %g1	! 90 <main+0x90>
    1904:	81 e8 00 00 	restore 
    1908:	91 d0 20 00 	ta  0
    190c:	01 00 00 00 	nop 

00001910 <SW_trap_0x91>:
    1910:	82 10 20 91 	mov  0x91, %g1	! 91 <main+0x91>
    1914:	81 e8 00 00 	restore 
    1918:	91 d0 20 00 	ta  0
    191c:	01 00 00 00 	nop 

00001920 <SW_trap_0x92>:
    1920:	82 10 20 92 	mov  0x92, %g1	! 92 <main+0x92>
    1924:	81 e8 00 00 	restore 
    1928:	91 d0 20 00 	ta  0
    192c:	01 00 00 00 	nop 

00001930 <SW_trap_0x93>:
    1930:	82 10 20 93 	mov  0x93, %g1	! 93 <main+0x93>
    1934:	81 e8 00 00 	restore 
    1938:	91 d0 20 00 	ta  0
    193c:	01 00 00 00 	nop 

00001940 <SW_trap_0x94>:
    1940:	82 10 20 94 	mov  0x94, %g1	! 94 <main+0x94>
    1944:	81 e8 00 00 	restore 
    1948:	91 d0 20 00 	ta  0
    194c:	01 00 00 00 	nop 

00001950 <SW_trap_0x95>:
    1950:	82 10 20 95 	mov  0x95, %g1	! 95 <main+0x95>
    1954:	81 e8 00 00 	restore 
    1958:	91 d0 20 00 	ta  0
    195c:	01 00 00 00 	nop 

00001960 <SW_trap_0x96>:
    1960:	82 10 20 96 	mov  0x96, %g1	! 96 <main+0x96>
    1964:	81 e8 00 00 	restore 
    1968:	91 d0 20 00 	ta  0
    196c:	01 00 00 00 	nop 

00001970 <SW_trap_0x97>:
    1970:	82 10 20 97 	mov  0x97, %g1	! 97 <main+0x97>
    1974:	81 e8 00 00 	restore 
    1978:	91 d0 20 00 	ta  0
    197c:	01 00 00 00 	nop 

00001980 <SW_trap_0x98>:
    1980:	82 10 20 98 	mov  0x98, %g1	! 98 <main+0x98>
    1984:	81 e8 00 00 	restore 
    1988:	91 d0 20 00 	ta  0
    198c:	01 00 00 00 	nop 

00001990 <SW_trap_0x99>:
    1990:	82 10 20 99 	mov  0x99, %g1	! 99 <main+0x99>
    1994:	81 e8 00 00 	restore 
    1998:	91 d0 20 00 	ta  0
    199c:	01 00 00 00 	nop 

000019a0 <SW_trap_0x9a>:
    19a0:	82 10 20 9a 	mov  0x9a, %g1	! 9a <main+0x9a>
    19a4:	81 e8 00 00 	restore 
    19a8:	91 d0 20 00 	ta  0
    19ac:	01 00 00 00 	nop 

000019b0 <SW_trap_0x9b>:
    19b0:	82 10 20 9b 	mov  0x9b, %g1	! 9b <main+0x9b>
    19b4:	81 e8 00 00 	restore 
    19b8:	91 d0 20 00 	ta  0
    19bc:	01 00 00 00 	nop 

000019c0 <SW_trap_0x9c>:
    19c0:	82 10 20 9c 	mov  0x9c, %g1	! 9c <main+0x9c>
    19c4:	81 e8 00 00 	restore 
    19c8:	91 d0 20 00 	ta  0
    19cc:	01 00 00 00 	nop 

000019d0 <SW_trap_0x9d>:
    19d0:	82 10 20 9d 	mov  0x9d, %g1	! 9d <main+0x9d>
    19d4:	81 e8 00 00 	restore 
    19d8:	91 d0 20 00 	ta  0
    19dc:	01 00 00 00 	nop 

000019e0 <SW_trap_0x9e>:
    19e0:	82 10 20 9e 	mov  0x9e, %g1	! 9e <main+0x9e>
    19e4:	81 e8 00 00 	restore 
    19e8:	91 d0 20 00 	ta  0
    19ec:	01 00 00 00 	nop 

000019f0 <SW_trap_0x9f>:
    19f0:	82 10 20 9f 	mov  0x9f, %g1	! 9f <main+0x9f>
    19f4:	81 e8 00 00 	restore 
    19f8:	91 d0 20 00 	ta  0
    19fc:	01 00 00 00 	nop 

00001a00 <SW_trap_0xa0>:
    1a00:	82 10 20 a0 	mov  0xa0, %g1	! a0 <main+0xa0>
    1a04:	81 e8 00 00 	restore 
    1a08:	91 d0 20 00 	ta  0
    1a0c:	01 00 00 00 	nop 

00001a10 <SW_trap_0xa1>:
    1a10:	82 10 20 a1 	mov  0xa1, %g1	! a1 <main+0xa1>
    1a14:	81 e8 00 00 	restore 
    1a18:	91 d0 20 00 	ta  0
    1a1c:	01 00 00 00 	nop 

00001a20 <SW_trap_0xa2>:
    1a20:	82 10 20 a2 	mov  0xa2, %g1	! a2 <main+0xa2>
    1a24:	81 e8 00 00 	restore 
    1a28:	91 d0 20 00 	ta  0
    1a2c:	01 00 00 00 	nop 

00001a30 <SW_trap_0xa3>:
    1a30:	82 10 20 a3 	mov  0xa3, %g1	! a3 <main+0xa3>
    1a34:	81 e8 00 00 	restore 
    1a38:	91 d0 20 00 	ta  0
    1a3c:	01 00 00 00 	nop 

00001a40 <SW_trap_0xa4>:
    1a40:	82 10 20 a4 	mov  0xa4, %g1	! a4 <main+0xa4>
    1a44:	81 e8 00 00 	restore 
    1a48:	91 d0 20 00 	ta  0
    1a4c:	01 00 00 00 	nop 

00001a50 <SW_trap_0xa5>:
    1a50:	82 10 20 a5 	mov  0xa5, %g1	! a5 <main+0xa5>
    1a54:	81 e8 00 00 	restore 
    1a58:	91 d0 20 00 	ta  0
    1a5c:	01 00 00 00 	nop 

00001a60 <SW_trap_0xa6>:
    1a60:	82 10 20 a6 	mov  0xa6, %g1	! a6 <main+0xa6>
    1a64:	81 e8 00 00 	restore 
    1a68:	91 d0 20 00 	ta  0
    1a6c:	01 00 00 00 	nop 

00001a70 <SW_trap_0xa7>:
    1a70:	82 10 20 a7 	mov  0xa7, %g1	! a7 <main+0xa7>
    1a74:	81 e8 00 00 	restore 
    1a78:	91 d0 20 00 	ta  0
    1a7c:	01 00 00 00 	nop 

00001a80 <SW_trap_0xa8>:
    1a80:	82 10 20 a8 	mov  0xa8, %g1	! a8 <not_reached>
    1a84:	81 e8 00 00 	restore 
    1a88:	91 d0 20 00 	ta  0
    1a8c:	01 00 00 00 	nop 

00001a90 <SW_trap_0xa9>:
    1a90:	82 10 20 a9 	mov  0xa9, %g1	! a9 <not_reached+0x1>
    1a94:	81 e8 00 00 	restore 
    1a98:	91 d0 20 00 	ta  0
    1a9c:	01 00 00 00 	nop 

00001aa0 <SW_trap_0xaa>:
    1aa0:	82 10 20 aa 	mov  0xaa, %g1	! aa <not_reached+0x2>
    1aa4:	81 e8 00 00 	restore 
    1aa8:	91 d0 20 00 	ta  0
    1aac:	01 00 00 00 	nop 

00001ab0 <SW_trap_0xab>:
    1ab0:	82 10 20 ab 	mov  0xab, %g1	! ab <not_reached+0x3>
    1ab4:	81 e8 00 00 	restore 
    1ab8:	91 d0 20 00 	ta  0
    1abc:	01 00 00 00 	nop 

00001ac0 <SW_trap_0xac>:
    1ac0:	82 10 20 ac 	mov  0xac, %g1	! ac <not_reached+0x4>
    1ac4:	81 e8 00 00 	restore 
    1ac8:	91 d0 20 00 	ta  0
    1acc:	01 00 00 00 	nop 

00001ad0 <SW_trap_0xad>:
    1ad0:	82 10 20 ad 	mov  0xad, %g1	! ad <not_reached+0x5>
    1ad4:	81 e8 00 00 	restore 
    1ad8:	91 d0 20 00 	ta  0
    1adc:	01 00 00 00 	nop 

00001ae0 <SW_trap_0xae>:
    1ae0:	82 10 20 ae 	mov  0xae, %g1	! ae <not_reached+0x6>
    1ae4:	81 e8 00 00 	restore 
    1ae8:	91 d0 20 00 	ta  0
    1aec:	01 00 00 00 	nop 

00001af0 <SW_trap_0xaf>:
    1af0:	82 10 20 af 	mov  0xaf, %g1	! af <not_reached+0x7>
    1af4:	81 e8 00 00 	restore 
    1af8:	91 d0 20 00 	ta  0
    1afc:	01 00 00 00 	nop 

00001b00 <SW_trap_0xb0>:
    1b00:	82 10 20 b0 	mov  0xb0, %g1	! b0 <not_reached+0x8>
    1b04:	81 e8 00 00 	restore 
    1b08:	91 d0 20 00 	ta  0
    1b0c:	01 00 00 00 	nop 

00001b10 <SW_trap_0xb1>:
    1b10:	82 10 20 b1 	mov  0xb1, %g1	! b1 <not_reached+0x9>
    1b14:	81 e8 00 00 	restore 
    1b18:	91 d0 20 00 	ta  0
    1b1c:	01 00 00 00 	nop 

00001b20 <SW_trap_0xb2>:
    1b20:	82 10 20 b2 	mov  0xb2, %g1	! b2 <not_reached+0xa>
    1b24:	81 e8 00 00 	restore 
    1b28:	91 d0 20 00 	ta  0
    1b2c:	01 00 00 00 	nop 

00001b30 <SW_trap_0xb3>:
    1b30:	82 10 20 b3 	mov  0xb3, %g1	! b3 <not_reached+0xb>
    1b34:	81 e8 00 00 	restore 
    1b38:	91 d0 20 00 	ta  0
    1b3c:	01 00 00 00 	nop 

00001b40 <SW_trap_0xb4>:
    1b40:	82 10 20 b4 	mov  0xb4, %g1	! b4 <not_reached+0xc>
    1b44:	81 e8 00 00 	restore 
    1b48:	91 d0 20 00 	ta  0
    1b4c:	01 00 00 00 	nop 

00001b50 <SW_trap_0xb5>:
    1b50:	82 10 20 b5 	mov  0xb5, %g1	! b5 <not_reached+0xd>
    1b54:	81 e8 00 00 	restore 
    1b58:	91 d0 20 00 	ta  0
    1b5c:	01 00 00 00 	nop 

00001b60 <SW_trap_0xb6>:
    1b60:	82 10 20 b6 	mov  0xb6, %g1	! b6 <not_reached+0xe>
    1b64:	81 e8 00 00 	restore 
    1b68:	91 d0 20 00 	ta  0
    1b6c:	01 00 00 00 	nop 

00001b70 <SW_trap_0xb7>:
    1b70:	82 10 20 b7 	mov  0xb7, %g1	! b7 <not_reached+0xf>
    1b74:	81 e8 00 00 	restore 
    1b78:	91 d0 20 00 	ta  0
    1b7c:	01 00 00 00 	nop 

00001b80 <SW_trap_0xb8>:
    1b80:	82 10 20 b8 	mov  0xb8, %g1	! b8 <not_reached+0x10>
    1b84:	81 e8 00 00 	restore 
    1b88:	91 d0 20 00 	ta  0
    1b8c:	01 00 00 00 	nop 

00001b90 <SW_trap_0xb9>:
    1b90:	82 10 20 b9 	mov  0xb9, %g1	! b9 <not_reached+0x11>
    1b94:	81 e8 00 00 	restore 
    1b98:	91 d0 20 00 	ta  0
    1b9c:	01 00 00 00 	nop 

00001ba0 <SW_trap_0xba>:
    1ba0:	82 10 20 ba 	mov  0xba, %g1	! ba <not_reached+0x12>
    1ba4:	81 e8 00 00 	restore 
    1ba8:	91 d0 20 00 	ta  0
    1bac:	01 00 00 00 	nop 

00001bb0 <SW_trap_0xbb>:
    1bb0:	82 10 20 bb 	mov  0xbb, %g1	! bb <not_reached+0x13>
    1bb4:	81 e8 00 00 	restore 
    1bb8:	91 d0 20 00 	ta  0
    1bbc:	01 00 00 00 	nop 

00001bc0 <SW_trap_0xbc>:
    1bc0:	82 10 20 bc 	mov  0xbc, %g1	! bc <not_reached+0x14>
    1bc4:	81 e8 00 00 	restore 
    1bc8:	91 d0 20 00 	ta  0
    1bcc:	01 00 00 00 	nop 

00001bd0 <SW_trap_0xbd>:
    1bd0:	82 10 20 bd 	mov  0xbd, %g1	! bd <not_reached+0x15>
    1bd4:	81 e8 00 00 	restore 
    1bd8:	91 d0 20 00 	ta  0
    1bdc:	01 00 00 00 	nop 

00001be0 <SW_trap_0xbe>:
    1be0:	82 10 20 be 	mov  0xbe, %g1	! be <not_reached+0x16>
    1be4:	81 e8 00 00 	restore 
    1be8:	91 d0 20 00 	ta  0
    1bec:	01 00 00 00 	nop 

00001bf0 <SW_trap_0xbf>:
    1bf0:	82 10 20 bf 	mov  0xbf, %g1	! bf <not_reached+0x17>
    1bf4:	81 e8 00 00 	restore 
    1bf8:	91 d0 20 00 	ta  0
    1bfc:	01 00 00 00 	nop 

00001c00 <SW_trap_0xc0>:
    1c00:	82 10 20 c0 	mov  0xc0, %g1	! c0 <not_reached+0x18>
    1c04:	81 e8 00 00 	restore 
    1c08:	91 d0 20 00 	ta  0
    1c0c:	01 00 00 00 	nop 

00001c10 <SW_trap_0xc1>:
    1c10:	82 10 20 c1 	mov  0xc1, %g1	! c1 <not_reached+0x19>
    1c14:	81 e8 00 00 	restore 
    1c18:	91 d0 20 00 	ta  0
    1c1c:	01 00 00 00 	nop 

00001c20 <SW_trap_0xc2>:
    1c20:	82 10 20 c2 	mov  0xc2, %g1	! c2 <not_reached+0x1a>
    1c24:	81 e8 00 00 	restore 
    1c28:	91 d0 20 00 	ta  0
    1c2c:	01 00 00 00 	nop 

00001c30 <SW_trap_0xc3>:
    1c30:	82 10 20 c3 	mov  0xc3, %g1	! c3 <not_reached+0x1b>
    1c34:	81 e8 00 00 	restore 
    1c38:	91 d0 20 00 	ta  0
    1c3c:	01 00 00 00 	nop 

00001c40 <SW_trap_0xc4>:
    1c40:	82 10 20 c4 	mov  0xc4, %g1	! c4 <not_reached+0x1c>
    1c44:	81 e8 00 00 	restore 
    1c48:	91 d0 20 00 	ta  0
    1c4c:	01 00 00 00 	nop 

00001c50 <SW_trap_0xc5>:
    1c50:	82 10 20 c5 	mov  0xc5, %g1	! c5 <not_reached+0x1d>
    1c54:	81 e8 00 00 	restore 
    1c58:	91 d0 20 00 	ta  0
    1c5c:	01 00 00 00 	nop 

00001c60 <SW_trap_0xc6>:
    1c60:	82 10 20 c6 	mov  0xc6, %g1	! c6 <not_reached+0x1e>
    1c64:	81 e8 00 00 	restore 
    1c68:	91 d0 20 00 	ta  0
    1c6c:	01 00 00 00 	nop 

00001c70 <SW_trap_0xc7>:
    1c70:	82 10 20 c7 	mov  0xc7, %g1	! c7 <not_reached+0x1f>
    1c74:	81 e8 00 00 	restore 
    1c78:	91 d0 20 00 	ta  0
    1c7c:	01 00 00 00 	nop 

00001c80 <SW_trap_0xc8>:
    1c80:	82 10 20 c8 	mov  0xc8, %g1	! c8 <not_reached+0x20>
    1c84:	81 e8 00 00 	restore 
    1c88:	91 d0 20 00 	ta  0
    1c8c:	01 00 00 00 	nop 

00001c90 <SW_trap_0xc9>:
    1c90:	82 10 20 c9 	mov  0xc9, %g1	! c9 <not_reached+0x21>
    1c94:	81 e8 00 00 	restore 
    1c98:	91 d0 20 00 	ta  0
    1c9c:	01 00 00 00 	nop 

00001ca0 <SW_trap_0xca>:
    1ca0:	82 10 20 ca 	mov  0xca, %g1	! ca <not_reached+0x22>
    1ca4:	81 e8 00 00 	restore 
    1ca8:	91 d0 20 00 	ta  0
    1cac:	01 00 00 00 	nop 

00001cb0 <SW_trap_0xcb>:
    1cb0:	82 10 20 cb 	mov  0xcb, %g1	! cb <not_reached+0x23>
    1cb4:	81 e8 00 00 	restore 
    1cb8:	91 d0 20 00 	ta  0
    1cbc:	01 00 00 00 	nop 

00001cc0 <SW_trap_0xcc>:
    1cc0:	82 10 20 cc 	mov  0xcc, %g1	! cc <not_reached+0x24>
    1cc4:	81 e8 00 00 	restore 
    1cc8:	91 d0 20 00 	ta  0
    1ccc:	01 00 00 00 	nop 

00001cd0 <SW_trap_0xcd>:
    1cd0:	82 10 20 cd 	mov  0xcd, %g1	! cd <not_reached+0x25>
    1cd4:	81 e8 00 00 	restore 
    1cd8:	91 d0 20 00 	ta  0
    1cdc:	01 00 00 00 	nop 

00001ce0 <SW_trap_0xce>:
    1ce0:	82 10 20 ce 	mov  0xce, %g1	! ce <not_reached+0x26>
    1ce4:	81 e8 00 00 	restore 
    1ce8:	91 d0 20 00 	ta  0
    1cec:	01 00 00 00 	nop 

00001cf0 <SW_trap_0xcf>:
    1cf0:	82 10 20 cf 	mov  0xcf, %g1	! cf <not_reached+0x27>
    1cf4:	81 e8 00 00 	restore 
    1cf8:	91 d0 20 00 	ta  0
    1cfc:	01 00 00 00 	nop 

00001d00 <SW_trap_0xd0>:
    1d00:	82 10 20 d0 	mov  0xd0, %g1	! d0 <not_reached+0x28>
    1d04:	81 e8 00 00 	restore 
    1d08:	91 d0 20 00 	ta  0
    1d0c:	01 00 00 00 	nop 

00001d10 <SW_trap_0xd1>:
    1d10:	82 10 20 d1 	mov  0xd1, %g1	! d1 <not_reached+0x29>
    1d14:	81 e8 00 00 	restore 
    1d18:	91 d0 20 00 	ta  0
    1d1c:	01 00 00 00 	nop 

00001d20 <SW_trap_0xd2>:
    1d20:	82 10 20 d2 	mov  0xd2, %g1	! d2 <not_reached+0x2a>
    1d24:	81 e8 00 00 	restore 
    1d28:	91 d0 20 00 	ta  0
    1d2c:	01 00 00 00 	nop 

00001d30 <SW_trap_0xd3>:
    1d30:	82 10 20 d3 	mov  0xd3, %g1	! d3 <not_reached+0x2b>
    1d34:	81 e8 00 00 	restore 
    1d38:	91 d0 20 00 	ta  0
    1d3c:	01 00 00 00 	nop 

00001d40 <SW_trap_0xd4>:
    1d40:	82 10 20 d4 	mov  0xd4, %g1	! d4 <not_reached+0x2c>
    1d44:	81 e8 00 00 	restore 
    1d48:	91 d0 20 00 	ta  0
    1d4c:	01 00 00 00 	nop 

00001d50 <SW_trap_0xd5>:
    1d50:	82 10 20 d5 	mov  0xd5, %g1	! d5 <not_reached+0x2d>
    1d54:	81 e8 00 00 	restore 
    1d58:	91 d0 20 00 	ta  0
    1d5c:	01 00 00 00 	nop 

00001d60 <SW_trap_0xd6>:
    1d60:	82 10 20 d6 	mov  0xd6, %g1	! d6 <not_reached+0x2e>
    1d64:	81 e8 00 00 	restore 
    1d68:	91 d0 20 00 	ta  0
    1d6c:	01 00 00 00 	nop 

00001d70 <SW_trap_0xd7>:
    1d70:	82 10 20 d7 	mov  0xd7, %g1	! d7 <not_reached+0x2f>
    1d74:	81 e8 00 00 	restore 
    1d78:	91 d0 20 00 	ta  0
    1d7c:	01 00 00 00 	nop 

00001d80 <SW_trap_0xd8>:
    1d80:	82 10 20 d8 	mov  0xd8, %g1	! d8 <not_reached+0x30>
    1d84:	81 e8 00 00 	restore 
    1d88:	91 d0 20 00 	ta  0
    1d8c:	01 00 00 00 	nop 

00001d90 <SW_trap_0xd9>:
    1d90:	82 10 20 d9 	mov  0xd9, %g1	! d9 <not_reached+0x31>
    1d94:	81 e8 00 00 	restore 
    1d98:	91 d0 20 00 	ta  0
    1d9c:	01 00 00 00 	nop 

00001da0 <SW_trap_0xda>:
    1da0:	82 10 20 da 	mov  0xda, %g1	! da <not_reached+0x32>
    1da4:	81 e8 00 00 	restore 
    1da8:	91 d0 20 00 	ta  0
    1dac:	01 00 00 00 	nop 

00001db0 <SW_trap_0xdb>:
    1db0:	82 10 20 db 	mov  0xdb, %g1	! db <not_reached+0x33>
    1db4:	81 e8 00 00 	restore 
    1db8:	91 d0 20 00 	ta  0
    1dbc:	01 00 00 00 	nop 

00001dc0 <SW_trap_0xdc>:
    1dc0:	82 10 20 dc 	mov  0xdc, %g1	! dc <not_reached+0x34>
    1dc4:	81 e8 00 00 	restore 
    1dc8:	91 d0 20 00 	ta  0
    1dcc:	01 00 00 00 	nop 

00001dd0 <SW_trap_0xdd>:
    1dd0:	82 10 20 dd 	mov  0xdd, %g1	! dd <not_reached+0x35>
    1dd4:	81 e8 00 00 	restore 
    1dd8:	91 d0 20 00 	ta  0
    1ddc:	01 00 00 00 	nop 

00001de0 <SW_trap_0xde>:
    1de0:	82 10 20 de 	mov  0xde, %g1	! de <not_reached+0x36>
    1de4:	81 e8 00 00 	restore 
    1de8:	91 d0 20 00 	ta  0
    1dec:	01 00 00 00 	nop 

00001df0 <SW_trap_0xdf>:
    1df0:	82 10 20 df 	mov  0xdf, %g1	! df <not_reached+0x37>
    1df4:	81 e8 00 00 	restore 
    1df8:	91 d0 20 00 	ta  0
    1dfc:	01 00 00 00 	nop 

00001e00 <SW_trap_0xe0>:
    1e00:	82 10 20 e0 	mov  0xe0, %g1	! e0 <not_reached+0x38>
    1e04:	81 e8 00 00 	restore 
    1e08:	91 d0 20 00 	ta  0
    1e0c:	01 00 00 00 	nop 

00001e10 <SW_trap_0xe1>:
    1e10:	82 10 20 e1 	mov  0xe1, %g1	! e1 <not_reached+0x39>
    1e14:	81 e8 00 00 	restore 
    1e18:	91 d0 20 00 	ta  0
    1e1c:	01 00 00 00 	nop 

00001e20 <SW_trap_0xe2>:
    1e20:	82 10 20 e2 	mov  0xe2, %g1	! e2 <not_reached+0x3a>
    1e24:	81 e8 00 00 	restore 
    1e28:	91 d0 20 00 	ta  0
    1e2c:	01 00 00 00 	nop 

00001e30 <SW_trap_0xe3>:
    1e30:	82 10 20 e3 	mov  0xe3, %g1	! e3 <not_reached+0x3b>
    1e34:	81 e8 00 00 	restore 
    1e38:	91 d0 20 00 	ta  0
    1e3c:	01 00 00 00 	nop 

00001e40 <SW_trap_0xe4>:
    1e40:	82 10 20 e4 	mov  0xe4, %g1	! e4 <not_reached+0x3c>
    1e44:	81 e8 00 00 	restore 
    1e48:	91 d0 20 00 	ta  0
    1e4c:	01 00 00 00 	nop 

00001e50 <SW_trap_0xe5>:
    1e50:	82 10 20 e5 	mov  0xe5, %g1	! e5 <not_reached+0x3d>
    1e54:	81 e8 00 00 	restore 
    1e58:	91 d0 20 00 	ta  0
    1e5c:	01 00 00 00 	nop 

00001e60 <SW_trap_0xe6>:
    1e60:	82 10 20 e6 	mov  0xe6, %g1	! e6 <not_reached+0x3e>
    1e64:	81 e8 00 00 	restore 
    1e68:	91 d0 20 00 	ta  0
    1e6c:	01 00 00 00 	nop 

00001e70 <SW_trap_0xe7>:
    1e70:	82 10 20 e7 	mov  0xe7, %g1	! e7 <not_reached+0x3f>
    1e74:	81 e8 00 00 	restore 
    1e78:	91 d0 20 00 	ta  0
    1e7c:	01 00 00 00 	nop 

00001e80 <SW_trap_0xe8>:
    1e80:	82 10 20 e8 	mov  0xe8, %g1	! e8 <not_reached+0x40>
    1e84:	81 e8 00 00 	restore 
    1e88:	91 d0 20 00 	ta  0
    1e8c:	01 00 00 00 	nop 

00001e90 <SW_trap_0xe9>:
    1e90:	82 10 20 e9 	mov  0xe9, %g1	! e9 <not_reached+0x41>
    1e94:	81 e8 00 00 	restore 
    1e98:	91 d0 20 00 	ta  0
    1e9c:	01 00 00 00 	nop 

00001ea0 <SW_trap_0xea>:
    1ea0:	82 10 20 ea 	mov  0xea, %g1	! ea <not_reached+0x42>
    1ea4:	81 e8 00 00 	restore 
    1ea8:	91 d0 20 00 	ta  0
    1eac:	01 00 00 00 	nop 

00001eb0 <SW_trap_0xeb>:
    1eb0:	82 10 20 eb 	mov  0xeb, %g1	! eb <not_reached+0x43>
    1eb4:	81 e8 00 00 	restore 
    1eb8:	91 d0 20 00 	ta  0
    1ebc:	01 00 00 00 	nop 

00001ec0 <SW_trap_0xec>:
    1ec0:	82 10 20 ec 	mov  0xec, %g1	! ec <not_reached+0x44>
    1ec4:	81 e8 00 00 	restore 
    1ec8:	91 d0 20 00 	ta  0
    1ecc:	01 00 00 00 	nop 

00001ed0 <SW_trap_0xed>:
    1ed0:	82 10 20 ed 	mov  0xed, %g1	! ed <not_reached+0x45>
    1ed4:	81 e8 00 00 	restore 
    1ed8:	91 d0 20 00 	ta  0
    1edc:	01 00 00 00 	nop 

00001ee0 <SW_trap_0xee>:
    1ee0:	82 10 20 ee 	mov  0xee, %g1	! ee <not_reached+0x46>
    1ee4:	81 e8 00 00 	restore 
    1ee8:	91 d0 20 00 	ta  0
    1eec:	01 00 00 00 	nop 

00001ef0 <SW_trap_0xef>:
    1ef0:	82 10 20 ef 	mov  0xef, %g1	! ef <not_reached+0x47>
    1ef4:	81 e8 00 00 	restore 
    1ef8:	91 d0 20 00 	ta  0
    1efc:	01 00 00 00 	nop 

00001f00 <SW_trap_0xf0>:
    1f00:	82 10 20 f0 	mov  0xf0, %g1	! f0 <not_reached+0x48>
    1f04:	81 e8 00 00 	restore 
    1f08:	91 d0 20 00 	ta  0
    1f0c:	01 00 00 00 	nop 

00001f10 <SW_trap_0xf1>:
    1f10:	82 10 20 f1 	mov  0xf1, %g1	! f1 <not_reached+0x49>
    1f14:	81 e8 00 00 	restore 
    1f18:	91 d0 20 00 	ta  0
    1f1c:	01 00 00 00 	nop 

00001f20 <SW_trap_0xf2>:
    1f20:	82 10 20 f2 	mov  0xf2, %g1	! f2 <not_reached+0x4a>
    1f24:	81 e8 00 00 	restore 
    1f28:	91 d0 20 00 	ta  0
    1f2c:	01 00 00 00 	nop 

00001f30 <SW_trap_0xf3>:
    1f30:	82 10 20 f3 	mov  0xf3, %g1	! f3 <not_reached+0x4b>
    1f34:	81 e8 00 00 	restore 
    1f38:	91 d0 20 00 	ta  0
    1f3c:	01 00 00 00 	nop 

00001f40 <SW_trap_0xf4>:
    1f40:	82 10 20 f4 	mov  0xf4, %g1	! f4 <not_reached+0x4c>
    1f44:	81 e8 00 00 	restore 
    1f48:	91 d0 20 00 	ta  0
    1f4c:	01 00 00 00 	nop 

00001f50 <SW_trap_0xf5>:
    1f50:	82 10 20 f5 	mov  0xf5, %g1	! f5 <not_reached+0x4d>
    1f54:	81 e8 00 00 	restore 
    1f58:	91 d0 20 00 	ta  0
    1f5c:	01 00 00 00 	nop 

00001f60 <SW_trap_0xf6>:
    1f60:	82 10 20 f6 	mov  0xf6, %g1	! f6 <not_reached+0x4e>
    1f64:	81 e8 00 00 	restore 
    1f68:	91 d0 20 00 	ta  0
    1f6c:	01 00 00 00 	nop 

00001f70 <SW_trap_0xf7>:
    1f70:	82 10 20 f7 	mov  0xf7, %g1	! f7 <not_reached+0x4f>
    1f74:	81 e8 00 00 	restore 
    1f78:	91 d0 20 00 	ta  0
    1f7c:	01 00 00 00 	nop 

00001f80 <SW_trap_0xf8>:
    1f80:	82 10 20 f8 	mov  0xf8, %g1	! f8 <not_reached+0x50>
    1f84:	81 e8 00 00 	restore 
    1f88:	91 d0 20 00 	ta  0
    1f8c:	01 00 00 00 	nop 

00001f90 <SW_trap_0xf9>:
    1f90:	82 10 20 f9 	mov  0xf9, %g1	! f9 <not_reached+0x51>
    1f94:	81 e8 00 00 	restore 
    1f98:	91 d0 20 00 	ta  0
    1f9c:	01 00 00 00 	nop 

00001fa0 <SW_trap_0xfa>:
    1fa0:	82 10 20 fa 	mov  0xfa, %g1	! fa <not_reached+0x52>
    1fa4:	81 e8 00 00 	restore 
    1fa8:	91 d0 20 00 	ta  0
    1fac:	01 00 00 00 	nop 

00001fb0 <SW_trap_0xfb>:
    1fb0:	82 10 20 fb 	mov  0xfb, %g1	! fb <not_reached+0x53>
    1fb4:	81 e8 00 00 	restore 
    1fb8:	91 d0 20 00 	ta  0
    1fbc:	01 00 00 00 	nop 

00001fc0 <SW_trap_0xfc>:
    1fc0:	82 10 20 fc 	mov  0xfc, %g1	! fc <not_reached+0x54>
    1fc4:	81 e8 00 00 	restore 
    1fc8:	91 d0 20 00 	ta  0
    1fcc:	01 00 00 00 	nop 

00001fd0 <SW_trap_0xfd>:
    1fd0:	82 10 20 fd 	mov  0xfd, %g1	! fd <not_reached+0x55>
    1fd4:	81 e8 00 00 	restore 
    1fd8:	91 d0 20 00 	ta  0
    1fdc:	01 00 00 00 	nop 

00001fe0 <SW_trap_0xfe>:
    1fe0:	82 10 20 fe 	mov  0xfe, %g1	! fe <not_reached+0x56>
    1fe4:	81 e8 00 00 	restore 
    1fe8:	91 d0 20 00 	ta  0
    1fec:	01 00 00 00 	nop 
    1ff0:	01 00 00 00 	nop 
    1ff4:	01 00 00 00 	nop 
    1ff8:	01 00 00 00 	nop 
    1ffc:	01 00 00 00 	nop 
